Archive member included because of file (symbol)

.\CortexM3\ARM_GCC_493\Debug\Ball.a(cyfitter_cfg.o)
                              .\CortexM3\ARM_GCC_493\Debug\Cm3Start.o (cyfitter_cfg)
.\CortexM3\ARM_GCC_493\Debug\Ball.a(CyBootAsmGnu.o)
                              .\CortexM3\ARM_GCC_493\Debug\Ball.a(cyfitter_cfg.o) (CyDelayCycles)
.\CortexM3\ARM_GCC_493\Debug\Ball.a(CyLib.o)
                              .\CortexM3\ARM_GCC_493\Debug\Cm3Start.o (CyHalt)
.\CortexM3\ARM_GCC_493\Debug\Ball.a(cyPm.o)
                              .\CortexM3\ARM_GCC_493\Debug\Ball.a(CyLib.o) (CyPmReadStatus)
.\CortexM3\ARM_GCC_493\Debug\Ball.a(RC_Ch2_Timer.o)
                              .\CortexM3\ARM_GCC_493\Debug\rc_ch.o (RC_Ch2_Timer_Stop)
.\CortexM3\ARM_GCC_493\Debug\Ball.a(RC_Ch2_Timer_Interrupt.o)
                              .\CortexM3\ARM_GCC_493\Debug\rc_ch.o (RC_Ch2_Timer_Interrupt_StartEx)
.\CortexM3\ARM_GCC_493\Debug\Ball.a(Clock_Millis_Interrupt.o)
                              .\CortexM3\ARM_GCC_493\Debug\milliseconds.o (Clock_Millis_Interrupt_StartEx)
.\CortexM3\ARM_GCC_493\Debug\Ball.a(RC_Ch1.o)
                              .\CortexM3\ARM_GCC_493\Debug\rc_ch.o (RC_Ch1_Read)
.\CortexM3\ARM_GCC_493\Debug\Ball.a(RC_Ch1_Timer.o)
                              .\CortexM3\ARM_GCC_493\Debug\rc_ch.o (RC_Ch1_Timer_Stop)
.\CortexM3\ARM_GCC_493\Debug\Ball.a(RC_Ch2.o)
                              .\CortexM3\ARM_GCC_493\Debug\rc_ch.o (RC_Ch2_Read)
.\CortexM3\ARM_GCC_493\Debug\Ball.a(RC_Ch1_Timer_Interrupt.o)
                              .\CortexM3\ARM_GCC_493\Debug\rc_ch.o (RC_Ch1_Timer_Interrupt_StartEx)
.\CortexM3\ARM_GCC_493\Debug\Ball.a(RC_Ch4_Timer.o)
                              .\CortexM3\ARM_GCC_493\Debug\rc_ch.o (RC_Ch4_Timer_Stop)
.\CortexM3\ARM_GCC_493\Debug\Ball.a(RC_Ch4.o)
                              .\CortexM3\ARM_GCC_493\Debug\rc_ch.o (RC_Ch4_Read)
.\CortexM3\ARM_GCC_493\Debug\Ball.a(RC_Ch4_Timer_Interrupt.o)
                              .\CortexM3\ARM_GCC_493\Debug\rc_ch.o (RC_Ch4_Timer_Interrupt_StartEx)
.\CortexM3\ARM_GCC_493\Debug\Ball.a(RC_Ch3_Timer.o)
                              .\CortexM3\ARM_GCC_493\Debug\rc_ch.o (RC_Ch3_Timer_Stop)
.\CortexM3\ARM_GCC_493\Debug\Ball.a(RC_Ch3.o)
                              .\CortexM3\ARM_GCC_493\Debug\rc_ch.o (RC_Ch3_Read)
.\CortexM3\ARM_GCC_493\Debug\Ball.a(RC_Ch3_Timer_Interrupt.o)
                              .\CortexM3\ARM_GCC_493\Debug\rc_ch.o (RC_Ch3_Timer_Interrupt_StartEx)
.\CortexM3\ARM_GCC_493\Debug\Ball.a(Drive_DC_Motor_PWM.o)
                              .\CortexM3\ARM_GCC_493\Debug\dc_motor.o (Drive_DC_Motor_PWM_WriteCompare1)
.\CortexM3\ARM_GCC_493\Debug\Ball.a(Pendulum_DC_Motor_PWM.o)
                              .\CortexM3\ARM_GCC_493\Debug\dc_motor.o (Pendulum_DC_Motor_PWM_WriteCompare1)
.\CortexM3\ARM_GCC_493\Debug\Ball.a(Flywheel_DC_Motor_PWM.o)
                              .\CortexM3\ARM_GCC_493\Debug\dc_motor.o (Flywheel_DC_Motor_PWM_WriteCompare1)
.\CortexM3\ARM_GCC_493\Debug\Ball.a(MPU6050_I2C.o)
                              .\CortexM3\ARM_GCC_493\Debug\imu.o (MPU6050_I2C_Start)
.\CortexM3\ARM_GCC_493\Debug\Ball.a(MPU6050_I2C_INT.o)
                              .\CortexM3\ARM_GCC_493\Debug\Ball.a(MPU6050_I2C.o) (MPU6050_I2C_ISR)
.\CortexM3\ARM_GCC_493\Debug\Ball.a(MPU6050_I2C_PM.o)
                              .\CortexM3\ARM_GCC_493\Debug\Ball.a(MPU6050_I2C.o) (MPU6050_I2C_backup)
.\CortexM3\ARM_GCC_493\Debug\Ball.a(MPU6050_I2C_MASTER.o)
                              .\CortexM3\ARM_GCC_493\Debug\Ball.a(MPU6050_I2C.o) (MPU6050_I2C_mstrStatus)
.\CortexM3\ARM_GCC_493\Debug\Ball.a(Drive_DC_Motor_Quad_Dec.o)
                              .\CortexM3\ARM_GCC_493\Debug\dc_motor.o (Drive_DC_Motor_Quad_Dec_GetCounter)
.\CortexM3\ARM_GCC_493\Debug\Ball.a(Drive_DC_Motor_Quad_Dec_Cnt16.o)
                              .\CortexM3\ARM_GCC_493\Debug\Ball.a(Drive_DC_Motor_Quad_Dec.o) (Drive_DC_Motor_Quad_Dec_Cnt16_Stop)
.\CortexM3\ARM_GCC_493\Debug\Ball.a(Pendulum_DC_Motor_Quad_Dec.o)
                              .\CortexM3\ARM_GCC_493\Debug\dc_motor.o (Pendulum_DC_Motor_Quad_Dec_GetCounter)
.\CortexM3\ARM_GCC_493\Debug\Ball.a(Pendulum_DC_Motor_Quad_Dec_Cnt16.o)
                              .\CortexM3\ARM_GCC_493\Debug\Ball.a(Pendulum_DC_Motor_Quad_Dec.o) (Pendulum_DC_Motor_Quad_Dec_Cnt16_Stop)
.\CortexM3\ARM_GCC_493\Debug\Ball.a(Status_LED.o)
                              .\CortexM3\ARM_GCC_493\Debug\main.o (Status_LED_Write)
.\CortexM3\ARM_GCC_493\Debug\Ball.a(Head_Servo_PWM.o)
                              .\CortexM3\ARM_GCC_493\Debug\servo.o (Head_Servo_PWM_WriteCompare)
.\CortexM3\ARM_GCC_493\Debug\Ball.a(CyFlash.o)
                              .\CortexM3\ARM_GCC_493\Debug\Ball.a(cyPm.o) (CyFlash_SetWaitCycles)
.\CortexM3\ARM_GCC_493\Debug\Ball.a(CySpc.o)
                              .\CortexM3\ARM_GCC_493\Debug\Ball.a(CyFlash.o) (CySpcStart)
.\CortexM3\ARM_GCC_493\Debug\Ball.a(cyutils.o)
                              .\CortexM3\ARM_GCC_493\Debug\Ball.a(RC_Ch2_Timer.o) (CySetReg24)
c:/program files (x86)/cypress/psoc creator/3.3/psoc creator/import/gnu/arm/4.9.3/bin/../lib/gcc/arm-none-eabi/4.9.3/../../../../arm-none-eabi/lib/armv7-m\libm.a(lib_a-w_atan2.o)
                              .\CortexM3\ARM_GCC_493\Debug\imu.o (atan2)
c:/program files (x86)/cypress/psoc creator/3.3/psoc creator/import/gnu/arm/4.9.3/bin/../lib/gcc/arm-none-eabi/4.9.3/../../../../arm-none-eabi/lib/armv7-m\libm.a(lib_a-e_atan2.o)
                              c:/program files (x86)/cypress/psoc creator/3.3/psoc creator/import/gnu/arm/4.9.3/bin/../lib/gcc/arm-none-eabi/4.9.3/../../../../arm-none-eabi/lib/armv7-m\libm.a(lib_a-w_atan2.o) (__ieee754_atan2)
c:/program files (x86)/cypress/psoc creator/3.3/psoc creator/import/gnu/arm/4.9.3/bin/../lib/gcc/arm-none-eabi/4.9.3/../../../../arm-none-eabi/lib/armv7-m\libm.a(lib_a-s_atan.o)
                              c:/program files (x86)/cypress/psoc creator/3.3/psoc creator/import/gnu/arm/4.9.3/bin/../lib/gcc/arm-none-eabi/4.9.3/../../../../arm-none-eabi/lib/armv7-m\libm.a(lib_a-e_atan2.o) (atan)
c:/program files (x86)/cypress/psoc creator/3.3/psoc creator/import/gnu/arm/4.9.3/bin/../lib/gcc/arm-none-eabi/4.9.3/../../../../arm-none-eabi/lib/armv7-m\libm.a(lib_a-s_fabs.o)
                              c:/program files (x86)/cypress/psoc creator/3.3/psoc creator/import/gnu/arm/4.9.3/bin/../lib/gcc/arm-none-eabi/4.9.3/../../../../arm-none-eabi/lib/armv7-m\libm.a(lib_a-e_atan2.o) (fabs)
c:/program files (x86)/cypress/psoc creator/3.3/psoc creator/import/gnu/arm/4.9.3/bin/../lib/gcc/arm-none-eabi/4.9.3/armv7-m\libgcc.a(_arm_addsubdf3.o)
                              c:/program files (x86)/cypress/psoc creator/3.3/psoc creator/import/gnu/arm/4.9.3/bin/../lib/gcc/arm-none-eabi/4.9.3/../../../../arm-none-eabi/lib/armv7-m\libm.a(lib_a-e_atan2.o) (__aeabi_dsub)
c:/program files (x86)/cypress/psoc creator/3.3/psoc creator/import/gnu/arm/4.9.3/bin/../lib/gcc/arm-none-eabi/4.9.3/armv7-m\libgcc.a(_arm_muldivdf3.o)
                              .\CortexM3\ARM_GCC_493\Debug\main.o (__aeabi_dmul)
c:/program files (x86)/cypress/psoc creator/3.3/psoc creator/import/gnu/arm/4.9.3/bin/../lib/gcc/arm-none-eabi/4.9.3/armv7-m\libgcc.a(_arm_cmpdf2.o)
                              c:/program files (x86)/cypress/psoc creator/3.3/psoc creator/import/gnu/arm/4.9.3/bin/../lib/gcc/arm-none-eabi/4.9.3/../../../../arm-none-eabi/lib/armv7-m\libm.a(lib_a-s_atan.o) (__aeabi_dcmpgt)
c:/program files (x86)/cypress/psoc creator/3.3/psoc creator/import/gnu/arm/4.9.3/bin/../lib/gcc/arm-none-eabi/4.9.3/armv7-m\libgcc.a(_arm_fixdfsi.o)
                              .\CortexM3\ARM_GCC_493\Debug\main.o (__aeabi_d2iz)
c:/program files (x86)/cypress/psoc creator/3.3/psoc creator/import/gnu/arm/4.9.3/bin/../lib/gcc/arm-none-eabi/4.9.3/armv7-m\libgcc.a(_arm_truncdfsf2.o)
                              .\CortexM3\ARM_GCC_493\Debug\main.o (__aeabi_d2f)
c:/program files (x86)/cypress/psoc creator/3.3/psoc creator/import/gnu/arm/4.9.3/bin/../lib/gcc/arm-none-eabi/4.9.3/armv7-m\libgcc.a(_arm_addsubsf3.o)
                              .\CortexM3\ARM_GCC_493\Debug\dc_motor.o (__aeabi_fsub)
c:/program files (x86)/cypress/psoc creator/3.3/psoc creator/import/gnu/arm/4.9.3/bin/../lib/gcc/arm-none-eabi/4.9.3/armv7-m\libgcc.a(_arm_muldivsf3.o)
                              .\CortexM3\ARM_GCC_493\Debug\dc_motor.o (__aeabi_fmul)
c:/program files (x86)/cypress/psoc creator/3.3/psoc creator/import/gnu/arm/4.9.3/bin/../lib/gcc/arm-none-eabi/4.9.3/armv7-m\libgcc.a(_arm_cmpsf2.o)
                              .\CortexM3\ARM_GCC_493\Debug\main.o (__aeabi_fcmplt)
c:/program files (x86)/cypress/psoc creator/3.3/psoc creator/import/gnu/arm/4.9.3/bin/../lib/gcc/arm-none-eabi/4.9.3/armv7-m\libgcc.a(_arm_fixsfsi.o)
                              .\CortexM3\ARM_GCC_493\Debug\main.o (__aeabi_f2iz)
c:/program files (x86)/cypress/psoc creator/3.3/psoc creator/import/gnu/arm/4.9.3/bin/../lib/gcc/arm-none-eabi/4.9.3/../../../../arm-none-eabi/lib/armv7-m\libg_nano.a(lib_a-errno.o)
                              .\CortexM3\ARM_GCC_493\Debug\Cm3Start.o (__errno)
c:/program files (x86)/cypress/psoc creator/3.3/psoc creator/import/gnu/arm/4.9.3/bin/../lib/gcc/arm-none-eabi/4.9.3/../../../../arm-none-eabi/lib/armv7-m\libg_nano.a(lib_a-exit.o)
                              c:/program files (x86)/cypress/psoc creator/3.3/psoc creator/import/gnu/arm/4.9.3/bin/../lib/gcc/arm-none-eabi/4.9.3/../../../../arm-none-eabi/lib/armv7-m/crt0.o (exit)
c:/program files (x86)/cypress/psoc creator/3.3/psoc creator/import/gnu/arm/4.9.3/bin/../lib/gcc/arm-none-eabi/4.9.3/../../../../arm-none-eabi/lib/armv7-m\libg_nano.a(lib_a-impure.o)
                              c:/program files (x86)/cypress/psoc creator/3.3/psoc creator/import/gnu/arm/4.9.3/bin/../lib/gcc/arm-none-eabi/4.9.3/../../../../arm-none-eabi/lib/armv7-m\libg_nano.a(lib_a-exit.o) (_global_impure_ptr)
c:/program files (x86)/cypress/psoc creator/3.3/psoc creator/import/gnu/arm/4.9.3/bin/../lib/gcc/arm-none-eabi/4.9.3/../../../../arm-none-eabi/lib/armv7-m\libg_nano.a(lib_a-init.o)
                              c:/program files (x86)/cypress/psoc creator/3.3/psoc creator/import/gnu/arm/4.9.3/bin/../lib/gcc/arm-none-eabi/4.9.3/../../../../arm-none-eabi/lib/armv7-m/crt0.o (__libc_init_array)
c:/program files (x86)/cypress/psoc creator/3.3/psoc creator/import/gnu/arm/4.9.3/bin/../lib/gcc/arm-none-eabi/4.9.3/../../../../arm-none-eabi/lib/armv7-m\libg_nano.a(lib_a-memcpy.o)
                              .\CortexM3\ARM_GCC_493\Debug\Ball.a(cyfitter_cfg.o) (memcpy)
c:/program files (x86)/cypress/psoc creator/3.3/psoc creator/import/gnu/arm/4.9.3/bin/../lib/gcc/arm-none-eabi/4.9.3/../../../../arm-none-eabi/lib/armv7-m\libg_nano.a(lib_a-memset.o)
                              c:/program files (x86)/cypress/psoc creator/3.3/psoc creator/import/gnu/arm/4.9.3/bin/../lib/gcc/arm-none-eabi/4.9.3/../../../../arm-none-eabi/lib/armv7-m/crt0.o (memset)

Allocating common symbols
Common symbol       size              file

MPU6050_I2C_mstrWrBufPtr
                    0x4               .\CortexM3\ARM_GCC_493\Debug\Ball.a(MPU6050_I2C_MASTER.o)
MPU6050_I2C_state   0x1               .\CortexM3\ARM_GCC_493\Debug\Ball.a(MPU6050_I2C.o)
MPU6050_I2C_mstrRdBufSize
                    0x1               .\CortexM3\ARM_GCC_493\Debug\Ball.a(MPU6050_I2C_MASTER.o)
MPU6050_I2C_mstrWrBufIndex
                    0x1               .\CortexM3\ARM_GCC_493\Debug\Ball.a(MPU6050_I2C_MASTER.o)
MPU6050_I2C_mstrStatus
                    0x1               .\CortexM3\ARM_GCC_493\Debug\Ball.a(MPU6050_I2C_MASTER.o)
ms                  0x2               .\CortexM3\ARM_GCC_493\Debug\milliseconds.o
buffer              0x16              .\CortexM3\ARM_GCC_493\Debug\mpu6050.o
seconds             0x2               .\CortexM3\ARM_GCC_493\Debug\milliseconds.o
MPU6050_I2C_mstrRdBufPtr
                    0x4               .\CortexM3\ARM_GCC_493\Debug\Ball.a(MPU6050_I2C_MASTER.o)
devAddr             0x1               .\CortexM3\ARM_GCC_493\Debug\mpu6050.o
MPU6050_I2C_mstrRdBufIndex
                    0x1               .\CortexM3\ARM_GCC_493\Debug\Ball.a(MPU6050_I2C_MASTER.o)
MPU6050_I2C_mstrWrBufSize
                    0x1               .\CortexM3\ARM_GCC_493\Debug\Ball.a(MPU6050_I2C_MASTER.o)
MPU6050_I2C_mstrControl
                    0x1               .\CortexM3\ARM_GCC_493\Debug\Ball.a(MPU6050_I2C_MASTER.o)
MILLISECONDS        0x4               .\CortexM3\ARM_GCC_493\Debug\milliseconds.o
dieTemperature      0x2               .\CortexM3\ARM_GCC_493\Debug\Ball.a(CyFlash.o)
minutes             0x2               .\CortexM3\ARM_GCC_493\Debug\milliseconds.o
hours               0x2               .\CortexM3\ARM_GCC_493\Debug\milliseconds.o

Discarded input sections

 .text          0x00000000        0x0 c:/program files (x86)/cypress/psoc creator/3.3/psoc creator/import/gnu/arm/4.9.3/bin/../lib/gcc/arm-none-eabi/4.9.3/armv7-m/crti.o
 .data          0x00000000        0x0 c:/program files (x86)/cypress/psoc creator/3.3/psoc creator/import/gnu/arm/4.9.3/bin/../lib/gcc/arm-none-eabi/4.9.3/armv7-m/crti.o
 .bss           0x00000000        0x0 c:/program files (x86)/cypress/psoc creator/3.3/psoc creator/import/gnu/arm/4.9.3/bin/../lib/gcc/arm-none-eabi/4.9.3/armv7-m/crti.o
 .data          0x00000000        0x4 c:/program files (x86)/cypress/psoc creator/3.3/psoc creator/import/gnu/arm/4.9.3/bin/../lib/gcc/arm-none-eabi/4.9.3/armv7-m/crtbegin.o
 .text          0x00000000       0x74 c:/program files (x86)/cypress/psoc creator/3.3/psoc creator/import/gnu/arm/4.9.3/bin/../lib/gcc/arm-none-eabi/4.9.3/../../../../arm-none-eabi/lib/armv7-m/crt0.o
 .data          0x00000000        0x0 c:/program files (x86)/cypress/psoc creator/3.3/psoc creator/import/gnu/arm/4.9.3/bin/../lib/gcc/arm-none-eabi/4.9.3/../../../../arm-none-eabi/lib/armv7-m/crt0.o
 .bss           0x00000000        0x0 c:/program files (x86)/cypress/psoc creator/3.3/psoc creator/import/gnu/arm/4.9.3/bin/../lib/gcc/arm-none-eabi/4.9.3/../../../../arm-none-eabi/lib/armv7-m/crt0.o
 .ARM.extab     0x00000000        0x0 c:/program files (x86)/cypress/psoc creator/3.3/psoc creator/import/gnu/arm/4.9.3/bin/../lib/gcc/arm-none-eabi/4.9.3/../../../../arm-none-eabi/lib/armv7-m/crt0.o
 .ARM.exidx     0x00000000        0x8 c:/program files (x86)/cypress/psoc creator/3.3/psoc creator/import/gnu/arm/4.9.3/bin/../lib/gcc/arm-none-eabi/4.9.3/../../../../arm-none-eabi/lib/armv7-m/crt0.o
 .text          0x00000000        0x0 .\CortexM3\ARM_GCC_493\Debug\main.o
 .data          0x00000000        0x0 .\CortexM3\ARM_GCC_493\Debug\main.o
 .bss           0x00000000       0x40 .\CortexM3\ARM_GCC_493\Debug\main.o
 COMMON         0x00000000        0x0 .\CortexM3\ARM_GCC_493\Debug\main.o
 .text          0x00000000        0x0 .\CortexM3\ARM_GCC_493\Debug\milliseconds.o
 .data          0x00000000        0x0 .\CortexM3\ARM_GCC_493\Debug\milliseconds.o
 .bss           0x00000000        0x0 .\CortexM3\ARM_GCC_493\Debug\milliseconds.o
 .text          0x00000000        0x0 .\CortexM3\ARM_GCC_493\Debug\rc_ch.o
 .data          0x00000000        0x0 .\CortexM3\ARM_GCC_493\Debug\rc_ch.o
 .text          0x00000000        0x0 .\CortexM3\ARM_GCC_493\Debug\dc_motor.o
 .data          0x00000000        0x0 .\CortexM3\ARM_GCC_493\Debug\dc_motor.o
 .bss           0x00000000        0x0 .\CortexM3\ARM_GCC_493\Debug\dc_motor.o
 .text.set_dc_motor_speed
                0x00000000       0x80 .\CortexM3\ARM_GCC_493\Debug\dc_motor.o
 .rodata        0x00000000        0xc .\CortexM3\ARM_GCC_493\Debug\dc_motor.o
 .text          0x00000000        0x0 .\CortexM3\ARM_GCC_493\Debug\mpu6050.o
 .data          0x00000000        0x0 .\CortexM3\ARM_GCC_493\Debug\mpu6050.o
 .bss           0x00000000        0x0 .\CortexM3\ARM_GCC_493\Debug\mpu6050.o
 .text.I2C_MPU6050_I2CAddress
                0x00000000        0xc .\CortexM3\ARM_GCC_493\Debug\mpu6050.o
 .text.MPU6050_getAuxVDDIOLevel
                0x00000000       0x20 .\CortexM3\ARM_GCC_493\Debug\mpu6050.o
 .text.MPU6050_setAuxVDDIOLevel
                0x00000000       0x18 .\CortexM3\ARM_GCC_493\Debug\mpu6050.o
 .text.MPU6050_getRate
                0x00000000       0x1c .\CortexM3\ARM_GCC_493\Debug\mpu6050.o
 .text.MPU6050_setRate
                0x00000000       0x14 .\CortexM3\ARM_GCC_493\Debug\mpu6050.o
 .text.MPU6050_getExternalFrameSync
                0x00000000       0x24 .\CortexM3\ARM_GCC_493\Debug\mpu6050.o
 .text.MPU6050_setExternalFrameSync
                0x00000000       0x20 .\CortexM3\ARM_GCC_493\Debug\mpu6050.o
 .text.MPU6050_getDLPFMode
                0x00000000       0x24 .\CortexM3\ARM_GCC_493\Debug\mpu6050.o
 .text.MPU6050_getFullScaleGyroRange
                0x00000000       0x24 .\CortexM3\ARM_GCC_493\Debug\mpu6050.o
 .text.MPU6050_getAccelXSelfTest
                0x00000000       0x24 .\CortexM3\ARM_GCC_493\Debug\mpu6050.o
 .text.MPU6050_setAccelXSelfTest
                0x00000000       0x18 .\CortexM3\ARM_GCC_493\Debug\mpu6050.o
 .text.MPU6050_getAccelYSelfTest
                0x00000000       0x24 .\CortexM3\ARM_GCC_493\Debug\mpu6050.o
 .text.MPU6050_setAccelYSelfTest
                0x00000000       0x18 .\CortexM3\ARM_GCC_493\Debug\mpu6050.o
 .text.MPU6050_getAccelZSelfTest
                0x00000000       0x24 .\CortexM3\ARM_GCC_493\Debug\mpu6050.o
 .text.MPU6050_setAccelZSelfTest
                0x00000000       0x18 .\CortexM3\ARM_GCC_493\Debug\mpu6050.o
 .text.MPU6050_getFullScaleAccelRange
                0x00000000       0x24 .\CortexM3\ARM_GCC_493\Debug\mpu6050.o
 .text.MPU6050_getDHPFMode
                0x00000000       0x24 .\CortexM3\ARM_GCC_493\Debug\mpu6050.o
 .text.MPU6050_setDHPFMode
                0x00000000       0x20 .\CortexM3\ARM_GCC_493\Debug\mpu6050.o
 .text.MPU6050_getFreefallDetectionThreshold
                0x00000000       0x1c .\CortexM3\ARM_GCC_493\Debug\mpu6050.o
 .text.MPU6050_setFreefallDetectionThreshold
                0x00000000       0x14 .\CortexM3\ARM_GCC_493\Debug\mpu6050.o
 .text.MPU6050_getFreefallDetectionDuration
                0x00000000       0x1c .\CortexM3\ARM_GCC_493\Debug\mpu6050.o
 .text.MPU6050_setFreefallDetectionDuration
                0x00000000       0x14 .\CortexM3\ARM_GCC_493\Debug\mpu6050.o
 .text.MPU6050_getMotionDetectionThreshold
                0x00000000       0x1c .\CortexM3\ARM_GCC_493\Debug\mpu6050.o
 .text.MPU6050_setMotionDetectionThreshold
                0x00000000       0x14 .\CortexM3\ARM_GCC_493\Debug\mpu6050.o
 .text.MPU6050_getMotionDetectionDuration
                0x00000000       0x1c .\CortexM3\ARM_GCC_493\Debug\mpu6050.o
 .text.MPU6050_setMotionDetectionDuration
                0x00000000       0x14 .\CortexM3\ARM_GCC_493\Debug\mpu6050.o
 .text.MPU6050_getZeroMotionDetectionThreshold
                0x00000000       0x1c .\CortexM3\ARM_GCC_493\Debug\mpu6050.o
 .text.MPU6050_setZeroMotionDetectionThreshold
                0x00000000       0x14 .\CortexM3\ARM_GCC_493\Debug\mpu6050.o
 .text.MPU6050_getZeroMotionDetectionDuration
                0x00000000       0x1c .\CortexM3\ARM_GCC_493\Debug\mpu6050.o
 .text.MPU6050_setZeroMotionDetectionDuration
                0x00000000       0x14 .\CortexM3\ARM_GCC_493\Debug\mpu6050.o
 .text.MPU6050_getTempFIFOEnabled
                0x00000000       0x24 .\CortexM3\ARM_GCC_493\Debug\mpu6050.o
 .text.MPU6050_setTempFIFOEnabled
                0x00000000       0x18 .\CortexM3\ARM_GCC_493\Debug\mpu6050.o
 .text.MPU6050_getXGyroFIFOEnabled
                0x00000000       0x24 .\CortexM3\ARM_GCC_493\Debug\mpu6050.o
 .text.MPU6050_setXGyroFIFOEnabled
                0x00000000       0x18 .\CortexM3\ARM_GCC_493\Debug\mpu6050.o
 .text.MPU6050_getYGyroFIFOEnabled
                0x00000000       0x24 .\CortexM3\ARM_GCC_493\Debug\mpu6050.o
 .text.MPU6050_setYGyroFIFOEnabled
                0x00000000       0x18 .\CortexM3\ARM_GCC_493\Debug\mpu6050.o
 .text.MPU6050_getZGyroFIFOEnabled
                0x00000000       0x24 .\CortexM3\ARM_GCC_493\Debug\mpu6050.o
 .text.MPU6050_setZGyroFIFOEnabled
                0x00000000       0x18 .\CortexM3\ARM_GCC_493\Debug\mpu6050.o
 .text.MPU6050_getAccelFIFOEnabled
                0x00000000       0x24 .\CortexM3\ARM_GCC_493\Debug\mpu6050.o
 .text.MPU6050_setAccelFIFOEnabled
                0x00000000       0x18 .\CortexM3\ARM_GCC_493\Debug\mpu6050.o
 .text.MPU6050_getSlave2FIFOEnabled
                0x00000000       0x24 .\CortexM3\ARM_GCC_493\Debug\mpu6050.o
 .text.MPU6050_setSlave2FIFOEnabled
                0x00000000       0x18 .\CortexM3\ARM_GCC_493\Debug\mpu6050.o
 .text.MPU6050_getSlave1FIFOEnabled
                0x00000000       0x24 .\CortexM3\ARM_GCC_493\Debug\mpu6050.o
 .text.MPU6050_setSlave1FIFOEnabled
                0x00000000       0x18 .\CortexM3\ARM_GCC_493\Debug\mpu6050.o
 .text.MPU6050_getSlave0FIFOEnabled
                0x00000000       0x24 .\CortexM3\ARM_GCC_493\Debug\mpu6050.o
 .text.MPU6050_setSlave0FIFOEnabled
                0x00000000       0x18 .\CortexM3\ARM_GCC_493\Debug\mpu6050.o
 .text.MPU6050_getMultiMasterEnabled
                0x00000000       0x24 .\CortexM3\ARM_GCC_493\Debug\mpu6050.o
 .text.MPU6050_setMultiMasterEnabled
                0x00000000       0x18 .\CortexM3\ARM_GCC_493\Debug\mpu6050.o
 .text.MPU6050_getWaitForExternalSensorEnabled
                0x00000000       0x24 .\CortexM3\ARM_GCC_493\Debug\mpu6050.o
 .text.MPU6050_setWaitForExternalSensorEnabled
                0x00000000       0x18 .\CortexM3\ARM_GCC_493\Debug\mpu6050.o
 .text.MPU6050_getSlave3FIFOEnabled
                0x00000000       0x24 .\CortexM3\ARM_GCC_493\Debug\mpu6050.o
 .text.MPU6050_setSlave3FIFOEnabled
                0x00000000       0x18 .\CortexM3\ARM_GCC_493\Debug\mpu6050.o
 .text.MPU6050_getSlaveReadWriteTransitionEnabled
                0x00000000       0x24 .\CortexM3\ARM_GCC_493\Debug\mpu6050.o
 .text.MPU6050_setSlaveReadWriteTransitionEnabled
                0x00000000       0x18 .\CortexM3\ARM_GCC_493\Debug\mpu6050.o
 .text.MPU6050_getMasterClockSpeed
                0x00000000       0x24 .\CortexM3\ARM_GCC_493\Debug\mpu6050.o
 .text.MPU6050_setMasterClockSpeed
                0x00000000       0x20 .\CortexM3\ARM_GCC_493\Debug\mpu6050.o
 .text.MPU6050_getSlaveAddress
                0x00000000       0x2c .\CortexM3\ARM_GCC_493\Debug\mpu6050.o
 .text.MPU6050_setSlaveAddress
                0x00000000       0x24 .\CortexM3\ARM_GCC_493\Debug\mpu6050.o
 .text.MPU6050_getSlaveRegister
                0x00000000       0x2c .\CortexM3\ARM_GCC_493\Debug\mpu6050.o
 .text.MPU6050_setSlaveRegister
                0x00000000       0x24 .\CortexM3\ARM_GCC_493\Debug\mpu6050.o
 .text.MPU6050_getSlaveEnabled
                0x00000000       0x34 .\CortexM3\ARM_GCC_493\Debug\mpu6050.o
 .text.MPU6050_setSlaveEnabled
                0x00000000       0x24 .\CortexM3\ARM_GCC_493\Debug\mpu6050.o
 .text.MPU6050_getSlaveWordByteSwap
                0x00000000       0x34 .\CortexM3\ARM_GCC_493\Debug\mpu6050.o
 .text.MPU6050_setSlaveWordByteSwap
                0x00000000       0x24 .\CortexM3\ARM_GCC_493\Debug\mpu6050.o
 .text.MPU6050_getSlaveWriteMode
                0x00000000       0x34 .\CortexM3\ARM_GCC_493\Debug\mpu6050.o
 .text.MPU6050_setSlaveWriteMode
                0x00000000       0x24 .\CortexM3\ARM_GCC_493\Debug\mpu6050.o
 .text.MPU6050_getSlaveWordGroupOffset
                0x00000000       0x34 .\CortexM3\ARM_GCC_493\Debug\mpu6050.o
 .text.MPU6050_setSlaveWordGroupOffset
                0x00000000       0x24 .\CortexM3\ARM_GCC_493\Debug\mpu6050.o
 .text.MPU6050_getSlaveDataLength
                0x00000000       0x38 .\CortexM3\ARM_GCC_493\Debug\mpu6050.o
 .text.MPU6050_setSlaveDataLength
                0x00000000       0x2c .\CortexM3\ARM_GCC_493\Debug\mpu6050.o
 .text.MPU6050_getSlave4Address
                0x00000000       0x1c .\CortexM3\ARM_GCC_493\Debug\mpu6050.o
 .text.MPU6050_setSlave4Address
                0x00000000       0x14 .\CortexM3\ARM_GCC_493\Debug\mpu6050.o
 .text.MPU6050_getSlave4Register
                0x00000000       0x1c .\CortexM3\ARM_GCC_493\Debug\mpu6050.o
 .text.MPU6050_setSlave4Register
                0x00000000       0x14 .\CortexM3\ARM_GCC_493\Debug\mpu6050.o
 .text.MPU6050_setSlave4OutputByte
                0x00000000       0x14 .\CortexM3\ARM_GCC_493\Debug\mpu6050.o
 .text.MPU6050_getSlave4Enabled
                0x00000000       0x24 .\CortexM3\ARM_GCC_493\Debug\mpu6050.o
 .text.MPU6050_setSlave4Enabled
                0x00000000       0x18 .\CortexM3\ARM_GCC_493\Debug\mpu6050.o
 .text.MPU6050_getSlave4InterruptEnabled
                0x00000000       0x24 .\CortexM3\ARM_GCC_493\Debug\mpu6050.o
 .text.MPU6050_setSlave4InterruptEnabled
                0x00000000       0x18 .\CortexM3\ARM_GCC_493\Debug\mpu6050.o
 .text.MPU6050_getSlave4WriteMode
                0x00000000       0x24 .\CortexM3\ARM_GCC_493\Debug\mpu6050.o
 .text.MPU6050_setSlave4WriteMode
                0x00000000       0x18 .\CortexM3\ARM_GCC_493\Debug\mpu6050.o
 .text.MPU6050_getSlave4MasterDelay
                0x00000000       0x24 .\CortexM3\ARM_GCC_493\Debug\mpu6050.o
 .text.MPU6050_setSlave4MasterDelay
                0x00000000       0x20 .\CortexM3\ARM_GCC_493\Debug\mpu6050.o
 .text.MPU6050_getSlate4InputByte
                0x00000000       0x1c .\CortexM3\ARM_GCC_493\Debug\mpu6050.o
 .text.MPU6050_getPassthroughStatus
                0x00000000       0x24 .\CortexM3\ARM_GCC_493\Debug\mpu6050.o
 .text.MPU6050_getSlave4IsDone
                0x00000000       0x24 .\CortexM3\ARM_GCC_493\Debug\mpu6050.o
 .text.MPU6050_getLostArbitration
                0x00000000       0x24 .\CortexM3\ARM_GCC_493\Debug\mpu6050.o
 .text.MPU6050_getSlave4Nack
                0x00000000       0x24 .\CortexM3\ARM_GCC_493\Debug\mpu6050.o
 .text.MPU6050_getSlave3Nack
                0x00000000       0x24 .\CortexM3\ARM_GCC_493\Debug\mpu6050.o
 .text.MPU6050_getSlave2Nack
                0x00000000       0x24 .\CortexM3\ARM_GCC_493\Debug\mpu6050.o
 .text.MPU6050_getSlave1Nack
                0x00000000       0x24 .\CortexM3\ARM_GCC_493\Debug\mpu6050.o
 .text.MPU6050_getSlave0Nack
                0x00000000       0x24 .\CortexM3\ARM_GCC_493\Debug\mpu6050.o
 .text.MPU6050_getInterruptMode
                0x00000000       0x24 .\CortexM3\ARM_GCC_493\Debug\mpu6050.o
 .text.MPU6050_setInterruptMode
                0x00000000       0x18 .\CortexM3\ARM_GCC_493\Debug\mpu6050.o
 .text.MPU6050_getInterruptDrive
                0x00000000       0x24 .\CortexM3\ARM_GCC_493\Debug\mpu6050.o
 .text.MPU6050_setInterruptDrive
                0x00000000       0x18 .\CortexM3\ARM_GCC_493\Debug\mpu6050.o
 .text.MPU6050_getInterruptLatch
                0x00000000       0x24 .\CortexM3\ARM_GCC_493\Debug\mpu6050.o
 .text.MPU6050_setInterruptLatch
                0x00000000       0x18 .\CortexM3\ARM_GCC_493\Debug\mpu6050.o
 .text.MPU6050_getInterruptLatchClear
                0x00000000       0x24 .\CortexM3\ARM_GCC_493\Debug\mpu6050.o
 .text.MPU6050_setInterruptLatchClear
                0x00000000       0x18 .\CortexM3\ARM_GCC_493\Debug\mpu6050.o
 .text.MPU6050_getFSyncInterruptLevel
                0x00000000       0x24 .\CortexM3\ARM_GCC_493\Debug\mpu6050.o
 .text.MPU6050_setFSyncInterruptLevel
                0x00000000       0x18 .\CortexM3\ARM_GCC_493\Debug\mpu6050.o
 .text.MPU6050_getFSyncInterruptEnabled
                0x00000000       0x24 .\CortexM3\ARM_GCC_493\Debug\mpu6050.o
 .text.MPU6050_setFSyncInterruptEnabled
                0x00000000       0x18 .\CortexM3\ARM_GCC_493\Debug\mpu6050.o
 .text.MPU6050_getI2CBypassEnabled
                0x00000000       0x24 .\CortexM3\ARM_GCC_493\Debug\mpu6050.o
 .text.MPU6050_setI2CBypassEnabled
                0x00000000       0x18 .\CortexM3\ARM_GCC_493\Debug\mpu6050.o
 .text.MPU6050_getClockOutputEnabled
                0x00000000       0x24 .\CortexM3\ARM_GCC_493\Debug\mpu6050.o
 .text.MPU6050_setClockOutputEnabled
                0x00000000       0x18 .\CortexM3\ARM_GCC_493\Debug\mpu6050.o
 .text.MPU6050_getIntEnabled
                0x00000000       0x1c .\CortexM3\ARM_GCC_493\Debug\mpu6050.o
 .text.MPU6050_setIntEnabled
                0x00000000       0x14 .\CortexM3\ARM_GCC_493\Debug\mpu6050.o
 .text.MPU6050_getIntFreefallEnabled
                0x00000000       0x24 .\CortexM3\ARM_GCC_493\Debug\mpu6050.o
 .text.MPU6050_setIntFreefallEnabled
                0x00000000       0x18 .\CortexM3\ARM_GCC_493\Debug\mpu6050.o
 .text.MPU6050_getIntMotionEnabled
                0x00000000       0x24 .\CortexM3\ARM_GCC_493\Debug\mpu6050.o
 .text.MPU6050_setIntMotionEnabled
                0x00000000       0x18 .\CortexM3\ARM_GCC_493\Debug\mpu6050.o
 .text.MPU6050_getIntZeroMotionEnabled
                0x00000000       0x24 .\CortexM3\ARM_GCC_493\Debug\mpu6050.o
 .text.MPU6050_setIntZeroMotionEnabled
                0x00000000       0x18 .\CortexM3\ARM_GCC_493\Debug\mpu6050.o
 .text.MPU6050_getIntFIFOBufferOverflowEnabled
                0x00000000       0x24 .\CortexM3\ARM_GCC_493\Debug\mpu6050.o
 .text.MPU6050_setIntFIFOBufferOverflowEnabled
                0x00000000       0x18 .\CortexM3\ARM_GCC_493\Debug\mpu6050.o
 .text.MPU6050_getIntI2CMasterEnabled
                0x00000000       0x24 .\CortexM3\ARM_GCC_493\Debug\mpu6050.o
 .text.MPU6050_setIntI2CMasterEnabled
                0x00000000       0x18 .\CortexM3\ARM_GCC_493\Debug\mpu6050.o
 .text.MPU6050_getIntDataReadyEnabled
                0x00000000       0x24 .\CortexM3\ARM_GCC_493\Debug\mpu6050.o
 .text.MPU6050_setIntDataReadyEnabled
                0x00000000       0x18 .\CortexM3\ARM_GCC_493\Debug\mpu6050.o
 .text.MPU6050_getIntStatus
                0x00000000       0x1c .\CortexM3\ARM_GCC_493\Debug\mpu6050.o
 .text.MPU6050_getIntFreefallStatus
                0x00000000       0x24 .\CortexM3\ARM_GCC_493\Debug\mpu6050.o
 .text.MPU6050_getIntMotionStatus
                0x00000000       0x24 .\CortexM3\ARM_GCC_493\Debug\mpu6050.o
 .text.MPU6050_getIntZeroMotionStatus
                0x00000000       0x24 .\CortexM3\ARM_GCC_493\Debug\mpu6050.o
 .text.MPU6050_getIntFIFOBufferOverflowStatus
                0x00000000       0x24 .\CortexM3\ARM_GCC_493\Debug\mpu6050.o
 .text.MPU6050_getIntI2CMasterStatus
                0x00000000       0x24 .\CortexM3\ARM_GCC_493\Debug\mpu6050.o
 .text.MPU6050_getIntDataReadyStatus
                0x00000000       0x24 .\CortexM3\ARM_GCC_493\Debug\mpu6050.o
 .text.MPU6050_getMotion9
                0x00000000       0x88 .\CortexM3\ARM_GCC_493\Debug\mpu6050.o
 .text.MPU6050_getMotion9t
                0x00000000       0x94 .\CortexM3\ARM_GCC_493\Debug\mpu6050.o
 .text.MPU6050_getMotion6t
                0x00000000       0x78 .\CortexM3\ARM_GCC_493\Debug\mpu6050.o
 .text.MPU6050_getAcceleration
                0x00000000       0x40 .\CortexM3\ARM_GCC_493\Debug\mpu6050.o
 .text.MPU6050_getAccelerationX
                0x00000000       0x28 .\CortexM3\ARM_GCC_493\Debug\mpu6050.o
 .text.MPU6050_getAccelerationY
                0x00000000       0x28 .\CortexM3\ARM_GCC_493\Debug\mpu6050.o
 .text.MPU6050_getAccelerationZ
                0x00000000       0x28 .\CortexM3\ARM_GCC_493\Debug\mpu6050.o
 .text.MPU6050_getTemperature
                0x00000000       0x28 .\CortexM3\ARM_GCC_493\Debug\mpu6050.o
 .text.MPU6050_getRotation
                0x00000000       0x40 .\CortexM3\ARM_GCC_493\Debug\mpu6050.o
 .text.MPU6050_getRotationX
                0x00000000       0x28 .\CortexM3\ARM_GCC_493\Debug\mpu6050.o
 .text.MPU6050_getRotationY
                0x00000000       0x28 .\CortexM3\ARM_GCC_493\Debug\mpu6050.o
 .text.MPU6050_getRotationZ
                0x00000000       0x28 .\CortexM3\ARM_GCC_493\Debug\mpu6050.o
 .text.MPU6050_getExternalSensorByte
                0x00000000       0x20 .\CortexM3\ARM_GCC_493\Debug\mpu6050.o
 .text.MPU6050_getExternalSensorWord
                0x00000000       0x28 .\CortexM3\ARM_GCC_493\Debug\mpu6050.o
 .text.MPU6050_getExternalSensorDWord
                0x00000000       0x34 .\CortexM3\ARM_GCC_493\Debug\mpu6050.o
 .text.MPU6050_getXNegMotionDetected
                0x00000000       0x24 .\CortexM3\ARM_GCC_493\Debug\mpu6050.o
 .text.MPU6050_getXPosMotionDetected
                0x00000000       0x24 .\CortexM3\ARM_GCC_493\Debug\mpu6050.o
 .text.MPU6050_getYNegMotionDetected
                0x00000000       0x24 .\CortexM3\ARM_GCC_493\Debug\mpu6050.o
 .text.MPU6050_getYPosMotionDetected
                0x00000000       0x24 .\CortexM3\ARM_GCC_493\Debug\mpu6050.o
 .text.MPU6050_getZNegMotionDetected
                0x00000000       0x24 .\CortexM3\ARM_GCC_493\Debug\mpu6050.o
 .text.MPU6050_getZPosMotionDetected
                0x00000000       0x24 .\CortexM3\ARM_GCC_493\Debug\mpu6050.o
 .text.MPU6050_getZeroMotionDetected
                0x00000000       0x24 .\CortexM3\ARM_GCC_493\Debug\mpu6050.o
 .text.MPU6050_setSlaveOutputByte
                0x00000000       0x20 .\CortexM3\ARM_GCC_493\Debug\mpu6050.o
 .text.MPU6050_getExternalShadowDelayEnabled
                0x00000000       0x24 .\CortexM3\ARM_GCC_493\Debug\mpu6050.o
 .text.MPU6050_setExternalShadowDelayEnabled
                0x00000000       0x18 .\CortexM3\ARM_GCC_493\Debug\mpu6050.o
 .text.MPU6050_getSlaveDelayEnabled
                0x00000000       0x2c .\CortexM3\ARM_GCC_493\Debug\mpu6050.o
 .text.MPU6050_setSlaveDelayEnabled
                0x00000000       0x18 .\CortexM3\ARM_GCC_493\Debug\mpu6050.o
 .text.MPU6050_resetGyroscopePath
                0x00000000       0x18 .\CortexM3\ARM_GCC_493\Debug\mpu6050.o
 .text.MPU6050_resetAccelerometerPath
                0x00000000       0x18 .\CortexM3\ARM_GCC_493\Debug\mpu6050.o
 .text.MPU6050_resetTemperaturePath
                0x00000000       0x18 .\CortexM3\ARM_GCC_493\Debug\mpu6050.o
 .text.MPU6050_getAccelerometerPowerOnDelay
                0x00000000       0x24 .\CortexM3\ARM_GCC_493\Debug\mpu6050.o
 .text.MPU6050_setAccelerometerPowerOnDelay
                0x00000000       0x20 .\CortexM3\ARM_GCC_493\Debug\mpu6050.o
 .text.MPU6050_getFreefallDetectionCounterDecrement
                0x00000000       0x24 .\CortexM3\ARM_GCC_493\Debug\mpu6050.o
 .text.MPU6050_setFreefallDetectionCounterDecrement
                0x00000000       0x20 .\CortexM3\ARM_GCC_493\Debug\mpu6050.o
 .text.MPU6050_getMotionDetectionCounterDecrement
                0x00000000       0x24 .\CortexM3\ARM_GCC_493\Debug\mpu6050.o
 .text.MPU6050_setMotionDetectionCounterDecrement
                0x00000000       0x20 .\CortexM3\ARM_GCC_493\Debug\mpu6050.o
 .text.MPU6050_getFIFOEnabled
                0x00000000       0x24 .\CortexM3\ARM_GCC_493\Debug\mpu6050.o
 .text.MPU6050_setFIFOEnabled
                0x00000000       0x18 .\CortexM3\ARM_GCC_493\Debug\mpu6050.o
 .text.MPU6050_getI2CMasterModeEnabled
                0x00000000       0x24 .\CortexM3\ARM_GCC_493\Debug\mpu6050.o
 .text.MPU6050_setI2CMasterModeEnabled
                0x00000000       0x18 .\CortexM3\ARM_GCC_493\Debug\mpu6050.o
 .text.MPU6050_switchSPIEnabled
                0x00000000       0x18 .\CortexM3\ARM_GCC_493\Debug\mpu6050.o
 .text.MPU6050_resetFIFO
                0x00000000       0x18 .\CortexM3\ARM_GCC_493\Debug\mpu6050.o
 .text.MPU6050_resetI2CMaster
                0x00000000       0x18 .\CortexM3\ARM_GCC_493\Debug\mpu6050.o
 .text.MPU6050_resetSensors
                0x00000000       0x18 .\CortexM3\ARM_GCC_493\Debug\mpu6050.o
 .text.MPU6050_reset
                0x00000000       0x18 .\CortexM3\ARM_GCC_493\Debug\mpu6050.o
 .text.MPU6050_getSleepEnabled
                0x00000000       0x24 .\CortexM3\ARM_GCC_493\Debug\mpu6050.o
 .text.MPU6050_getWakeCycleEnabled
                0x00000000       0x24 .\CortexM3\ARM_GCC_493\Debug\mpu6050.o
 .text.MPU6050_setWakeCycleEnabled
                0x00000000       0x18 .\CortexM3\ARM_GCC_493\Debug\mpu6050.o
 .text.MPU6050_getTempSensorEnabled
                0x00000000       0x24 .\CortexM3\ARM_GCC_493\Debug\mpu6050.o
 .text.MPU6050_setTempSensorEnabled
                0x00000000       0x18 .\CortexM3\ARM_GCC_493\Debug\mpu6050.o
 .text.MPU6050_getClockSource
                0x00000000       0x24 .\CortexM3\ARM_GCC_493\Debug\mpu6050.o
 .text.MPU6050_getWakeFrequency
                0x00000000       0x24 .\CortexM3\ARM_GCC_493\Debug\mpu6050.o
 .text.MPU6050_setWakeFrequency
                0x00000000       0x20 .\CortexM3\ARM_GCC_493\Debug\mpu6050.o
 .text.MPU6050_getStandbyXAccelEnabled
                0x00000000       0x24 .\CortexM3\ARM_GCC_493\Debug\mpu6050.o
 .text.MPU6050_setStandbyXAccelEnabled
                0x00000000       0x18 .\CortexM3\ARM_GCC_493\Debug\mpu6050.o
 .text.MPU6050_getStandbyYAccelEnabled
                0x00000000       0x24 .\CortexM3\ARM_GCC_493\Debug\mpu6050.o
 .text.MPU6050_setStandbyYAccelEnabled
                0x00000000       0x18 .\CortexM3\ARM_GCC_493\Debug\mpu6050.o
 .text.MPU6050_getStandbyZAccelEnabled
                0x00000000       0x24 .\CortexM3\ARM_GCC_493\Debug\mpu6050.o
 .text.MPU6050_setStandbyZAccelEnabled
                0x00000000       0x18 .\CortexM3\ARM_GCC_493\Debug\mpu6050.o
 .text.MPU6050_getStandbyXGyroEnabled
                0x00000000       0x24 .\CortexM3\ARM_GCC_493\Debug\mpu6050.o
 .text.MPU6050_setStandbyXGyroEnabled
                0x00000000       0x18 .\CortexM3\ARM_GCC_493\Debug\mpu6050.o
 .text.MPU6050_getStandbyYGyroEnabled
                0x00000000       0x24 .\CortexM3\ARM_GCC_493\Debug\mpu6050.o
 .text.MPU6050_setStandbyYGyroEnabled
                0x00000000       0x18 .\CortexM3\ARM_GCC_493\Debug\mpu6050.o
 .text.MPU6050_getStandbyZGyroEnabled
                0x00000000       0x24 .\CortexM3\ARM_GCC_493\Debug\mpu6050.o
 .text.MPU6050_setStandbyZGyroEnabled
                0x00000000       0x18 .\CortexM3\ARM_GCC_493\Debug\mpu6050.o
 .text.MPU6050_getFIFOCount
                0x00000000       0x24 .\CortexM3\ARM_GCC_493\Debug\mpu6050.o
 .text.MPU6050_getFIFOByte
                0x00000000       0x1c .\CortexM3\ARM_GCC_493\Debug\mpu6050.o
 .text.MPU6050_getFIFOBytes
                0x00000000       0x18 .\CortexM3\ARM_GCC_493\Debug\mpu6050.o
 .text.MPU6050_setFIFOByte
                0x00000000       0x14 .\CortexM3\ARM_GCC_493\Debug\mpu6050.o
 .text.MPU6050_getDeviceID
                0x00000000       0x24 .\CortexM3\ARM_GCC_493\Debug\mpu6050.o
 .text.MPU6050_testConnection
                0x00000000       0x10 .\CortexM3\ARM_GCC_493\Debug\mpu6050.o
 .text.MPU6050_setDeviceID
                0x00000000       0x20 .\CortexM3\ARM_GCC_493\Debug\mpu6050.o
 .text.MPU6050_getOTPBankValid
                0x00000000       0x20 .\CortexM3\ARM_GCC_493\Debug\mpu6050.o
 .text.MPU6050_setOTPBankValid
                0x00000000       0x18 .\CortexM3\ARM_GCC_493\Debug\mpu6050.o
 .text.MPU6050_getXGyroOffset
                0x00000000       0x28 .\CortexM3\ARM_GCC_493\Debug\mpu6050.o
 .text.MPU6050_setXGyroOffset
                0x00000000       0x24 .\CortexM3\ARM_GCC_493\Debug\mpu6050.o
 .text.MPU6050_getYGyroOffset
                0x00000000       0x28 .\CortexM3\ARM_GCC_493\Debug\mpu6050.o
 .text.MPU6050_setYGyroOffset
                0x00000000       0x24 .\CortexM3\ARM_GCC_493\Debug\mpu6050.o
 .text.MPU6050_getZGyroOffset
                0x00000000       0x28 .\CortexM3\ARM_GCC_493\Debug\mpu6050.o
 .text.MPU6050_setZGyroOffset
                0x00000000       0x24 .\CortexM3\ARM_GCC_493\Debug\mpu6050.o
 .text.MPU6050_getXFineGain
                0x00000000       0x20 .\CortexM3\ARM_GCC_493\Debug\mpu6050.o
 .text.MPU6050_setXFineGain
                0x00000000       0x14 .\CortexM3\ARM_GCC_493\Debug\mpu6050.o
 .text.MPU6050_getYFineGain
                0x00000000       0x20 .\CortexM3\ARM_GCC_493\Debug\mpu6050.o
 .text.MPU6050_setYFineGain
                0x00000000       0x14 .\CortexM3\ARM_GCC_493\Debug\mpu6050.o
 .text.MPU6050_getZFineGain
                0x00000000       0x20 .\CortexM3\ARM_GCC_493\Debug\mpu6050.o
 .text.MPU6050_setZFineGain
                0x00000000       0x14 .\CortexM3\ARM_GCC_493\Debug\mpu6050.o
 .text.MPU6050_getXAccelOffset
                0x00000000       0x28 .\CortexM3\ARM_GCC_493\Debug\mpu6050.o
 .text.MPU6050_setXAccelOffset
                0x00000000       0x14 .\CortexM3\ARM_GCC_493\Debug\mpu6050.o
 .text.MPU6050_getYAccelOffset
                0x00000000       0x28 .\CortexM3\ARM_GCC_493\Debug\mpu6050.o
 .text.MPU6050_setYAccelOffset
                0x00000000       0x14 .\CortexM3\ARM_GCC_493\Debug\mpu6050.o
 .text.MPU6050_getZAccelOffset
                0x00000000       0x28 .\CortexM3\ARM_GCC_493\Debug\mpu6050.o
 .text.MPU6050_setZAccelOffset
                0x00000000       0x14 .\CortexM3\ARM_GCC_493\Debug\mpu6050.o
 .text.MPU6050_getXGyroOffsetUser
                0x00000000       0x28 .\CortexM3\ARM_GCC_493\Debug\mpu6050.o
 .text.MPU6050_setXGyroOffsetUser
                0x00000000       0x14 .\CortexM3\ARM_GCC_493\Debug\mpu6050.o
 .text.MPU6050_getYGyroOffsetUser
                0x00000000       0x28 .\CortexM3\ARM_GCC_493\Debug\mpu6050.o
 .text.MPU6050_setYGyroOffsetUser
                0x00000000       0x14 .\CortexM3\ARM_GCC_493\Debug\mpu6050.o
 .text.MPU6050_getZGyroOffsetUser
                0x00000000       0x28 .\CortexM3\ARM_GCC_493\Debug\mpu6050.o
 .text.MPU6050_setZGyroOffsetUser
                0x00000000       0x14 .\CortexM3\ARM_GCC_493\Debug\mpu6050.o
 .text.MPU6050_getIntPLLReadyEnabled
                0x00000000       0x24 .\CortexM3\ARM_GCC_493\Debug\mpu6050.o
 .text.MPU6050_setIntPLLReadyEnabled
                0x00000000       0x18 .\CortexM3\ARM_GCC_493\Debug\mpu6050.o
 .text.MPU6050_getIntDMPEnabled
                0x00000000       0x24 .\CortexM3\ARM_GCC_493\Debug\mpu6050.o
 .text.MPU6050_setIntDMPEnabled
                0x00000000       0x18 .\CortexM3\ARM_GCC_493\Debug\mpu6050.o
 .text.MPU6050_getDMPInt5Status
                0x00000000       0x24 .\CortexM3\ARM_GCC_493\Debug\mpu6050.o
 .text.MPU6050_getDMPInt4Status
                0x00000000       0x24 .\CortexM3\ARM_GCC_493\Debug\mpu6050.o
 .text.MPU6050_getDMPInt3Status
                0x00000000       0x24 .\CortexM3\ARM_GCC_493\Debug\mpu6050.o
 .text.MPU6050_getDMPInt2Status
                0x00000000       0x24 .\CortexM3\ARM_GCC_493\Debug\mpu6050.o
 .text.MPU6050_getDMPInt1Status
                0x00000000       0x24 .\CortexM3\ARM_GCC_493\Debug\mpu6050.o
 .text.MPU6050_getDMPInt0Status
                0x00000000       0x24 .\CortexM3\ARM_GCC_493\Debug\mpu6050.o
 .text.MPU6050_getIntPLLReadyStatus
                0x00000000       0x24 .\CortexM3\ARM_GCC_493\Debug\mpu6050.o
 .text.MPU6050_getIntDMPStatus
                0x00000000       0x24 .\CortexM3\ARM_GCC_493\Debug\mpu6050.o
 .text.MPU6050_getDMPEnabled
                0x00000000       0x24 .\CortexM3\ARM_GCC_493\Debug\mpu6050.o
 .text.MPU6050_setDMPEnabled
                0x00000000       0x18 .\CortexM3\ARM_GCC_493\Debug\mpu6050.o
 .text.MPU6050_resetDMP
                0x00000000       0x18 .\CortexM3\ARM_GCC_493\Debug\mpu6050.o
 .text.MPU6050_setMemoryBank
                0x00000000       0x24 .\CortexM3\ARM_GCC_493\Debug\mpu6050.o
 .text.MPU6050_setMemoryStartAddress
                0x00000000       0x14 .\CortexM3\ARM_GCC_493\Debug\mpu6050.o
 .text.MPU6050_readMemoryByte
                0x00000000       0x1c .\CortexM3\ARM_GCC_493\Debug\mpu6050.o
 .text.MPU6050_writeMemoryByte
                0x00000000       0x14 .\CortexM3\ARM_GCC_493\Debug\mpu6050.o
 .text.MPU6050_readMemoryBlock
                0x00000000       0x80 .\CortexM3\ARM_GCC_493\Debug\mpu6050.o
 .text.MPU6050_getDMPConfig1
                0x00000000       0x1c .\CortexM3\ARM_GCC_493\Debug\mpu6050.o
 .text.MPU6050_setDMPConfig1
                0x00000000       0x14 .\CortexM3\ARM_GCC_493\Debug\mpu6050.o
 .text.MPU6050_getDMPConfig2
                0x00000000       0x1c .\CortexM3\ARM_GCC_493\Debug\mpu6050.o
 .text.MPU6050_setDMPConfig2
                0x00000000       0x14 .\CortexM3\ARM_GCC_493\Debug\mpu6050.o
 .text.MPU6050_setup_compass
                0x00000000       0x6c .\CortexM3\ARM_GCC_493\Debug\mpu6050.o
 .text          0x00000000        0x0 .\CortexM3\ARM_GCC_493\Debug\i2cFunctions.o
 .data          0x00000000        0x0 .\CortexM3\ARM_GCC_493\Debug\i2cFunctions.o
 .bss           0x00000000        0x1 .\CortexM3\ARM_GCC_493\Debug\i2cFunctions.o
 .text.I2CSplReadByte
                0x00000000       0x14 .\CortexM3\ARM_GCC_493\Debug\i2cFunctions.o
 .text.I2CReadBits
                0x00000000       0x24 .\CortexM3\ARM_GCC_493\Debug\i2cFunctions.o
 .text.I2CReadBit
                0x00000000       0x18 .\CortexM3\ARM_GCC_493\Debug\i2cFunctions.o
 .text          0x00000000        0x0 .\CortexM3\ARM_GCC_493\Debug\imu.o
 .data          0x00000000        0x0 .\CortexM3\ARM_GCC_493\Debug\imu.o
 .bss           0x00000000        0x0 .\CortexM3\ARM_GCC_493\Debug\imu.o
 .text          0x00000000        0x0 .\CortexM3\ARM_GCC_493\Debug\pid.o
 .data          0x00000000        0x0 .\CortexM3\ARM_GCC_493\Debug\pid.o
 .bss           0x00000000        0x0 .\CortexM3\ARM_GCC_493\Debug\pid.o
 .text.reset_pid_sum_error
                0x00000000        0x8 .\CortexM3\ARM_GCC_493\Debug\pid.o
 .text          0x00000000        0x0 .\CortexM3\ARM_GCC_493\Debug\servo.o
 .data          0x00000000        0x0 .\CortexM3\ARM_GCC_493\Debug\servo.o
 .bss           0x00000000        0x0 .\CortexM3\ARM_GCC_493\Debug\servo.o
 .text          0x00000000        0x0 .\CortexM3\ARM_GCC_493\Debug\cymetadata.o
 .data          0x00000000        0x0 .\CortexM3\ARM_GCC_493\Debug\cymetadata.o
 .bss           0x00000000        0x0 .\CortexM3\ARM_GCC_493\Debug\cymetadata.o
 .text          0x00000000        0x0 .\CortexM3\ARM_GCC_493\Debug\Cm3Start.o
 .data          0x00000000        0x4 .\CortexM3\ARM_GCC_493\Debug\Cm3Start.o
 .bss           0x00000000        0x0 .\CortexM3\ARM_GCC_493\Debug\Cm3Start.o
 .text._exit    0x00000000        0xc .\CortexM3\ARM_GCC_493\Debug\Cm3Start.o
 .text._sbrk    0x00000000       0x30 .\CortexM3\ARM_GCC_493\Debug\Cm3Start.o
 .text          0x00000000        0x0 .\CortexM3\ARM_GCC_493\Debug\Ball.a(cyfitter_cfg.o)
 .data          0x00000000        0x0 .\CortexM3\ARM_GCC_493\Debug\Ball.a(cyfitter_cfg.o)
 .bss           0x00000000        0x0 .\CortexM3\ARM_GCC_493\Debug\Ball.a(cyfitter_cfg.o)
 .text.SetAnalogRoutingPumps
                0x00000000       0x10 .\CortexM3\ARM_GCC_493\Debug\Ball.a(cyfitter_cfg.o)
 .data          0x00000000        0x0 .\CortexM3\ARM_GCC_493\Debug\Ball.a(CyBootAsmGnu.o)
 .bss           0x00000000        0x0 .\CortexM3\ARM_GCC_493\Debug\Ball.a(CyBootAsmGnu.o)
 .text          0x00000000        0x0 .\CortexM3\ARM_GCC_493\Debug\Ball.a(CyLib.o)
 .data          0x00000000       0x10 .\CortexM3\ARM_GCC_493\Debug\Ball.a(CyLib.o)
 .bss           0x00000000       0x1c .\CortexM3\ARM_GCC_493\Debug\Ball.a(CyLib.o)
 .text.CyUSB_PowerOnCheck
                0x00000000       0x48 .\CortexM3\ARM_GCC_493\Debug\Ball.a(CyLib.o)
 .text.CyBusClk_Internal_SetDivider
                0x00000000       0x48 .\CortexM3\ARM_GCC_493\Debug\Ball.a(CyLib.o)
 .text.CyPLL_OUT_Stop
                0x00000000       0x10 .\CortexM3\ARM_GCC_493\Debug\Ball.a(CyLib.o)
 .text.CyIMO_Stop
                0x00000000       0x1c .\CortexM3\ARM_GCC_493\Debug\Ball.a(CyLib.o)
 .text.CyIMO_EnableDoubler
                0x00000000       0x10 .\CortexM3\ARM_GCC_493\Debug\Ball.a(CyLib.o)
 .text.CyIMO_DisableDoubler
                0x00000000       0x10 .\CortexM3\ARM_GCC_493\Debug\Ball.a(CyLib.o)
 .text.CyMasterClk_SetSource
                0x00000000       0x18 .\CortexM3\ARM_GCC_493\Debug\Ball.a(CyLib.o)
 .text.CyMasterClk_SetDivider
                0x00000000        0xc .\CortexM3\ARM_GCC_493\Debug\Ball.a(CyLib.o)
 .text.CyBusClk_SetDivider
                0x00000000       0x70 .\CortexM3\ARM_GCC_493\Debug\Ball.a(CyLib.o)
 .text.CyUsbClk_SetSource
                0x00000000       0x18 .\CortexM3\ARM_GCC_493\Debug\Ball.a(CyLib.o)
 .text.CyILO_Start1K
                0x00000000       0x10 .\CortexM3\ARM_GCC_493\Debug\Ball.a(CyLib.o)
 .text.CyILO_Stop1K
                0x00000000       0x10 .\CortexM3\ARM_GCC_493\Debug\Ball.a(CyLib.o)
 .text.CyILO_Start100K
                0x00000000       0x10 .\CortexM3\ARM_GCC_493\Debug\Ball.a(CyLib.o)
 .text.CyILO_Stop100K
                0x00000000       0x10 .\CortexM3\ARM_GCC_493\Debug\Ball.a(CyLib.o)
 .text.CyPLL_OUT_Start
                0x00000000       0x78 .\CortexM3\ARM_GCC_493\Debug\Ball.a(CyLib.o)
 .text.CyIMO_Start
                0x00000000       0x60 .\CortexM3\ARM_GCC_493\Debug\Ball.a(CyLib.o)
 .text.CyILO_Enable33K
                0x00000000       0x10 .\CortexM3\ARM_GCC_493\Debug\Ball.a(CyLib.o)
 .text.CyILO_Disable33K
                0x00000000       0x10 .\CortexM3\ARM_GCC_493\Debug\Ball.a(CyLib.o)
 .text.CyILO_SetSource
                0x00000000       0x18 .\CortexM3\ARM_GCC_493\Debug\Ball.a(CyLib.o)
 .text.CyILO_SetPowerMode
                0x00000000       0x24 .\CortexM3\ARM_GCC_493\Debug\Ball.a(CyLib.o)
 .text.CyXTAL_32KHZ_Stop
                0x00000000       0x30 .\CortexM3\ARM_GCC_493\Debug\Ball.a(CyLib.o)
 .text.CyXTAL_32KHZ_ReadStatus
                0x00000000       0x10 .\CortexM3\ARM_GCC_493\Debug\Ball.a(CyLib.o)
 .text.CyXTAL_Start
                0x00000000       0xac .\CortexM3\ARM_GCC_493\Debug\Ball.a(CyLib.o)
 .text.CyXTAL_Stop
                0x00000000       0x10 .\CortexM3\ARM_GCC_493\Debug\Ball.a(CyLib.o)
 .text.CyXTAL_EnableErrStatus
                0x00000000       0x10 .\CortexM3\ARM_GCC_493\Debug\Ball.a(CyLib.o)
 .text.CyXTAL_DisableErrStatus
                0x00000000       0x10 .\CortexM3\ARM_GCC_493\Debug\Ball.a(CyLib.o)
 .text.CyXTAL_ReadStatus
                0x00000000       0x18 .\CortexM3\ARM_GCC_493\Debug\Ball.a(CyLib.o)
 .text.CyXTAL_EnableFaultRecovery
                0x00000000       0x10 .\CortexM3\ARM_GCC_493\Debug\Ball.a(CyLib.o)
 .text.CyXTAL_DisableFaultRecovery
                0x00000000       0x10 .\CortexM3\ARM_GCC_493\Debug\Ball.a(CyLib.o)
 .text.CyXTAL_SetStartup
                0x00000000       0x18 .\CortexM3\ARM_GCC_493\Debug\Ball.a(CyLib.o)
 .text.CyXTAL_SetFbVoltage
                0x00000000       0x18 .\CortexM3\ARM_GCC_493\Debug\Ball.a(CyLib.o)
 .text.CyXTAL_SetWdVoltage
                0x00000000       0x18 .\CortexM3\ARM_GCC_493\Debug\Ball.a(CyLib.o)
 .text.CyPLL_OUT_SetPQ
                0x00000000       0x60 .\CortexM3\ARM_GCC_493\Debug\Ball.a(CyLib.o)
 .text.CyPLL_OUT_SetSource
                0x00000000       0x34 .\CortexM3\ARM_GCC_493\Debug\Ball.a(CyLib.o)
 .text.CyIMO_SetTrimValue
                0x00000000       0xcc .\CortexM3\ARM_GCC_493\Debug\Ball.a(CyLib.o)
 .text.CyIMO_SetFreq
                0x00000000       0xf4 .\CortexM3\ARM_GCC_493\Debug\Ball.a(CyLib.o)
 .text.CyIMO_SetSource
                0x00000000       0x58 .\CortexM3\ARM_GCC_493\Debug\Ball.a(CyLib.o)
 .text.CySoftwareReset
                0x00000000       0x10 .\CortexM3\ARM_GCC_493\Debug\Ball.a(CyLib.o)
 .text.CyDelay  0x00000000       0x2c .\CortexM3\ARM_GCC_493\Debug\Ball.a(CyLib.o)
 .text.CyDelayUs
                0x00000000       0x14 .\CortexM3\ARM_GCC_493\Debug\Ball.a(CyLib.o)
 .text.CyXTAL_32KHZ_SetPowerMode
                0x00000000       0x84 .\CortexM3\ARM_GCC_493\Debug\Ball.a(CyLib.o)
 .text.CyXTAL_32KHZ_Start
                0x00000000       0x70 .\CortexM3\ARM_GCC_493\Debug\Ball.a(CyLib.o)
 .text.CyDelayFreq
                0x00000000       0x4c .\CortexM3\ARM_GCC_493\Debug\Ball.a(CyLib.o)
 .text.CyWdtStart
                0x00000000       0x40 .\CortexM3\ARM_GCC_493\Debug\Ball.a(CyLib.o)
 .text.CyWdtClear
                0x00000000        0xc .\CortexM3\ARM_GCC_493\Debug\Ball.a(CyLib.o)
 .text.CyVdStickyStatus
                0x00000000       0x2c .\CortexM3\ARM_GCC_493\Debug\Ball.a(CyLib.o)
 .text.CyVdLvDigitEnable
                0x00000000       0x84 .\CortexM3\ARM_GCC_493\Debug\Ball.a(CyLib.o)
 .text.CyVdLvAnalogEnable
                0x00000000       0x80 .\CortexM3\ARM_GCC_493\Debug\Ball.a(CyLib.o)
 .text.CyVdLvDigitDisable
                0x00000000       0x30 .\CortexM3\ARM_GCC_493\Debug\Ball.a(CyLib.o)
 .text.CyVdLvAnalogDisable
                0x00000000       0x28 .\CortexM3\ARM_GCC_493\Debug\Ball.a(CyLib.o)
 .text.CyVdHvAnalogEnable
                0x00000000       0x54 .\CortexM3\ARM_GCC_493\Debug\Ball.a(CyLib.o)
 .text.CyVdHvAnalogDisable
                0x00000000       0x20 .\CortexM3\ARM_GCC_493\Debug\Ball.a(CyLib.o)
 .text.CyVdRealTimeStatus
                0x00000000       0x1c .\CortexM3\ARM_GCC_493\Debug\Ball.a(CyLib.o)
 .text.CyDisableInts
                0x00000000       0x1c .\CortexM3\ARM_GCC_493\Debug\Ball.a(CyLib.o)
 .text.CyEnableInts
                0x00000000       0x18 .\CortexM3\ARM_GCC_493\Debug\Ball.a(CyLib.o)
 .text.CyFlushCache
                0x00000000       0x44 .\CortexM3\ARM_GCC_493\Debug\Ball.a(CyLib.o)
 .text.CyIntSetSysVector
                0x00000000       0x28 .\CortexM3\ARM_GCC_493\Debug\Ball.a(CyLib.o)
 .text.CyIntGetSysVector
                0x00000000       0x20 .\CortexM3\ARM_GCC_493\Debug\Ball.a(CyLib.o)
 .text.CyIntGetVector
                0x00000000       0x24 .\CortexM3\ARM_GCC_493\Debug\Ball.a(CyLib.o)
 .text.CyIntGetPriority
                0x00000000       0x20 .\CortexM3\ARM_GCC_493\Debug\Ball.a(CyLib.o)
 .text.CyIntGetState
                0x00000000       0x24 .\CortexM3\ARM_GCC_493\Debug\Ball.a(CyLib.o)
 .text.CySysTickStop
                0x00000000       0x10 .\CortexM3\ARM_GCC_493\Debug\Ball.a(CyLib.o)
 .text.CySysTickEnableInterrupt
                0x00000000       0x10 .\CortexM3\ARM_GCC_493\Debug\Ball.a(CyLib.o)
 .text.CySysTickEnable
                0x00000000       0x18 .\CortexM3\ARM_GCC_493\Debug\Ball.a(CyLib.o)
 .text.CySysTickDisableInterrupt
                0x00000000       0x10 .\CortexM3\ARM_GCC_493\Debug\Ball.a(CyLib.o)
 .text.CySysTickSetReload
                0x00000000       0x10 .\CortexM3\ARM_GCC_493\Debug\Ball.a(CyLib.o)
 .text.CySysTickGetReload
                0x00000000       0x10 .\CortexM3\ARM_GCC_493\Debug\Ball.a(CyLib.o)
 .text.CySysTickGetValue
                0x00000000       0x10 .\CortexM3\ARM_GCC_493\Debug\Ball.a(CyLib.o)
 .text.CySysTickSetClockSource
                0x00000000       0x20 .\CortexM3\ARM_GCC_493\Debug\Ball.a(CyLib.o)
 .text.CySysTickGetCountFlag
                0x00000000       0x10 .\CortexM3\ARM_GCC_493\Debug\Ball.a(CyLib.o)
 .text.CySysTickServiceCallbacks
                0x00000000       0x28 .\CortexM3\ARM_GCC_493\Debug\Ball.a(CyLib.o)
 .text.CySysTickClear
                0x00000000        0xc .\CortexM3\ARM_GCC_493\Debug\Ball.a(CyLib.o)
 .text.CySysTickInit
                0x00000000       0x58 .\CortexM3\ARM_GCC_493\Debug\Ball.a(CyLib.o)
 .text.CySysTickStart
                0x00000000       0x1c .\CortexM3\ARM_GCC_493\Debug\Ball.a(CyLib.o)
 .text.CySysTickSetCallback
                0x00000000       0x10 .\CortexM3\ARM_GCC_493\Debug\Ball.a(CyLib.o)
 .text.CySysTickGetCallback
                0x00000000       0x10 .\CortexM3\ARM_GCC_493\Debug\Ball.a(CyLib.o)
 .text.CyGetUniqueId
                0x00000000       0x70 .\CortexM3\ARM_GCC_493\Debug\Ball.a(CyLib.o)
 .text          0x00000000        0x0 .\CortexM3\ARM_GCC_493\Debug\Ball.a(cyPm.o)
 .data          0x00000000        0x0 .\CortexM3\ARM_GCC_493\Debug\Ball.a(cyPm.o)
 .bss           0x00000000       0x44 .\CortexM3\ARM_GCC_493\Debug\Ball.a(cyPm.o)
 .text.CyPmHibSlpSaveSet
                0x00000000      0x1dc .\CortexM3\ARM_GCC_493\Debug\Ball.a(cyPm.o)
 .text.CyPmHibSlpRestore
                0x00000000       0xd4 .\CortexM3\ARM_GCC_493\Debug\Ball.a(cyPm.o)
 .text.CyPmHviLviSaveDisable
                0x00000000       0xa0 .\CortexM3\ARM_GCC_493\Debug\Ball.a(cyPm.o)
 .text.CyPmHibSaveSet
                0x00000000       0x8c .\CortexM3\ARM_GCC_493\Debug\Ball.a(cyPm.o)
 .text.CyPmHviLviRestore
                0x00000000       0x48 .\CortexM3\ARM_GCC_493\Debug\Ball.a(cyPm.o)
 .text.CyPmHibRestore
                0x00000000       0x58 .\CortexM3\ARM_GCC_493\Debug\Ball.a(cyPm.o)
 .text.CyPmSaveClocks
                0x00000000      0x218 .\CortexM3\ARM_GCC_493\Debug\Ball.a(cyPm.o)
 .text.CyPmRestoreClocks
                0x00000000      0x24c .\CortexM3\ARM_GCC_493\Debug\Ball.a(cyPm.o)
 .text.CyPmAltAct
                0x00000000       0x6c .\CortexM3\ARM_GCC_493\Debug\Ball.a(cyPm.o)
 .text.CyPmSleep
                0x00000000       0xf4 .\CortexM3\ARM_GCC_493\Debug\Ball.a(cyPm.o)
 .text.CyPmHibernateEx
                0x00000000       0xf4 .\CortexM3\ARM_GCC_493\Debug\Ball.a(cyPm.o)
 .text.CyPmHibernate
                0x00000000        0xc .\CortexM3\ARM_GCC_493\Debug\Ball.a(cyPm.o)
 .text.CyPmReadStatus
                0x00000000       0x30 .\CortexM3\ARM_GCC_493\Debug\Ball.a(cyPm.o)
 .text.CyPmCtwSetInterval
                0x00000000       0x5c .\CortexM3\ARM_GCC_493\Debug\Ball.a(cyPm.o)
 .text.CyPmOppsSet
                0x00000000       0x2c .\CortexM3\ARM_GCC_493\Debug\Ball.a(cyPm.o)
 .text.CyPmFtwSetInterval
                0x00000000       0x5c .\CortexM3\ARM_GCC_493\Debug\Ball.a(cyPm.o)
 .rodata        0x00000000       0x10 .\CortexM3\ARM_GCC_493\Debug\Ball.a(cyPm.o)
 .text          0x00000000        0x0 .\CortexM3\ARM_GCC_493\Debug\Ball.a(RC_Ch2_Timer.o)
 .data          0x00000000        0x0 .\CortexM3\ARM_GCC_493\Debug\Ball.a(RC_Ch2_Timer.o)
 .text.RC_Ch2_Timer_SoftwareCapture
                0x00000000        0xc .\CortexM3\ARM_GCC_493\Debug\Ball.a(RC_Ch2_Timer.o)
 .text.RC_Ch2_Timer_ReadControlRegister
                0x00000000        0xc .\CortexM3\ARM_GCC_493\Debug\Ball.a(RC_Ch2_Timer.o)
 .text.RC_Ch2_Timer_WriteControlRegister
                0x00000000        0xc .\CortexM3\ARM_GCC_493\Debug\Ball.a(RC_Ch2_Timer.o)
 .text.RC_Ch2_Timer_ReadPeriod
                0x00000000       0x10 .\CortexM3\ARM_GCC_493\Debug\Ball.a(RC_Ch2_Timer.o)
 .text.RC_Ch2_Timer_ReadCounter
                0x00000000       0x18 .\CortexM3\ARM_GCC_493\Debug\Ball.a(RC_Ch2_Timer.o)
 .text.RC_Ch2_Timer_DisableTrigger
                0x00000000       0x10 .\CortexM3\ARM_GCC_493\Debug\Ball.a(RC_Ch2_Timer.o)
 .text          0x00000000        0x0 .\CortexM3\ARM_GCC_493\Debug\Ball.a(RC_Ch2_Timer_Interrupt.o)
 .data          0x00000000        0x0 .\CortexM3\ARM_GCC_493\Debug\Ball.a(RC_Ch2_Timer_Interrupt.o)
 .bss           0x00000000        0x0 .\CortexM3\ARM_GCC_493\Debug\Ball.a(RC_Ch2_Timer_Interrupt.o)
 .text.RC_Ch2_Timer_Interrupt_Interrupt
                0x00000000        0x4 .\CortexM3\ARM_GCC_493\Debug\Ball.a(RC_Ch2_Timer_Interrupt.o)
 .text.RC_Ch2_Timer_Interrupt_GetVector
                0x00000000        0xc .\CortexM3\ARM_GCC_493\Debug\Ball.a(RC_Ch2_Timer_Interrupt.o)
 .text.RC_Ch2_Timer_Interrupt_GetPriority
                0x00000000        0xc .\CortexM3\ARM_GCC_493\Debug\Ball.a(RC_Ch2_Timer_Interrupt.o)
 .text.RC_Ch2_Timer_Interrupt_GetState
                0x00000000       0x18 .\CortexM3\ARM_GCC_493\Debug\Ball.a(RC_Ch2_Timer_Interrupt.o)
 .text.RC_Ch2_Timer_Interrupt_Start
                0x00000000       0x1c .\CortexM3\ARM_GCC_493\Debug\Ball.a(RC_Ch2_Timer_Interrupt.o)
 .text.RC_Ch2_Timer_Interrupt_Stop
                0x00000000       0x14 .\CortexM3\ARM_GCC_493\Debug\Ball.a(RC_Ch2_Timer_Interrupt.o)
 .text.RC_Ch2_Timer_Interrupt_SetPending
                0x00000000        0xc .\CortexM3\ARM_GCC_493\Debug\Ball.a(RC_Ch2_Timer_Interrupt.o)
 .text.RC_Ch2_Timer_Interrupt_ClearPending
                0x00000000        0xc .\CortexM3\ARM_GCC_493\Debug\Ball.a(RC_Ch2_Timer_Interrupt.o)
 .text          0x00000000        0x0 .\CortexM3\ARM_GCC_493\Debug\Ball.a(Clock_Millis_Interrupt.o)
 .data          0x00000000        0x0 .\CortexM3\ARM_GCC_493\Debug\Ball.a(Clock_Millis_Interrupt.o)
 .bss           0x00000000        0x0 .\CortexM3\ARM_GCC_493\Debug\Ball.a(Clock_Millis_Interrupt.o)
 .text.Clock_Millis_Interrupt_Interrupt
                0x00000000        0x4 .\CortexM3\ARM_GCC_493\Debug\Ball.a(Clock_Millis_Interrupt.o)
 .text.Clock_Millis_Interrupt_GetVector
                0x00000000        0xc .\CortexM3\ARM_GCC_493\Debug\Ball.a(Clock_Millis_Interrupt.o)
 .text.Clock_Millis_Interrupt_GetPriority
                0x00000000        0xc .\CortexM3\ARM_GCC_493\Debug\Ball.a(Clock_Millis_Interrupt.o)
 .text.Clock_Millis_Interrupt_GetState
                0x00000000       0x10 .\CortexM3\ARM_GCC_493\Debug\Ball.a(Clock_Millis_Interrupt.o)
 .text.Clock_Millis_Interrupt_Start
                0x00000000       0x1c .\CortexM3\ARM_GCC_493\Debug\Ball.a(Clock_Millis_Interrupt.o)
 .text.Clock_Millis_Interrupt_Stop
                0x00000000       0x14 .\CortexM3\ARM_GCC_493\Debug\Ball.a(Clock_Millis_Interrupt.o)
 .text.Clock_Millis_Interrupt_SetPending
                0x00000000        0xc .\CortexM3\ARM_GCC_493\Debug\Ball.a(Clock_Millis_Interrupt.o)
 .text.Clock_Millis_Interrupt_ClearPending
                0x00000000        0xc .\CortexM3\ARM_GCC_493\Debug\Ball.a(Clock_Millis_Interrupt.o)
 .text          0x00000000        0x0 .\CortexM3\ARM_GCC_493\Debug\Ball.a(RC_Ch1.o)
 .data          0x00000000        0x0 .\CortexM3\ARM_GCC_493\Debug\Ball.a(RC_Ch1.o)
 .bss           0x00000000        0x0 .\CortexM3\ARM_GCC_493\Debug\Ball.a(RC_Ch1.o)
 .text.RC_Ch1_Write
                0x00000000       0x18 .\CortexM3\ARM_GCC_493\Debug\Ball.a(RC_Ch1.o)
 .text.RC_Ch1_SetDriveMode
                0x00000000       0x18 .\CortexM3\ARM_GCC_493\Debug\Ball.a(RC_Ch1.o)
 .text.RC_Ch1_ReadDataReg
                0x00000000       0x10 .\CortexM3\ARM_GCC_493\Debug\Ball.a(RC_Ch1.o)
 .text          0x00000000        0x0 .\CortexM3\ARM_GCC_493\Debug\Ball.a(RC_Ch1_Timer.o)
 .data          0x00000000        0x0 .\CortexM3\ARM_GCC_493\Debug\Ball.a(RC_Ch1_Timer.o)
 .text.RC_Ch1_Timer_SoftwareCapture
                0x00000000        0xc .\CortexM3\ARM_GCC_493\Debug\Ball.a(RC_Ch1_Timer.o)
 .text.RC_Ch1_Timer_ReadControlRegister
                0x00000000        0xc .\CortexM3\ARM_GCC_493\Debug\Ball.a(RC_Ch1_Timer.o)
 .text.RC_Ch1_Timer_WriteControlRegister
                0x00000000        0xc .\CortexM3\ARM_GCC_493\Debug\Ball.a(RC_Ch1_Timer.o)
 .text.RC_Ch1_Timer_ReadPeriod
                0x00000000       0x10 .\CortexM3\ARM_GCC_493\Debug\Ball.a(RC_Ch1_Timer.o)
 .text.RC_Ch1_Timer_ReadCounter
                0x00000000       0x18 .\CortexM3\ARM_GCC_493\Debug\Ball.a(RC_Ch1_Timer.o)
 .text.RC_Ch1_Timer_DisableTrigger
                0x00000000       0x10 .\CortexM3\ARM_GCC_493\Debug\Ball.a(RC_Ch1_Timer.o)
 .text          0x00000000        0x0 .\CortexM3\ARM_GCC_493\Debug\Ball.a(RC_Ch2.o)
 .data          0x00000000        0x0 .\CortexM3\ARM_GCC_493\Debug\Ball.a(RC_Ch2.o)
 .bss           0x00000000        0x0 .\CortexM3\ARM_GCC_493\Debug\Ball.a(RC_Ch2.o)
 .text.RC_Ch2_Write
                0x00000000       0x18 .\CortexM3\ARM_GCC_493\Debug\Ball.a(RC_Ch2.o)
 .text.RC_Ch2_SetDriveMode
                0x00000000       0x18 .\CortexM3\ARM_GCC_493\Debug\Ball.a(RC_Ch2.o)
 .text.RC_Ch2_ReadDataReg
                0x00000000       0x10 .\CortexM3\ARM_GCC_493\Debug\Ball.a(RC_Ch2.o)
 .text          0x00000000        0x0 .\CortexM3\ARM_GCC_493\Debug\Ball.a(RC_Ch1_Timer_Interrupt.o)
 .data          0x00000000        0x0 .\CortexM3\ARM_GCC_493\Debug\Ball.a(RC_Ch1_Timer_Interrupt.o)
 .bss           0x00000000        0x0 .\CortexM3\ARM_GCC_493\Debug\Ball.a(RC_Ch1_Timer_Interrupt.o)
 .text.RC_Ch1_Timer_Interrupt_Interrupt
                0x00000000        0x4 .\CortexM3\ARM_GCC_493\Debug\Ball.a(RC_Ch1_Timer_Interrupt.o)
 .text.RC_Ch1_Timer_Interrupt_GetVector
                0x00000000        0xc .\CortexM3\ARM_GCC_493\Debug\Ball.a(RC_Ch1_Timer_Interrupt.o)
 .text.RC_Ch1_Timer_Interrupt_GetPriority
                0x00000000        0xc .\CortexM3\ARM_GCC_493\Debug\Ball.a(RC_Ch1_Timer_Interrupt.o)
 .text.RC_Ch1_Timer_Interrupt_GetState
                0x00000000       0x18 .\CortexM3\ARM_GCC_493\Debug\Ball.a(RC_Ch1_Timer_Interrupt.o)
 .text.RC_Ch1_Timer_Interrupt_Start
                0x00000000       0x1c .\CortexM3\ARM_GCC_493\Debug\Ball.a(RC_Ch1_Timer_Interrupt.o)
 .text.RC_Ch1_Timer_Interrupt_Stop
                0x00000000       0x14 .\CortexM3\ARM_GCC_493\Debug\Ball.a(RC_Ch1_Timer_Interrupt.o)
 .text.RC_Ch1_Timer_Interrupt_SetPending
                0x00000000        0xc .\CortexM3\ARM_GCC_493\Debug\Ball.a(RC_Ch1_Timer_Interrupt.o)
 .text.RC_Ch1_Timer_Interrupt_ClearPending
                0x00000000        0xc .\CortexM3\ARM_GCC_493\Debug\Ball.a(RC_Ch1_Timer_Interrupt.o)
 .text          0x00000000        0x0 .\CortexM3\ARM_GCC_493\Debug\Ball.a(RC_Ch4_Timer.o)
 .data          0x00000000        0x0 .\CortexM3\ARM_GCC_493\Debug\Ball.a(RC_Ch4_Timer.o)
 .text.RC_Ch4_Timer_SoftwareCapture
                0x00000000        0xc .\CortexM3\ARM_GCC_493\Debug\Ball.a(RC_Ch4_Timer.o)
 .text.RC_Ch4_Timer_ReadControlRegister
                0x00000000        0xc .\CortexM3\ARM_GCC_493\Debug\Ball.a(RC_Ch4_Timer.o)
 .text.RC_Ch4_Timer_WriteControlRegister
                0x00000000        0xc .\CortexM3\ARM_GCC_493\Debug\Ball.a(RC_Ch4_Timer.o)
 .text.RC_Ch4_Timer_ReadPeriod
                0x00000000       0x10 .\CortexM3\ARM_GCC_493\Debug\Ball.a(RC_Ch4_Timer.o)
 .text.RC_Ch4_Timer_ReadCounter
                0x00000000       0x18 .\CortexM3\ARM_GCC_493\Debug\Ball.a(RC_Ch4_Timer.o)
 .text.RC_Ch4_Timer_DisableTrigger
                0x00000000       0x10 .\CortexM3\ARM_GCC_493\Debug\Ball.a(RC_Ch4_Timer.o)
 .text          0x00000000        0x0 .\CortexM3\ARM_GCC_493\Debug\Ball.a(RC_Ch4.o)
 .data          0x00000000        0x0 .\CortexM3\ARM_GCC_493\Debug\Ball.a(RC_Ch4.o)
 .bss           0x00000000        0x0 .\CortexM3\ARM_GCC_493\Debug\Ball.a(RC_Ch4.o)
 .text.RC_Ch4_Write
                0x00000000       0x18 .\CortexM3\ARM_GCC_493\Debug\Ball.a(RC_Ch4.o)
 .text.RC_Ch4_SetDriveMode
                0x00000000       0x18 .\CortexM3\ARM_GCC_493\Debug\Ball.a(RC_Ch4.o)
 .text.RC_Ch4_ReadDataReg
                0x00000000       0x10 .\CortexM3\ARM_GCC_493\Debug\Ball.a(RC_Ch4.o)
 .text          0x00000000        0x0 .\CortexM3\ARM_GCC_493\Debug\Ball.a(RC_Ch4_Timer_Interrupt.o)
 .data          0x00000000        0x0 .\CortexM3\ARM_GCC_493\Debug\Ball.a(RC_Ch4_Timer_Interrupt.o)
 .bss           0x00000000        0x0 .\CortexM3\ARM_GCC_493\Debug\Ball.a(RC_Ch4_Timer_Interrupt.o)
 .text.RC_Ch4_Timer_Interrupt_Interrupt
                0x00000000        0x4 .\CortexM3\ARM_GCC_493\Debug\Ball.a(RC_Ch4_Timer_Interrupt.o)
 .text.RC_Ch4_Timer_Interrupt_GetVector
                0x00000000        0xc .\CortexM3\ARM_GCC_493\Debug\Ball.a(RC_Ch4_Timer_Interrupt.o)
 .text.RC_Ch4_Timer_Interrupt_GetPriority
                0x00000000        0xc .\CortexM3\ARM_GCC_493\Debug\Ball.a(RC_Ch4_Timer_Interrupt.o)
 .text.RC_Ch4_Timer_Interrupt_GetState
                0x00000000       0x18 .\CortexM3\ARM_GCC_493\Debug\Ball.a(RC_Ch4_Timer_Interrupt.o)
 .text.RC_Ch4_Timer_Interrupt_Start
                0x00000000       0x1c .\CortexM3\ARM_GCC_493\Debug\Ball.a(RC_Ch4_Timer_Interrupt.o)
 .text.RC_Ch4_Timer_Interrupt_Stop
                0x00000000       0x14 .\CortexM3\ARM_GCC_493\Debug\Ball.a(RC_Ch4_Timer_Interrupt.o)
 .text.RC_Ch4_Timer_Interrupt_SetPending
                0x00000000        0xc .\CortexM3\ARM_GCC_493\Debug\Ball.a(RC_Ch4_Timer_Interrupt.o)
 .text.RC_Ch4_Timer_Interrupt_ClearPending
                0x00000000        0xc .\CortexM3\ARM_GCC_493\Debug\Ball.a(RC_Ch4_Timer_Interrupt.o)
 .text          0x00000000        0x0 .\CortexM3\ARM_GCC_493\Debug\Ball.a(RC_Ch3_Timer.o)
 .data          0x00000000        0x0 .\CortexM3\ARM_GCC_493\Debug\Ball.a(RC_Ch3_Timer.o)
 .text.RC_Ch3_Timer_SoftwareCapture
                0x00000000        0xc .\CortexM3\ARM_GCC_493\Debug\Ball.a(RC_Ch3_Timer.o)
 .text.RC_Ch3_Timer_ReadControlRegister
                0x00000000        0xc .\CortexM3\ARM_GCC_493\Debug\Ball.a(RC_Ch3_Timer.o)
 .text.RC_Ch3_Timer_WriteControlRegister
                0x00000000        0xc .\CortexM3\ARM_GCC_493\Debug\Ball.a(RC_Ch3_Timer.o)
 .text.RC_Ch3_Timer_ReadPeriod
                0x00000000       0x10 .\CortexM3\ARM_GCC_493\Debug\Ball.a(RC_Ch3_Timer.o)
 .text.RC_Ch3_Timer_ReadCounter
                0x00000000       0x18 .\CortexM3\ARM_GCC_493\Debug\Ball.a(RC_Ch3_Timer.o)
 .text.RC_Ch3_Timer_DisableTrigger
                0x00000000       0x10 .\CortexM3\ARM_GCC_493\Debug\Ball.a(RC_Ch3_Timer.o)
 .text          0x00000000        0x0 .\CortexM3\ARM_GCC_493\Debug\Ball.a(RC_Ch3.o)
 .data          0x00000000        0x0 .\CortexM3\ARM_GCC_493\Debug\Ball.a(RC_Ch3.o)
 .bss           0x00000000        0x0 .\CortexM3\ARM_GCC_493\Debug\Ball.a(RC_Ch3.o)
 .text.RC_Ch3_Write
                0x00000000       0x18 .\CortexM3\ARM_GCC_493\Debug\Ball.a(RC_Ch3.o)
 .text.RC_Ch3_SetDriveMode
                0x00000000       0x18 .\CortexM3\ARM_GCC_493\Debug\Ball.a(RC_Ch3.o)
 .text.RC_Ch3_ReadDataReg
                0x00000000       0x10 .\CortexM3\ARM_GCC_493\Debug\Ball.a(RC_Ch3.o)
 .text          0x00000000        0x0 .\CortexM3\ARM_GCC_493\Debug\Ball.a(RC_Ch3_Timer_Interrupt.o)
 .data          0x00000000        0x0 .\CortexM3\ARM_GCC_493\Debug\Ball.a(RC_Ch3_Timer_Interrupt.o)
 .bss           0x00000000        0x0 .\CortexM3\ARM_GCC_493\Debug\Ball.a(RC_Ch3_Timer_Interrupt.o)
 .text.RC_Ch3_Timer_Interrupt_Interrupt
                0x00000000        0x4 .\CortexM3\ARM_GCC_493\Debug\Ball.a(RC_Ch3_Timer_Interrupt.o)
 .text.RC_Ch3_Timer_Interrupt_GetVector
                0x00000000        0xc .\CortexM3\ARM_GCC_493\Debug\Ball.a(RC_Ch3_Timer_Interrupt.o)
 .text.RC_Ch3_Timer_Interrupt_GetPriority
                0x00000000        0xc .\CortexM3\ARM_GCC_493\Debug\Ball.a(RC_Ch3_Timer_Interrupt.o)
 .text.RC_Ch3_Timer_Interrupt_GetState
                0x00000000       0x18 .\CortexM3\ARM_GCC_493\Debug\Ball.a(RC_Ch3_Timer_Interrupt.o)
 .text.RC_Ch3_Timer_Interrupt_Start
                0x00000000       0x1c .\CortexM3\ARM_GCC_493\Debug\Ball.a(RC_Ch3_Timer_Interrupt.o)
 .text.RC_Ch3_Timer_Interrupt_Stop
                0x00000000       0x14 .\CortexM3\ARM_GCC_493\Debug\Ball.a(RC_Ch3_Timer_Interrupt.o)
 .text.RC_Ch3_Timer_Interrupt_SetPending
                0x00000000        0xc .\CortexM3\ARM_GCC_493\Debug\Ball.a(RC_Ch3_Timer_Interrupt.o)
 .text.RC_Ch3_Timer_Interrupt_ClearPending
                0x00000000        0xc .\CortexM3\ARM_GCC_493\Debug\Ball.a(RC_Ch3_Timer_Interrupt.o)
 .text          0x00000000        0x0 .\CortexM3\ARM_GCC_493\Debug\Ball.a(Drive_DC_Motor_PWM.o)
 .data          0x00000000        0x0 .\CortexM3\ARM_GCC_493\Debug\Ball.a(Drive_DC_Motor_PWM.o)
 .text.Drive_DC_Motor_PWM_Stop
                0x00000000       0x10 .\CortexM3\ARM_GCC_493\Debug\Ball.a(Drive_DC_Motor_PWM.o)
 .text.Drive_DC_Motor_PWM_ReadCounter
                0x00000000       0x14 .\CortexM3\ARM_GCC_493\Debug\Ball.a(Drive_DC_Motor_PWM.o)
 .text.Drive_DC_Motor_PWM_ReadControlRegister
                0x00000000        0xc .\CortexM3\ARM_GCC_493\Debug\Ball.a(Drive_DC_Motor_PWM.o)
 .text.Drive_DC_Motor_PWM_WriteControlRegister
                0x00000000        0xc .\CortexM3\ARM_GCC_493\Debug\Ball.a(Drive_DC_Motor_PWM.o)
 .text.Drive_DC_Motor_PWM_ReadCompare1
                0x00000000        0xc .\CortexM3\ARM_GCC_493\Debug\Ball.a(Drive_DC_Motor_PWM.o)
 .text.Drive_DC_Motor_PWM_ReadCompare2
                0x00000000        0xc .\CortexM3\ARM_GCC_493\Debug\Ball.a(Drive_DC_Motor_PWM.o)
 .text.Drive_DC_Motor_PWM_ReadPeriod
                0x00000000        0xc .\CortexM3\ARM_GCC_493\Debug\Ball.a(Drive_DC_Motor_PWM.o)
 .text          0x00000000        0x0 .\CortexM3\ARM_GCC_493\Debug\Ball.a(Pendulum_DC_Motor_PWM.o)
 .data          0x00000000        0x0 .\CortexM3\ARM_GCC_493\Debug\Ball.a(Pendulum_DC_Motor_PWM.o)
 .text.Pendulum_DC_Motor_PWM_Stop
                0x00000000       0x10 .\CortexM3\ARM_GCC_493\Debug\Ball.a(Pendulum_DC_Motor_PWM.o)
 .text.Pendulum_DC_Motor_PWM_ReadCounter
                0x00000000       0x14 .\CortexM3\ARM_GCC_493\Debug\Ball.a(Pendulum_DC_Motor_PWM.o)
 .text.Pendulum_DC_Motor_PWM_ReadControlRegister
                0x00000000        0xc .\CortexM3\ARM_GCC_493\Debug\Ball.a(Pendulum_DC_Motor_PWM.o)
 .text.Pendulum_DC_Motor_PWM_WriteControlRegister
                0x00000000        0xc .\CortexM3\ARM_GCC_493\Debug\Ball.a(Pendulum_DC_Motor_PWM.o)
 .text.Pendulum_DC_Motor_PWM_ReadCompare1
                0x00000000        0xc .\CortexM3\ARM_GCC_493\Debug\Ball.a(Pendulum_DC_Motor_PWM.o)
 .text.Pendulum_DC_Motor_PWM_ReadCompare2
                0x00000000        0xc .\CortexM3\ARM_GCC_493\Debug\Ball.a(Pendulum_DC_Motor_PWM.o)
 .text.Pendulum_DC_Motor_PWM_ReadPeriod
                0x00000000        0xc .\CortexM3\ARM_GCC_493\Debug\Ball.a(Pendulum_DC_Motor_PWM.o)
 .text          0x00000000        0x0 .\CortexM3\ARM_GCC_493\Debug\Ball.a(Flywheel_DC_Motor_PWM.o)
 .data          0x00000000        0x0 .\CortexM3\ARM_GCC_493\Debug\Ball.a(Flywheel_DC_Motor_PWM.o)
 .text.Flywheel_DC_Motor_PWM_Stop
                0x00000000       0x10 .\CortexM3\ARM_GCC_493\Debug\Ball.a(Flywheel_DC_Motor_PWM.o)
 .text.Flywheel_DC_Motor_PWM_ReadCounter
                0x00000000       0x14 .\CortexM3\ARM_GCC_493\Debug\Ball.a(Flywheel_DC_Motor_PWM.o)
 .text.Flywheel_DC_Motor_PWM_ReadControlRegister
                0x00000000        0xc .\CortexM3\ARM_GCC_493\Debug\Ball.a(Flywheel_DC_Motor_PWM.o)
 .text.Flywheel_DC_Motor_PWM_WriteControlRegister
                0x00000000        0xc .\CortexM3\ARM_GCC_493\Debug\Ball.a(Flywheel_DC_Motor_PWM.o)
 .text.Flywheel_DC_Motor_PWM_ReadCompare1
                0x00000000        0xc .\CortexM3\ARM_GCC_493\Debug\Ball.a(Flywheel_DC_Motor_PWM.o)
 .text.Flywheel_DC_Motor_PWM_ReadCompare2
                0x00000000        0xc .\CortexM3\ARM_GCC_493\Debug\Ball.a(Flywheel_DC_Motor_PWM.o)
 .text.Flywheel_DC_Motor_PWM_ReadPeriod
                0x00000000        0xc .\CortexM3\ARM_GCC_493\Debug\Ball.a(Flywheel_DC_Motor_PWM.o)
 .text          0x00000000        0x0 .\CortexM3\ARM_GCC_493\Debug\Ball.a(MPU6050_I2C.o)
 .data          0x00000000        0x0 .\CortexM3\ARM_GCC_493\Debug\Ball.a(MPU6050_I2C.o)
 .text.MPU6050_I2C_Stop
                0x00000000       0xb4 .\CortexM3\ARM_GCC_493\Debug\Ball.a(MPU6050_I2C.o)
 .text          0x00000000        0x0 .\CortexM3\ARM_GCC_493\Debug\Ball.a(MPU6050_I2C_INT.o)
 .data          0x00000000        0x0 .\CortexM3\ARM_GCC_493\Debug\Ball.a(MPU6050_I2C_INT.o)
 .bss           0x00000000        0x0 .\CortexM3\ARM_GCC_493\Debug\Ball.a(MPU6050_I2C_INT.o)
 .text          0x00000000        0x0 .\CortexM3\ARM_GCC_493\Debug\Ball.a(MPU6050_I2C_PM.o)
 .data          0x00000000        0x8 .\CortexM3\ARM_GCC_493\Debug\Ball.a(MPU6050_I2C_PM.o)
 .bss           0x00000000        0x0 .\CortexM3\ARM_GCC_493\Debug\Ball.a(MPU6050_I2C_PM.o)
 .text.MPU6050_I2C_SaveConfig
                0x00000000       0x3c .\CortexM3\ARM_GCC_493\Debug\Ball.a(MPU6050_I2C_PM.o)
 .text.MPU6050_I2C_Sleep
                0x00000000       0x24 .\CortexM3\ARM_GCC_493\Debug\Ball.a(MPU6050_I2C_PM.o)
 .text.MPU6050_I2C_RestoreConfig
                0x00000000       0x60 .\CortexM3\ARM_GCC_493\Debug\Ball.a(MPU6050_I2C_PM.o)
 .text.MPU6050_I2C_Wakeup
                0x00000000       0x24 .\CortexM3\ARM_GCC_493\Debug\Ball.a(MPU6050_I2C_PM.o)
 .text          0x00000000        0x0 .\CortexM3\ARM_GCC_493\Debug\Ball.a(MPU6050_I2C_MASTER.o)
 .data          0x00000000        0x0 .\CortexM3\ARM_GCC_493\Debug\Ball.a(MPU6050_I2C_MASTER.o)
 .bss           0x00000000        0x0 .\CortexM3\ARM_GCC_493\Debug\Ball.a(MPU6050_I2C_MASTER.o)
 .text.MPU6050_I2C_MasterWriteBuf
                0x00000000       0xcc .\CortexM3\ARM_GCC_493\Debug\Ball.a(MPU6050_I2C_MASTER.o)
 .text.MPU6050_I2C_MasterReadBuf
                0x00000000       0xd0 .\CortexM3\ARM_GCC_493\Debug\Ball.a(MPU6050_I2C_MASTER.o)
 .text.MPU6050_I2C_MasterStatus
                0x00000000       0x38 .\CortexM3\ARM_GCC_493\Debug\Ball.a(MPU6050_I2C_MASTER.o)
 .text.MPU6050_I2C_MasterClearStatus
                0x00000000       0x24 .\CortexM3\ARM_GCC_493\Debug\Ball.a(MPU6050_I2C_MASTER.o)
 .text.MPU6050_I2C_MasterGetReadBufSize
                0x00000000        0xc .\CortexM3\ARM_GCC_493\Debug\Ball.a(MPU6050_I2C_MASTER.o)
 .text.MPU6050_I2C_MasterGetWriteBufSize
                0x00000000        0xc .\CortexM3\ARM_GCC_493\Debug\Ball.a(MPU6050_I2C_MASTER.o)
 .text.MPU6050_I2C_MasterClearReadBuf
                0x00000000       0x30 .\CortexM3\ARM_GCC_493\Debug\Ball.a(MPU6050_I2C_MASTER.o)
 .text.MPU6050_I2C_MasterClearWriteBuf
                0x00000000       0x30 .\CortexM3\ARM_GCC_493\Debug\Ball.a(MPU6050_I2C_MASTER.o)
 .text          0x00000000        0x0 .\CortexM3\ARM_GCC_493\Debug\Ball.a(Drive_DC_Motor_Quad_Dec.o)
 .data          0x00000000        0x0 .\CortexM3\ARM_GCC_493\Debug\Ball.a(Drive_DC_Motor_Quad_Dec.o)
 .text.Drive_DC_Motor_Quad_Dec_Init
                0x00000000        0x4 .\CortexM3\ARM_GCC_493\Debug\Ball.a(Drive_DC_Motor_Quad_Dec.o)
 .text.Drive_DC_Motor_Quad_Dec_Stop
                0x00000000       0x20 .\CortexM3\ARM_GCC_493\Debug\Ball.a(Drive_DC_Motor_Quad_Dec.o)
 .text.Drive_DC_Motor_Quad_Dec_GetInterruptMask
                0x00000000       0x10 .\CortexM3\ARM_GCC_493\Debug\Ball.a(Drive_DC_Motor_Quad_Dec.o)
 .text          0x00000000        0x0 .\CortexM3\ARM_GCC_493\Debug\Ball.a(Drive_DC_Motor_Quad_Dec_Cnt16.o)
 .data          0x00000000        0x0 .\CortexM3\ARM_GCC_493\Debug\Ball.a(Drive_DC_Motor_Quad_Dec_Cnt16.o)
 .text.Drive_DC_Motor_Quad_Dec_Cnt16_Stop
                0x00000000       0x10 .\CortexM3\ARM_GCC_493\Debug\Ball.a(Drive_DC_Motor_Quad_Dec_Cnt16.o)
 .text.Drive_DC_Motor_Quad_Dec_Cnt16_ReadControlRegister
                0x00000000        0xc .\CortexM3\ARM_GCC_493\Debug\Ball.a(Drive_DC_Motor_Quad_Dec_Cnt16.o)
 .text.Drive_DC_Motor_Quad_Dec_Cnt16_WriteControlRegister
                0x00000000        0xc .\CortexM3\ARM_GCC_493\Debug\Ball.a(Drive_DC_Motor_Quad_Dec_Cnt16.o)
 .text.Drive_DC_Motor_Quad_Dec_Cnt16_ReadPeriod
                0x00000000        0xc .\CortexM3\ARM_GCC_493\Debug\Ball.a(Drive_DC_Motor_Quad_Dec_Cnt16.o)
 .text.Drive_DC_Motor_Quad_Dec_Cnt16_ReadCompare
                0x00000000        0xc .\CortexM3\ARM_GCC_493\Debug\Ball.a(Drive_DC_Motor_Quad_Dec_Cnt16.o)
 .text          0x00000000        0x0 .\CortexM3\ARM_GCC_493\Debug\Ball.a(Pendulum_DC_Motor_Quad_Dec.o)
 .data          0x00000000        0x0 .\CortexM3\ARM_GCC_493\Debug\Ball.a(Pendulum_DC_Motor_Quad_Dec.o)
 .text.Pendulum_DC_Motor_Quad_Dec_Init
                0x00000000        0x4 .\CortexM3\ARM_GCC_493\Debug\Ball.a(Pendulum_DC_Motor_Quad_Dec.o)
 .text.Pendulum_DC_Motor_Quad_Dec_Stop
                0x00000000       0x20 .\CortexM3\ARM_GCC_493\Debug\Ball.a(Pendulum_DC_Motor_Quad_Dec.o)
 .text.Pendulum_DC_Motor_Quad_Dec_GetInterruptMask
                0x00000000       0x10 .\CortexM3\ARM_GCC_493\Debug\Ball.a(Pendulum_DC_Motor_Quad_Dec.o)
 .text          0x00000000        0x0 .\CortexM3\ARM_GCC_493\Debug\Ball.a(Pendulum_DC_Motor_Quad_Dec_Cnt16.o)
 .data          0x00000000        0x0 .\CortexM3\ARM_GCC_493\Debug\Ball.a(Pendulum_DC_Motor_Quad_Dec_Cnt16.o)
 .text.Pendulum_DC_Motor_Quad_Dec_Cnt16_Stop
                0x00000000       0x10 .\CortexM3\ARM_GCC_493\Debug\Ball.a(Pendulum_DC_Motor_Quad_Dec_Cnt16.o)
 .text.Pendulum_DC_Motor_Quad_Dec_Cnt16_ReadControlRegister
                0x00000000        0xc .\CortexM3\ARM_GCC_493\Debug\Ball.a(Pendulum_DC_Motor_Quad_Dec_Cnt16.o)
 .text.Pendulum_DC_Motor_Quad_Dec_Cnt16_WriteControlRegister
                0x00000000        0xc .\CortexM3\ARM_GCC_493\Debug\Ball.a(Pendulum_DC_Motor_Quad_Dec_Cnt16.o)
 .text.Pendulum_DC_Motor_Quad_Dec_Cnt16_ReadPeriod
                0x00000000        0xc .\CortexM3\ARM_GCC_493\Debug\Ball.a(Pendulum_DC_Motor_Quad_Dec_Cnt16.o)
 .text.Pendulum_DC_Motor_Quad_Dec_Cnt16_ReadCompare
                0x00000000        0xc .\CortexM3\ARM_GCC_493\Debug\Ball.a(Pendulum_DC_Motor_Quad_Dec_Cnt16.o)
 .text          0x00000000        0x0 .\CortexM3\ARM_GCC_493\Debug\Ball.a(Status_LED.o)
 .data          0x00000000        0x0 .\CortexM3\ARM_GCC_493\Debug\Ball.a(Status_LED.o)
 .bss           0x00000000        0x0 .\CortexM3\ARM_GCC_493\Debug\Ball.a(Status_LED.o)
 .text.Status_LED_SetDriveMode
                0x00000000       0x18 .\CortexM3\ARM_GCC_493\Debug\Ball.a(Status_LED.o)
 .text.Status_LED_Read
                0x00000000       0x10 .\CortexM3\ARM_GCC_493\Debug\Ball.a(Status_LED.o)
 .text.Status_LED_ReadDataReg
                0x00000000       0x10 .\CortexM3\ARM_GCC_493\Debug\Ball.a(Status_LED.o)
 .text          0x00000000        0x0 .\CortexM3\ARM_GCC_493\Debug\Ball.a(Head_Servo_PWM.o)
 .data          0x00000000        0x0 .\CortexM3\ARM_GCC_493\Debug\Ball.a(Head_Servo_PWM.o)
 .text.Head_Servo_PWM_Stop
                0x00000000       0x10 .\CortexM3\ARM_GCC_493\Debug\Ball.a(Head_Servo_PWM.o)
 .text.Head_Servo_PWM_ReadCounter
                0x00000000       0x14 .\CortexM3\ARM_GCC_493\Debug\Ball.a(Head_Servo_PWM.o)
 .text.Head_Servo_PWM_ReadControlRegister
                0x00000000        0xc .\CortexM3\ARM_GCC_493\Debug\Ball.a(Head_Servo_PWM.o)
 .text.Head_Servo_PWM_WriteControlRegister
                0x00000000        0xc .\CortexM3\ARM_GCC_493\Debug\Ball.a(Head_Servo_PWM.o)
 .text.Head_Servo_PWM_ReadCompare
                0x00000000        0xc .\CortexM3\ARM_GCC_493\Debug\Ball.a(Head_Servo_PWM.o)
 .text.Head_Servo_PWM_ReadPeriod
                0x00000000        0xc .\CortexM3\ARM_GCC_493\Debug\Ball.a(Head_Servo_PWM.o)
 .text          0x00000000        0x0 .\CortexM3\ARM_GCC_493\Debug\Ball.a(CyFlash.o)
 .data          0x00000000        0x0 .\CortexM3\ARM_GCC_493\Debug\Ball.a(CyFlash.o)
 .bss           0x00000000        0x4 .\CortexM3\ARM_GCC_493\Debug\Ball.a(CyFlash.o)
 .text.CyFlashGetSpcAlgorithm
                0x00000000       0x4c .\CortexM3\ARM_GCC_493\Debug\Ball.a(CyFlash.o)
 .text.CySetTempInt
                0x00000000       0x60 .\CortexM3\ARM_GCC_493\Debug\Ball.a(CyFlash.o)
 .text.CyFlash_Start
                0x00000000       0x54 .\CortexM3\ARM_GCC_493\Debug\Ball.a(CyFlash.o)
 .text.CyFlash_Stop
                0x00000000       0x24 .\CortexM3\ARM_GCC_493\Debug\Ball.a(CyFlash.o)
 .text.CySetTemp
                0x00000000       0x14 .\CortexM3\ARM_GCC_493\Debug\Ball.a(CyFlash.o)
 .text.CySetFlashEEBuffer
                0x00000000       0x28 .\CortexM3\ARM_GCC_493\Debug\Ball.a(CyFlash.o)
 .text.CyWriteRowFull
                0x00000000       0xf8 .\CortexM3\ARM_GCC_493\Debug\Ball.a(CyFlash.o)
 .text.CyWriteRowData
                0x00000000       0x14 .\CortexM3\ARM_GCC_493\Debug\Ball.a(CyFlash.o)
 .text.CyFlash_SetWaitCycles
                0x00000000       0x7c .\CortexM3\ARM_GCC_493\Debug\Ball.a(CyFlash.o)
 .text.CyEEPROM_Start
                0x00000000       0x54 .\CortexM3\ARM_GCC_493\Debug\Ball.a(CyFlash.o)
 .text.CyEEPROM_Stop
                0x00000000       0x24 .\CortexM3\ARM_GCC_493\Debug\Ball.a(CyFlash.o)
 .text.CyEEPROM_ReadReserve
                0x00000000       0x1c .\CortexM3\ARM_GCC_493\Debug\Ball.a(CyFlash.o)
 .text.CyEEPROM_ReadRelease
                0x00000000       0x10 .\CortexM3\ARM_GCC_493\Debug\Ball.a(CyFlash.o)
 COMMON         0x00000000        0x2 .\CortexM3\ARM_GCC_493\Debug\Ball.a(CyFlash.o)
 .text          0x00000000        0x0 .\CortexM3\ARM_GCC_493\Debug\Ball.a(CySpc.o)
 .data          0x00000000        0x0 .\CortexM3\ARM_GCC_493\Debug\Ball.a(CySpc.o)
 .bss           0x00000000        0x8 .\CortexM3\ARM_GCC_493\Debug\Ball.a(CySpc.o)
 .text.CySpcStart
                0x00000000       0x24 .\CortexM3\ARM_GCC_493\Debug\Ball.a(CySpc.o)
 .text.CySpcStop
                0x00000000       0x24 .\CortexM3\ARM_GCC_493\Debug\Ball.a(CySpc.o)
 .text.CySpcReadData
                0x00000000       0x34 .\CortexM3\ARM_GCC_493\Debug\Ball.a(CySpc.o)
 .text.CySpcLoadMultiByte
                0x00000000       0x78 .\CortexM3\ARM_GCC_493\Debug\Ball.a(CySpc.o)
 .text.CySpcLoadRow
                0x00000000       0x54 .\CortexM3\ARM_GCC_493\Debug\Ball.a(CySpc.o)
 .text.CySpcLoadRowFull
                0x00000000       0x80 .\CortexM3\ARM_GCC_493\Debug\Ball.a(CySpc.o)
 .text.CySpcWriteRow
                0x00000000       0x4c .\CortexM3\ARM_GCC_493\Debug\Ball.a(CySpc.o)
 .text.CySpcEraseSector
                0x00000000       0x3c .\CortexM3\ARM_GCC_493\Debug\Ball.a(CySpc.o)
 .text.CySpcGetTemp
                0x00000000       0x3c .\CortexM3\ARM_GCC_493\Debug\Ball.a(CySpc.o)
 .text.CySpcLock
                0x00000000       0x4c .\CortexM3\ARM_GCC_493\Debug\Ball.a(CySpc.o)
 .text.CySpcUnlock
                0x00000000       0x38 .\CortexM3\ARM_GCC_493\Debug\Ball.a(CySpc.o)
 .text.CySpcGetAlgorithm
                0x00000000       0x28 .\CortexM3\ARM_GCC_493\Debug\Ball.a(CySpc.o)
 .text          0x00000000        0x0 .\CortexM3\ARM_GCC_493\Debug\Ball.a(cyutils.o)
 .data          0x00000000        0x0 .\CortexM3\ARM_GCC_493\Debug\Ball.a(cyutils.o)
 .bss           0x00000000        0x0 .\CortexM3\ARM_GCC_493\Debug\Ball.a(cyutils.o)
 .text          0x00000000        0x0 c:/program files (x86)/cypress/psoc creator/3.3/psoc creator/import/gnu/arm/4.9.3/bin/../lib/gcc/arm-none-eabi/4.9.3/../../../../arm-none-eabi/lib/armv7-m\libm.a(lib_a-w_atan2.o)
 .data          0x00000000        0x0 c:/program files (x86)/cypress/psoc creator/3.3/psoc creator/import/gnu/arm/4.9.3/bin/../lib/gcc/arm-none-eabi/4.9.3/../../../../arm-none-eabi/lib/armv7-m\libm.a(lib_a-w_atan2.o)
 .bss           0x00000000        0x0 c:/program files (x86)/cypress/psoc creator/3.3/psoc creator/import/gnu/arm/4.9.3/bin/../lib/gcc/arm-none-eabi/4.9.3/../../../../arm-none-eabi/lib/armv7-m\libm.a(lib_a-w_atan2.o)
 .text          0x00000000        0x0 c:/program files (x86)/cypress/psoc creator/3.3/psoc creator/import/gnu/arm/4.9.3/bin/../lib/gcc/arm-none-eabi/4.9.3/../../../../arm-none-eabi/lib/armv7-m\libm.a(lib_a-e_atan2.o)
 .data          0x00000000        0x0 c:/program files (x86)/cypress/psoc creator/3.3/psoc creator/import/gnu/arm/4.9.3/bin/../lib/gcc/arm-none-eabi/4.9.3/../../../../arm-none-eabi/lib/armv7-m\libm.a(lib_a-e_atan2.o)
 .bss           0x00000000        0x0 c:/program files (x86)/cypress/psoc creator/3.3/psoc creator/import/gnu/arm/4.9.3/bin/../lib/gcc/arm-none-eabi/4.9.3/../../../../arm-none-eabi/lib/armv7-m\libm.a(lib_a-e_atan2.o)
 .text          0x00000000        0x0 c:/program files (x86)/cypress/psoc creator/3.3/psoc creator/import/gnu/arm/4.9.3/bin/../lib/gcc/arm-none-eabi/4.9.3/../../../../arm-none-eabi/lib/armv7-m\libm.a(lib_a-s_atan.o)
 .data          0x00000000        0x0 c:/program files (x86)/cypress/psoc creator/3.3/psoc creator/import/gnu/arm/4.9.3/bin/../lib/gcc/arm-none-eabi/4.9.3/../../../../arm-none-eabi/lib/armv7-m\libm.a(lib_a-s_atan.o)
 .bss           0x00000000        0x0 c:/program files (x86)/cypress/psoc creator/3.3/psoc creator/import/gnu/arm/4.9.3/bin/../lib/gcc/arm-none-eabi/4.9.3/../../../../arm-none-eabi/lib/armv7-m\libm.a(lib_a-s_atan.o)
 .text          0x00000000        0x0 c:/program files (x86)/cypress/psoc creator/3.3/psoc creator/import/gnu/arm/4.9.3/bin/../lib/gcc/arm-none-eabi/4.9.3/../../../../arm-none-eabi/lib/armv7-m\libm.a(lib_a-s_fabs.o)
 .data          0x00000000        0x0 c:/program files (x86)/cypress/psoc creator/3.3/psoc creator/import/gnu/arm/4.9.3/bin/../lib/gcc/arm-none-eabi/4.9.3/../../../../arm-none-eabi/lib/armv7-m\libm.a(lib_a-s_fabs.o)
 .bss           0x00000000        0x0 c:/program files (x86)/cypress/psoc creator/3.3/psoc creator/import/gnu/arm/4.9.3/bin/../lib/gcc/arm-none-eabi/4.9.3/../../../../arm-none-eabi/lib/armv7-m\libm.a(lib_a-s_fabs.o)
 .data          0x00000000        0x0 c:/program files (x86)/cypress/psoc creator/3.3/psoc creator/import/gnu/arm/4.9.3/bin/../lib/gcc/arm-none-eabi/4.9.3/armv7-m\libgcc.a(_arm_addsubdf3.o)
 .bss           0x00000000        0x0 c:/program files (x86)/cypress/psoc creator/3.3/psoc creator/import/gnu/arm/4.9.3/bin/../lib/gcc/arm-none-eabi/4.9.3/armv7-m\libgcc.a(_arm_addsubdf3.o)
 .data          0x00000000        0x0 c:/program files (x86)/cypress/psoc creator/3.3/psoc creator/import/gnu/arm/4.9.3/bin/../lib/gcc/arm-none-eabi/4.9.3/armv7-m\libgcc.a(_arm_muldivdf3.o)
 .bss           0x00000000        0x0 c:/program files (x86)/cypress/psoc creator/3.3/psoc creator/import/gnu/arm/4.9.3/bin/../lib/gcc/arm-none-eabi/4.9.3/armv7-m\libgcc.a(_arm_muldivdf3.o)
 .data          0x00000000        0x0 c:/program files (x86)/cypress/psoc creator/3.3/psoc creator/import/gnu/arm/4.9.3/bin/../lib/gcc/arm-none-eabi/4.9.3/armv7-m\libgcc.a(_arm_cmpdf2.o)
 .bss           0x00000000        0x0 c:/program files (x86)/cypress/psoc creator/3.3/psoc creator/import/gnu/arm/4.9.3/bin/../lib/gcc/arm-none-eabi/4.9.3/armv7-m\libgcc.a(_arm_cmpdf2.o)
 .data          0x00000000        0x0 c:/program files (x86)/cypress/psoc creator/3.3/psoc creator/import/gnu/arm/4.9.3/bin/../lib/gcc/arm-none-eabi/4.9.3/armv7-m\libgcc.a(_arm_fixdfsi.o)
 .bss           0x00000000        0x0 c:/program files (x86)/cypress/psoc creator/3.3/psoc creator/import/gnu/arm/4.9.3/bin/../lib/gcc/arm-none-eabi/4.9.3/armv7-m\libgcc.a(_arm_fixdfsi.o)
 .data          0x00000000        0x0 c:/program files (x86)/cypress/psoc creator/3.3/psoc creator/import/gnu/arm/4.9.3/bin/../lib/gcc/arm-none-eabi/4.9.3/armv7-m\libgcc.a(_arm_truncdfsf2.o)
 .bss           0x00000000        0x0 c:/program files (x86)/cypress/psoc creator/3.3/psoc creator/import/gnu/arm/4.9.3/bin/../lib/gcc/arm-none-eabi/4.9.3/armv7-m\libgcc.a(_arm_truncdfsf2.o)
 .data          0x00000000        0x0 c:/program files (x86)/cypress/psoc creator/3.3/psoc creator/import/gnu/arm/4.9.3/bin/../lib/gcc/arm-none-eabi/4.9.3/armv7-m\libgcc.a(_arm_addsubsf3.o)
 .bss           0x00000000        0x0 c:/program files (x86)/cypress/psoc creator/3.3/psoc creator/import/gnu/arm/4.9.3/bin/../lib/gcc/arm-none-eabi/4.9.3/armv7-m\libgcc.a(_arm_addsubsf3.o)
 .data          0x00000000        0x0 c:/program files (x86)/cypress/psoc creator/3.3/psoc creator/import/gnu/arm/4.9.3/bin/../lib/gcc/arm-none-eabi/4.9.3/armv7-m\libgcc.a(_arm_muldivsf3.o)
 .bss           0x00000000        0x0 c:/program files (x86)/cypress/psoc creator/3.3/psoc creator/import/gnu/arm/4.9.3/bin/../lib/gcc/arm-none-eabi/4.9.3/armv7-m\libgcc.a(_arm_muldivsf3.o)
 .data          0x00000000        0x0 c:/program files (x86)/cypress/psoc creator/3.3/psoc creator/import/gnu/arm/4.9.3/bin/../lib/gcc/arm-none-eabi/4.9.3/armv7-m\libgcc.a(_arm_cmpsf2.o)
 .bss           0x00000000        0x0 c:/program files (x86)/cypress/psoc creator/3.3/psoc creator/import/gnu/arm/4.9.3/bin/../lib/gcc/arm-none-eabi/4.9.3/armv7-m\libgcc.a(_arm_cmpsf2.o)
 .data          0x00000000        0x0 c:/program files (x86)/cypress/psoc creator/3.3/psoc creator/import/gnu/arm/4.9.3/bin/../lib/gcc/arm-none-eabi/4.9.3/armv7-m\libgcc.a(_arm_fixsfsi.o)
 .bss           0x00000000        0x0 c:/program files (x86)/cypress/psoc creator/3.3/psoc creator/import/gnu/arm/4.9.3/bin/../lib/gcc/arm-none-eabi/4.9.3/armv7-m\libgcc.a(_arm_fixsfsi.o)
 .text          0x00000000        0x0 c:/program files (x86)/cypress/psoc creator/3.3/psoc creator/import/gnu/arm/4.9.3/bin/../lib/gcc/arm-none-eabi/4.9.3/../../../../arm-none-eabi/lib/armv7-m\libg_nano.a(lib_a-errno.o)
 .data          0x00000000        0x0 c:/program files (x86)/cypress/psoc creator/3.3/psoc creator/import/gnu/arm/4.9.3/bin/../lib/gcc/arm-none-eabi/4.9.3/../../../../arm-none-eabi/lib/armv7-m\libg_nano.a(lib_a-errno.o)
 .bss           0x00000000        0x0 c:/program files (x86)/cypress/psoc creator/3.3/psoc creator/import/gnu/arm/4.9.3/bin/../lib/gcc/arm-none-eabi/4.9.3/../../../../arm-none-eabi/lib/armv7-m\libg_nano.a(lib_a-errno.o)
 .text.__errno  0x00000000        0xc c:/program files (x86)/cypress/psoc creator/3.3/psoc creator/import/gnu/arm/4.9.3/bin/../lib/gcc/arm-none-eabi/4.9.3/../../../../arm-none-eabi/lib/armv7-m\libg_nano.a(lib_a-errno.o)
 .text          0x00000000        0x0 c:/program files (x86)/cypress/psoc creator/3.3/psoc creator/import/gnu/arm/4.9.3/bin/../lib/gcc/arm-none-eabi/4.9.3/../../../../arm-none-eabi/lib/armv7-m\libg_nano.a(lib_a-exit.o)
 .data          0x00000000        0x0 c:/program files (x86)/cypress/psoc creator/3.3/psoc creator/import/gnu/arm/4.9.3/bin/../lib/gcc/arm-none-eabi/4.9.3/../../../../arm-none-eabi/lib/armv7-m\libg_nano.a(lib_a-exit.o)
 .bss           0x00000000        0x0 c:/program files (x86)/cypress/psoc creator/3.3/psoc creator/import/gnu/arm/4.9.3/bin/../lib/gcc/arm-none-eabi/4.9.3/../../../../arm-none-eabi/lib/armv7-m\libg_nano.a(lib_a-exit.o)
 .text.exit     0x00000000       0x28 c:/program files (x86)/cypress/psoc creator/3.3/psoc creator/import/gnu/arm/4.9.3/bin/../lib/gcc/arm-none-eabi/4.9.3/../../../../arm-none-eabi/lib/armv7-m\libg_nano.a(lib_a-exit.o)
 .text          0x00000000        0x0 c:/program files (x86)/cypress/psoc creator/3.3/psoc creator/import/gnu/arm/4.9.3/bin/../lib/gcc/arm-none-eabi/4.9.3/../../../../arm-none-eabi/lib/armv7-m\libg_nano.a(lib_a-impure.o)
 .data          0x00000000        0x0 c:/program files (x86)/cypress/psoc creator/3.3/psoc creator/import/gnu/arm/4.9.3/bin/../lib/gcc/arm-none-eabi/4.9.3/../../../../arm-none-eabi/lib/armv7-m\libg_nano.a(lib_a-impure.o)
 .bss           0x00000000        0x0 c:/program files (x86)/cypress/psoc creator/3.3/psoc creator/import/gnu/arm/4.9.3/bin/../lib/gcc/arm-none-eabi/4.9.3/../../../../arm-none-eabi/lib/armv7-m\libg_nano.a(lib_a-impure.o)
 .data.impure_data
                0x00000000       0x60 c:/program files (x86)/cypress/psoc creator/3.3/psoc creator/import/gnu/arm/4.9.3/bin/../lib/gcc/arm-none-eabi/4.9.3/../../../../arm-none-eabi/lib/armv7-m\libg_nano.a(lib_a-impure.o)
 .data._impure_ptr
                0x00000000        0x4 c:/program files (x86)/cypress/psoc creator/3.3/psoc creator/import/gnu/arm/4.9.3/bin/../lib/gcc/arm-none-eabi/4.9.3/../../../../arm-none-eabi/lib/armv7-m\libg_nano.a(lib_a-impure.o)
 .rodata.str1.1
                0x00000000        0x2 c:/program files (x86)/cypress/psoc creator/3.3/psoc creator/import/gnu/arm/4.9.3/bin/../lib/gcc/arm-none-eabi/4.9.3/../../../../arm-none-eabi/lib/armv7-m\libg_nano.a(lib_a-impure.o)
 .rodata._global_impure_ptr
                0x00000000        0x4 c:/program files (x86)/cypress/psoc creator/3.3/psoc creator/import/gnu/arm/4.9.3/bin/../lib/gcc/arm-none-eabi/4.9.3/../../../../arm-none-eabi/lib/armv7-m\libg_nano.a(lib_a-impure.o)
 .text          0x00000000        0x0 c:/program files (x86)/cypress/psoc creator/3.3/psoc creator/import/gnu/arm/4.9.3/bin/../lib/gcc/arm-none-eabi/4.9.3/../../../../arm-none-eabi/lib/armv7-m\libg_nano.a(lib_a-init.o)
 .data          0x00000000        0x0 c:/program files (x86)/cypress/psoc creator/3.3/psoc creator/import/gnu/arm/4.9.3/bin/../lib/gcc/arm-none-eabi/4.9.3/../../../../arm-none-eabi/lib/armv7-m\libg_nano.a(lib_a-init.o)
 .bss           0x00000000        0x0 c:/program files (x86)/cypress/psoc creator/3.3/psoc creator/import/gnu/arm/4.9.3/bin/../lib/gcc/arm-none-eabi/4.9.3/../../../../arm-none-eabi/lib/armv7-m\libg_nano.a(lib_a-init.o)
 .text          0x00000000        0x0 c:/program files (x86)/cypress/psoc creator/3.3/psoc creator/import/gnu/arm/4.9.3/bin/../lib/gcc/arm-none-eabi/4.9.3/../../../../arm-none-eabi/lib/armv7-m\libg_nano.a(lib_a-memcpy.o)
 .data          0x00000000        0x0 c:/program files (x86)/cypress/psoc creator/3.3/psoc creator/import/gnu/arm/4.9.3/bin/../lib/gcc/arm-none-eabi/4.9.3/../../../../arm-none-eabi/lib/armv7-m\libg_nano.a(lib_a-memcpy.o)
 .bss           0x00000000        0x0 c:/program files (x86)/cypress/psoc creator/3.3/psoc creator/import/gnu/arm/4.9.3/bin/../lib/gcc/arm-none-eabi/4.9.3/../../../../arm-none-eabi/lib/armv7-m\libg_nano.a(lib_a-memcpy.o)
 .text          0x00000000        0x0 c:/program files (x86)/cypress/psoc creator/3.3/psoc creator/import/gnu/arm/4.9.3/bin/../lib/gcc/arm-none-eabi/4.9.3/../../../../arm-none-eabi/lib/armv7-m\libg_nano.a(lib_a-memset.o)
 .data          0x00000000        0x0 c:/program files (x86)/cypress/psoc creator/3.3/psoc creator/import/gnu/arm/4.9.3/bin/../lib/gcc/arm-none-eabi/4.9.3/../../../../arm-none-eabi/lib/armv7-m\libg_nano.a(lib_a-memset.o)
 .bss           0x00000000        0x0 c:/program files (x86)/cypress/psoc creator/3.3/psoc creator/import/gnu/arm/4.9.3/bin/../lib/gcc/arm-none-eabi/4.9.3/../../../../arm-none-eabi/lib/armv7-m\libg_nano.a(lib_a-memset.o)
 .text          0x00000000        0x0 c:/program files (x86)/cypress/psoc creator/3.3/psoc creator/import/gnu/arm/4.9.3/bin/../lib/gcc/arm-none-eabi/4.9.3/armv7-m/crtend.o
 .data          0x00000000        0x0 c:/program files (x86)/cypress/psoc creator/3.3/psoc creator/import/gnu/arm/4.9.3/bin/../lib/gcc/arm-none-eabi/4.9.3/armv7-m/crtend.o
 .bss           0x00000000        0x0 c:/program files (x86)/cypress/psoc creator/3.3/psoc creator/import/gnu/arm/4.9.3/bin/../lib/gcc/arm-none-eabi/4.9.3/armv7-m/crtend.o
 .text          0x00000000        0x0 c:/program files (x86)/cypress/psoc creator/3.3/psoc creator/import/gnu/arm/4.9.3/bin/../lib/gcc/arm-none-eabi/4.9.3/armv7-m/crtn.o
 .data          0x00000000        0x0 c:/program files (x86)/cypress/psoc creator/3.3/psoc creator/import/gnu/arm/4.9.3/bin/../lib/gcc/arm-none-eabi/4.9.3/armv7-m/crtn.o
 .bss           0x00000000        0x0 c:/program files (x86)/cypress/psoc creator/3.3/psoc creator/import/gnu/arm/4.9.3/bin/../lib/gcc/arm-none-eabi/4.9.3/armv7-m/crtn.o

Memory Configuration

Name             Origin             Length             Attributes
rom              0x00000000         0x00040000         xr
ram              0x1fff8000         0x00010000         xrw
*default*        0x00000000         0xffffffff

Linker script and memory map

LOAD c:/program files (x86)/cypress/psoc creator/3.3/psoc creator/import/gnu/arm/4.9.3/bin/../lib/gcc/arm-none-eabi/4.9.3/armv7-m/crti.o
LOAD c:/program files (x86)/cypress/psoc creator/3.3/psoc creator/import/gnu/arm/4.9.3/bin/../lib/gcc/arm-none-eabi/4.9.3/armv7-m/crtbegin.o
LOAD c:/program files (x86)/cypress/psoc creator/3.3/psoc creator/import/gnu/arm/4.9.3/bin/../lib/gcc/arm-none-eabi/4.9.3/../../../../arm-none-eabi/lib/armv7-m/crt0.o
START GROUP
LOAD .\CortexM3\ARM_GCC_493\Debug\main.o
LOAD .\CortexM3\ARM_GCC_493\Debug\milliseconds.o
LOAD .\CortexM3\ARM_GCC_493\Debug\rc_ch.o
LOAD .\CortexM3\ARM_GCC_493\Debug\dc_motor.o
LOAD .\CortexM3\ARM_GCC_493\Debug\mpu6050.o
LOAD .\CortexM3\ARM_GCC_493\Debug\i2cFunctions.o
LOAD .\CortexM3\ARM_GCC_493\Debug\imu.o
LOAD .\CortexM3\ARM_GCC_493\Debug\pid.o
LOAD .\CortexM3\ARM_GCC_493\Debug\servo.o
LOAD .\CortexM3\ARM_GCC_493\Debug\cymetadata.o
LOAD .\CortexM3\ARM_GCC_493\Debug\Cm3Start.o
LOAD .\CortexM3\ARM_GCC_493\Debug\Ball.a
LOAD C:\Program Files (x86)\Cypress\PSoC Creator\3.3\PSoC Creator\psoc\content\cycomponentlibrary\CyComponentLibrary.cylib\CortexM3\ARM_GCC_493\Debug\CyComponentLibrary.a
LOAD c:/program files (x86)/cypress/psoc creator/3.3/psoc creator/import/gnu/arm/4.9.3/bin/../lib/gcc/arm-none-eabi/4.9.3/../../../../arm-none-eabi/lib/armv7-m\libm.a
END GROUP
START GROUP
LOAD c:/program files (x86)/cypress/psoc creator/3.3/psoc creator/import/gnu/arm/4.9.3/bin/../lib/gcc/arm-none-eabi/4.9.3/armv7-m\libgcc.a
LOAD c:/program files (x86)/cypress/psoc creator/3.3/psoc creator/import/gnu/arm/4.9.3/bin/../lib/gcc/arm-none-eabi/4.9.3/../../../../arm-none-eabi/lib/armv7-m\libg_nano.a
LOAD c:/program files (x86)/cypress/psoc creator/3.3/psoc creator/import/gnu/arm/4.9.3/bin/../lib/gcc/arm-none-eabi/4.9.3/../../../../arm-none-eabi/lib/armv7-m\libc_nano.a
END GROUP
START GROUP
LOAD c:/program files (x86)/cypress/psoc creator/3.3/psoc creator/import/gnu/arm/4.9.3/bin/../lib/gcc/arm-none-eabi/4.9.3/armv7-m\libgcc.a
LOAD c:/program files (x86)/cypress/psoc creator/3.3/psoc creator/import/gnu/arm/4.9.3/bin/../lib/gcc/arm-none-eabi/4.9.3/../../../../arm-none-eabi/lib/armv7-m\libc_nano.a
END GROUP
LOAD c:/program files (x86)/cypress/psoc creator/3.3/psoc creator/import/gnu/arm/4.9.3/bin/../lib/gcc/arm-none-eabi/4.9.3/armv7-m/crtend.o
LOAD c:/program files (x86)/cypress/psoc creator/3.3/psoc creator/import/gnu/arm/4.9.3/bin/../lib/gcc/arm-none-eabi/4.9.3/armv7-m/crtn.o
START GROUP
LOAD c:/program files (x86)/cypress/psoc creator/3.3/psoc creator/import/gnu/arm/4.9.3/bin/../lib/gcc/arm-none-eabi/4.9.3/armv7-m\libgcc.a
LOAD c:/program files (x86)/cypress/psoc creator/3.3/psoc creator/import/gnu/arm/4.9.3/bin/../lib/gcc/arm-none-eabi/4.9.3/../../../../arm-none-eabi/lib/armv7-m\libc.a
LOAD c:/program files (x86)/cypress/psoc creator/3.3/psoc creator/import/gnu/arm/4.9.3/bin/../lib/gcc/arm-none-eabi/4.9.3/../../../../arm-none-eabi/lib/armv7-m\libnosys.a
END GROUP
                0x00000000                CY_APPL_ORIGIN = 0x0
                0x00000100                CY_FLASH_ROW_SIZE = 0x100
                0x00000020                CY_ECC_ROW_SIZE = 0x20
                0x00000000                CY_EE_IN_BTLDR = 0x0
                0x00000000                CY_APPL_LOADABLE = 0x0
                0x00000800                CY_EE_SIZE = 0x800
                0x00000001                CY_APPL_NUM = 0x1
                0x00000001                CY_APPL_MAX = 0x1
                0x00000040                CY_METADATA_SIZE = 0x40
                0x00000000                CY_APPL_LOADABLE = 0x0
                0x00000000                CY_CHECKSUM_EXCLUDE_SIZE = ALIGN (0x0, CY_FLASH_ROW_SIZE)
                0x1fff8190                PROVIDE (__cy_heap_start, _end)
                0x00000001                PROVIDE (__cy_region_num, ((__cy_regions_end - __cy_regions) / 0x10))
                0x20008000                PROVIDE (__cy_stack, (ORIGIN (ram) + 0x10000))
                0x20007800                PROVIDE (__cy_heap_end, (__cy_stack - 0x800))

.cybootloader   0x00000000        0x0
 *(.cybootloader)
                0x00000000                appl1_start = CY_APPL_ORIGIN?CY_APPL_ORIGIN:ALIGN (CY_FLASH_ROW_SIZE)
                0x0001ff00                appl2_start = (appl1_start + ALIGN ((((0x40000 - appl1_start) - (0x2 * CY_FLASH_ROW_SIZE)) / 0x2), CY_FLASH_ROW_SIZE))
                0x00000000                appl_start = (CY_APPL_NUM == 0x1)?appl1_start:appl2_start
                0x00000000                ecc_offset = ((appl_start / CY_FLASH_ROW_SIZE) * CY_ECC_ROW_SIZE)
                0x00000000                ee_offset = (CY_APPL_LOADABLE && ! (CY_EE_IN_BTLDR))?((CY_EE_SIZE / CY_APPL_MAX) * (CY_APPL_NUM - 0x1)):0x0
                0x00000800                ee_size = (CY_APPL_LOADABLE && ! (CY_EE_IN_BTLDR))?(CY_EE_SIZE / CY_APPL_MAX):CY_EE_SIZE
                0x00000000                PROVIDE (CY_ECC_OFFSET, ecc_offset)

.text           0x00000000     0x38da
 CREATE_OBJECT_SYMBOLS
                0x00000000                PROVIDE (__cy_interrupt_vector, RomVectors)
 *(.romvectors)
 .romvectors    0x00000000       0x10 .\CortexM3\ARM_GCC_493\Debug\Cm3Start.o
                0x00000000                RomVectors
                0x00000001                ASSERT ((. != __cy_interrupt_vector), No interrupt vector)
                0x00000001                ASSERT (CY_APPL_ORIGIN?(SIZEOF (.cybootloader) <= CY_APPL_ORIGIN):0x1, Wrong image location)
                0x00000010                PROVIDE (__cy_reset, Reset)
 *(.text.Reset)
 .text.Reset    0x00000010       0x18 .\CortexM3\ARM_GCC_493\Debug\Cm3Start.o
                0x00000010                Reset
                0x00000001                ASSERT ((. != __cy_reset), No reset code)
 *(.dma_init)
                0x00000001                ASSERT ((((appl_start + .) <= 0x10000) || 0x1), DMA Init must be within the first 64k of flash)
 *(.text .text.* .gnu.linkonce.t.*)
 .text          0x00000028       0x5c c:/program files (x86)/cypress/psoc creator/3.3/psoc creator/import/gnu/arm/4.9.3/bin/../lib/gcc/arm-none-eabi/4.9.3/armv7-m/crtbegin.o
 .text.main     0x00000084      0x350 .\CortexM3\ARM_GCC_493\Debug\main.o
                0x00000084                main
 .text.Millisecond_Interrupt
                0x000003d4       0x70 .\CortexM3\ARM_GCC_493\Debug\milliseconds.o
                0x000003d4                Millisecond_Interrupt
 .text.init_milliseconds
                0x00000444       0x10 .\CortexM3\ARM_GCC_493\Debug\milliseconds.o
                0x00000444                init_milliseconds
 .text.RC_Ch1_Timer_ISR_Handler
                0x00000454       0x44 .\CortexM3\ARM_GCC_493\Debug\rc_ch.o
                0x00000454                RC_Ch1_Timer_ISR_Handler
 .text.RC_Ch2_Timer_ISR_Handler
                0x00000498       0x44 .\CortexM3\ARM_GCC_493\Debug\rc_ch.o
                0x00000498                RC_Ch2_Timer_ISR_Handler
 .text.RC_Ch3_Timer_ISR_Handler
                0x000004dc       0x44 .\CortexM3\ARM_GCC_493\Debug\rc_ch.o
                0x000004dc                RC_Ch3_Timer_ISR_Handler
 .text.RC_Ch4_Timer_ISR_Handler
                0x00000520       0x44 .\CortexM3\ARM_GCC_493\Debug\rc_ch.o
                0x00000520                RC_Ch4_Timer_ISR_Handler
 .text.init_rc_channels
                0x00000564       0x3c .\CortexM3\ARM_GCC_493\Debug\rc_ch.o
                0x00000564                init_rc_channels
 .text.construct_rc_ch
                0x000005a0       0x10 .\CortexM3\ARM_GCC_493\Debug\rc_ch.o
                0x000005a0                construct_rc_ch
 .text.get_rc_ch_value
                0x000005b0      0x130 .\CortexM3\ARM_GCC_493\Debug\rc_ch.o
                0x000005b0                get_rc_ch_value
 .text.init_dc_motors
                0x000006e0       0x24 .\CortexM3\ARM_GCC_493\Debug\dc_motor.o
                0x000006e0                init_dc_motors
 .text.construct_dc_motor
                0x00000704       0x28 .\CortexM3\ARM_GCC_493\Debug\dc_motor.o
                0x00000704                construct_dc_motor
 .text.set_dc_motor_pwm
                0x0000072c       0xe8 .\CortexM3\ARM_GCC_493\Debug\dc_motor.o
                0x0000072c                set_dc_motor_pwm
 *fill*         0x00000814        0x4 
 .text.get_dc_motor_pos
                0x00000818       0x78 .\CortexM3\ARM_GCC_493\Debug\dc_motor.o
                0x00000818                get_dc_motor_pos
 .text.set_dc_motor_pos
                0x00000890       0x6c .\CortexM3\ARM_GCC_493\Debug\dc_motor.o
                0x00000890                set_dc_motor_pos
 .text.MPU6050_init
                0x000008fc        0xc .\CortexM3\ARM_GCC_493\Debug\mpu6050.o
                0x000008fc                MPU6050_init
 .text.MPU6050_setDLPFMode
                0x00000908       0x20 .\CortexM3\ARM_GCC_493\Debug\mpu6050.o
                0x00000908                MPU6050_setDLPFMode
 .text.MPU6050_setFullScaleGyroRange
                0x00000928       0x20 .\CortexM3\ARM_GCC_493\Debug\mpu6050.o
                0x00000928                MPU6050_setFullScaleGyroRange
 .text.MPU6050_setFullScaleAccelRange
                0x00000948       0x20 .\CortexM3\ARM_GCC_493\Debug\mpu6050.o
                0x00000948                MPU6050_setFullScaleAccelRange
 .text.MPU6050_getMotion6
                0x00000968       0x6c .\CortexM3\ARM_GCC_493\Debug\mpu6050.o
                0x00000968                MPU6050_getMotion6
 .text.MPU6050_setSleepEnabled
                0x000009d4       0x18 .\CortexM3\ARM_GCC_493\Debug\mpu6050.o
                0x000009d4                MPU6050_setSleepEnabled
 .text.MPU6050_setClockSource
                0x000009ec       0x20 .\CortexM3\ARM_GCC_493\Debug\mpu6050.o
                0x000009ec                MPU6050_setClockSource
 .text.MPU6050_initialize
                0x00000a0c       0x1c .\CortexM3\ARM_GCC_493\Debug\mpu6050.o
                0x00000a0c                MPU6050_initialize
 .text.I2CReadBytes
                0x00000a28       0x44 .\CortexM3\ARM_GCC_493\Debug\i2cFunctions.o
                0x00000a28                I2CReadBytes
 .text.I2CWriteBytes
                0x00000a6c       0x30 .\CortexM3\ARM_GCC_493\Debug\i2cFunctions.o
                0x00000a6c                I2CWriteBytes
 .text.I2CReadByte
                0x00000a9c        0xc .\CortexM3\ARM_GCC_493\Debug\i2cFunctions.o
                0x00000a9c                I2CReadByte
 .text.I2CWriteByte
                0x00000aa8       0x18 .\CortexM3\ARM_GCC_493\Debug\i2cFunctions.o
                0x00000aa8                I2CWriteByte
 .text.I2CWriteBits
                0x00000ac0       0x4c .\CortexM3\ARM_GCC_493\Debug\i2cFunctions.o
                0x00000ac0                I2CWriteBits
 .text.I2CWriteBit
                0x00000b0c       0x40 .\CortexM3\ARM_GCC_493\Debug\i2cFunctions.o
                0x00000b0c                I2CWriteBit
 .text.init_imu
                0x00000b4c       0x18 .\CortexM3\ARM_GCC_493\Debug\imu.o
                0x00000b4c                init_imu
 .text.construct_imu
                0x00000b64       0x28 .\CortexM3\ARM_GCC_493\Debug\imu.o
                0x00000b64                construct_imu
 *fill*         0x00000b8c        0x4 
 .text.get_imu_values
                0x00000b90      0x150 .\CortexM3\ARM_GCC_493\Debug\imu.o
                0x00000b90                get_imu_values
 .text.init_pid
                0x00000ce0        0x4 .\CortexM3\ARM_GCC_493\Debug\pid.o
                0x00000ce0                init_pid
 .text.construct_pid
                0x00000ce4       0x1c .\CortexM3\ARM_GCC_493\Debug\pid.o
                0x00000ce4                construct_pid
 .text.get_pid_output
                0x00000d00       0x8c .\CortexM3\ARM_GCC_493\Debug\pid.o
                0x00000d00                get_pid_output
 .text.init_servos
                0x00000d8c        0x8 .\CortexM3\ARM_GCC_493\Debug\servo.o
                0x00000d8c                init_servos
 .text.set_servo_pos
                0x00000d94       0x58 .\CortexM3\ARM_GCC_493\Debug\servo.o
                0x00000d94                set_servo_pos
 .text.construct_servo
                0x00000dec        0xc .\CortexM3\ARM_GCC_493\Debug\servo.o
                0x00000dec                construct_servo
 .text.IntDefaultHandler
                0x00000df8        0x4 .\CortexM3\ARM_GCC_493\Debug\Cm3Start.o
                0x00000df8                IntDefaultHandler
 .text.Start_c  0x00000dfc       0x4c .\CortexM3\ARM_GCC_493\Debug\Cm3Start.o
                0x00000dfc                Start_c
 .text.initialize_psoc
                0x00000e48       0x74 .\CortexM3\ARM_GCC_493\Debug\Cm3Start.o
                0x00000e48                initialize_psoc
 .text.CyClockStartupError
                0x00000ebc        0x4 .\CortexM3\ARM_GCC_493\Debug\Ball.a(cyfitter_cfg.o)
 .text.cfg_write_bytes32
                0x00000ec0       0x34 .\CortexM3\ARM_GCC_493\Debug\Ball.a(cyfitter_cfg.o)
 .text.AnalogSetDefault
                0x00000ef4       0x28 .\CortexM3\ARM_GCC_493\Debug\Ball.a(cyfitter_cfg.o)
 .text.CYMEMZERO
                0x00000f1c        0xc .\CortexM3\ARM_GCC_493\Debug\Ball.a(cyfitter_cfg.o)
 .text.ClockSetup
                0x00000f28       0xd8 .\CortexM3\ARM_GCC_493\Debug\Ball.a(cyfitter_cfg.o)
 .text.CYCONFIGCPY
                0x00001000        0x8 .\CortexM3\ARM_GCC_493\Debug\Ball.a(cyfitter_cfg.o)
 .text.cyfitter_cfg
                0x00001008      0x13c .\CortexM3\ARM_GCC_493\Debug\Ball.a(cyfitter_cfg.o)
                0x00001008                cyfitter_cfg
 *fill*         0x00001144        0x4 
 .text          0x00001148       0x20 .\CortexM3\ARM_GCC_493\Debug\Ball.a(CyBootAsmGnu.o)
                0x00001148                CyDelayCycles
                0x00001158                CyEnterCriticalSection
                0x00001160                CyExitCriticalSection
 .text.CyHalt   0x00001168        0x4 .\CortexM3\ARM_GCC_493\Debug\Ball.a(CyLib.o)
                0x00001168                CyHalt
 .text.CyIntSetVector
                0x0000116c       0x28 .\CortexM3\ARM_GCC_493\Debug\Ball.a(CyLib.o)
                0x0000116c                CyIntSetVector
 .text.CyIntSetPriority
                0x00001194       0x30 .\CortexM3\ARM_GCC_493\Debug\Ball.a(CyLib.o)
                0x00001194                CyIntSetPriority
 .text.RC_Ch2_Timer_Enable
                0x000011c4       0x10 .\CortexM3\ARM_GCC_493\Debug\Ball.a(RC_Ch2_Timer.o)
                0x000011c4                RC_Ch2_Timer_Enable
 .text.RC_Ch2_Timer_Stop
                0x000011d4       0x10 .\CortexM3\ARM_GCC_493\Debug\Ball.a(RC_Ch2_Timer.o)
                0x000011d4                RC_Ch2_Timer_Stop
 .text.RC_Ch2_Timer_SetInterruptMode
                0x000011e4        0xc .\CortexM3\ARM_GCC_493\Debug\Ball.a(RC_Ch2_Timer.o)
                0x000011e4                RC_Ch2_Timer_SetInterruptMode
 .text.RC_Ch2_Timer_ReadStatusRegister
                0x000011f0        0xc .\CortexM3\ARM_GCC_493\Debug\Ball.a(RC_Ch2_Timer.o)
                0x000011f0                RC_Ch2_Timer_ReadStatusRegister
 .text.RC_Ch2_Timer_WritePeriod
                0x000011fc       0x10 .\CortexM3\ARM_GCC_493\Debug\Ball.a(RC_Ch2_Timer.o)
                0x000011fc                RC_Ch2_Timer_WritePeriod
 .text.RC_Ch2_Timer_ReadCapture
                0x0000120c       0x10 .\CortexM3\ARM_GCC_493\Debug\Ball.a(RC_Ch2_Timer.o)
                0x0000120c                RC_Ch2_Timer_ReadCapture
 .text.RC_Ch2_Timer_WriteCounter
                0x0000121c       0x10 .\CortexM3\ARM_GCC_493\Debug\Ball.a(RC_Ch2_Timer.o)
                0x0000121c                RC_Ch2_Timer_WriteCounter
 .text.RC_Ch2_Timer_EnableTrigger
                0x0000122c       0x10 .\CortexM3\ARM_GCC_493\Debug\Ball.a(RC_Ch2_Timer.o)
                0x0000122c                RC_Ch2_Timer_EnableTrigger
 .text.RC_Ch2_Timer_SetInterruptCount
                0x0000123c       0x1c .\CortexM3\ARM_GCC_493\Debug\Ball.a(RC_Ch2_Timer.o)
                0x0000123c                RC_Ch2_Timer_SetInterruptCount
 .text.RC_Ch2_Timer_ClearFIFO
                0x00001258       0x14 .\CortexM3\ARM_GCC_493\Debug\Ball.a(RC_Ch2_Timer.o)
                0x00001258                RC_Ch2_Timer_ClearFIFO
 .text.RC_Ch2_Timer_Init
                0x0000126c       0x40 .\CortexM3\ARM_GCC_493\Debug\Ball.a(RC_Ch2_Timer.o)
                0x0000126c                RC_Ch2_Timer_Init
 .text.RC_Ch2_Timer_Start
                0x000012ac       0x1c .\CortexM3\ARM_GCC_493\Debug\Ball.a(RC_Ch2_Timer.o)
                0x000012ac                RC_Ch2_Timer_Start
 .text.RC_Ch2_Timer_Interrupt_SetVector
                0x000012c8        0xc .\CortexM3\ARM_GCC_493\Debug\Ball.a(RC_Ch2_Timer_Interrupt.o)
                0x000012c8                RC_Ch2_Timer_Interrupt_SetVector
 .text.RC_Ch2_Timer_Interrupt_SetPriority
                0x000012d4       0x10 .\CortexM3\ARM_GCC_493\Debug\Ball.a(RC_Ch2_Timer_Interrupt.o)
                0x000012d4                RC_Ch2_Timer_Interrupt_SetPriority
 .text.RC_Ch2_Timer_Interrupt_Enable
                0x000012e4        0xc .\CortexM3\ARM_GCC_493\Debug\Ball.a(RC_Ch2_Timer_Interrupt.o)
                0x000012e4                RC_Ch2_Timer_Interrupt_Enable
 .text.RC_Ch2_Timer_Interrupt_Disable
                0x000012f0        0xc .\CortexM3\ARM_GCC_493\Debug\Ball.a(RC_Ch2_Timer_Interrupt.o)
                0x000012f0                RC_Ch2_Timer_Interrupt_Disable
 .text.RC_Ch2_Timer_Interrupt_StartEx
                0x000012fc       0x1c .\CortexM3\ARM_GCC_493\Debug\Ball.a(RC_Ch2_Timer_Interrupt.o)
                0x000012fc                RC_Ch2_Timer_Interrupt_StartEx
 .text.Clock_Millis_Interrupt_SetVector
                0x00001318        0xc .\CortexM3\ARM_GCC_493\Debug\Ball.a(Clock_Millis_Interrupt.o)
                0x00001318                Clock_Millis_Interrupt_SetVector
 .text.Clock_Millis_Interrupt_SetPriority
                0x00001324       0x10 .\CortexM3\ARM_GCC_493\Debug\Ball.a(Clock_Millis_Interrupt.o)
                0x00001324                Clock_Millis_Interrupt_SetPriority
 .text.Clock_Millis_Interrupt_Enable
                0x00001334        0xc .\CortexM3\ARM_GCC_493\Debug\Ball.a(Clock_Millis_Interrupt.o)
                0x00001334                Clock_Millis_Interrupt_Enable
 .text.Clock_Millis_Interrupt_Disable
                0x00001340        0xc .\CortexM3\ARM_GCC_493\Debug\Ball.a(Clock_Millis_Interrupt.o)
                0x00001340                Clock_Millis_Interrupt_Disable
 .text.Clock_Millis_Interrupt_StartEx
                0x0000134c       0x1c .\CortexM3\ARM_GCC_493\Debug\Ball.a(Clock_Millis_Interrupt.o)
                0x0000134c                Clock_Millis_Interrupt_StartEx
 .text.RC_Ch1_Read
                0x00001368       0x10 .\CortexM3\ARM_GCC_493\Debug\Ball.a(RC_Ch1.o)
                0x00001368                RC_Ch1_Read
 .text.RC_Ch1_Timer_Enable
                0x00001378       0x10 .\CortexM3\ARM_GCC_493\Debug\Ball.a(RC_Ch1_Timer.o)
                0x00001378                RC_Ch1_Timer_Enable
 .text.RC_Ch1_Timer_Stop
                0x00001388       0x10 .\CortexM3\ARM_GCC_493\Debug\Ball.a(RC_Ch1_Timer.o)
                0x00001388                RC_Ch1_Timer_Stop
 .text.RC_Ch1_Timer_SetInterruptMode
                0x00001398        0xc .\CortexM3\ARM_GCC_493\Debug\Ball.a(RC_Ch1_Timer.o)
                0x00001398                RC_Ch1_Timer_SetInterruptMode
 .text.RC_Ch1_Timer_ReadStatusRegister
                0x000013a4        0xc .\CortexM3\ARM_GCC_493\Debug\Ball.a(RC_Ch1_Timer.o)
                0x000013a4                RC_Ch1_Timer_ReadStatusRegister
 .text.RC_Ch1_Timer_WritePeriod
                0x000013b0       0x10 .\CortexM3\ARM_GCC_493\Debug\Ball.a(RC_Ch1_Timer.o)
                0x000013b0                RC_Ch1_Timer_WritePeriod
 .text.RC_Ch1_Timer_ReadCapture
                0x000013c0       0x10 .\CortexM3\ARM_GCC_493\Debug\Ball.a(RC_Ch1_Timer.o)
                0x000013c0                RC_Ch1_Timer_ReadCapture
 .text.RC_Ch1_Timer_WriteCounter
                0x000013d0       0x10 .\CortexM3\ARM_GCC_493\Debug\Ball.a(RC_Ch1_Timer.o)
                0x000013d0                RC_Ch1_Timer_WriteCounter
 .text.RC_Ch1_Timer_EnableTrigger
                0x000013e0       0x10 .\CortexM3\ARM_GCC_493\Debug\Ball.a(RC_Ch1_Timer.o)
                0x000013e0                RC_Ch1_Timer_EnableTrigger
 .text.RC_Ch1_Timer_SetInterruptCount
                0x000013f0       0x1c .\CortexM3\ARM_GCC_493\Debug\Ball.a(RC_Ch1_Timer.o)
                0x000013f0                RC_Ch1_Timer_SetInterruptCount
 .text.RC_Ch1_Timer_ClearFIFO
                0x0000140c       0x14 .\CortexM3\ARM_GCC_493\Debug\Ball.a(RC_Ch1_Timer.o)
                0x0000140c                RC_Ch1_Timer_ClearFIFO
 .text.RC_Ch1_Timer_Init
                0x00001420       0x40 .\CortexM3\ARM_GCC_493\Debug\Ball.a(RC_Ch1_Timer.o)
                0x00001420                RC_Ch1_Timer_Init
 .text.RC_Ch1_Timer_Start
                0x00001460       0x1c .\CortexM3\ARM_GCC_493\Debug\Ball.a(RC_Ch1_Timer.o)
                0x00001460                RC_Ch1_Timer_Start
 .text.RC_Ch2_Read
                0x0000147c       0x10 .\CortexM3\ARM_GCC_493\Debug\Ball.a(RC_Ch2.o)
                0x0000147c                RC_Ch2_Read
 .text.RC_Ch1_Timer_Interrupt_SetVector
                0x0000148c        0xc .\CortexM3\ARM_GCC_493\Debug\Ball.a(RC_Ch1_Timer_Interrupt.o)
                0x0000148c                RC_Ch1_Timer_Interrupt_SetVector
 .text.RC_Ch1_Timer_Interrupt_SetPriority
                0x00001498       0x10 .\CortexM3\ARM_GCC_493\Debug\Ball.a(RC_Ch1_Timer_Interrupt.o)
                0x00001498                RC_Ch1_Timer_Interrupt_SetPriority
 .text.RC_Ch1_Timer_Interrupt_Enable
                0x000014a8        0xc .\CortexM3\ARM_GCC_493\Debug\Ball.a(RC_Ch1_Timer_Interrupt.o)
                0x000014a8                RC_Ch1_Timer_Interrupt_Enable
 .text.RC_Ch1_Timer_Interrupt_Disable
                0x000014b4        0xc .\CortexM3\ARM_GCC_493\Debug\Ball.a(RC_Ch1_Timer_Interrupt.o)
                0x000014b4                RC_Ch1_Timer_Interrupt_Disable
 .text.RC_Ch1_Timer_Interrupt_StartEx
                0x000014c0       0x1c .\CortexM3\ARM_GCC_493\Debug\Ball.a(RC_Ch1_Timer_Interrupt.o)
                0x000014c0                RC_Ch1_Timer_Interrupt_StartEx
 .text.RC_Ch4_Timer_Enable
                0x000014dc       0x10 .\CortexM3\ARM_GCC_493\Debug\Ball.a(RC_Ch4_Timer.o)
                0x000014dc                RC_Ch4_Timer_Enable
 .text.RC_Ch4_Timer_Stop
                0x000014ec       0x10 .\CortexM3\ARM_GCC_493\Debug\Ball.a(RC_Ch4_Timer.o)
                0x000014ec                RC_Ch4_Timer_Stop
 .text.RC_Ch4_Timer_SetInterruptMode
                0x000014fc        0xc .\CortexM3\ARM_GCC_493\Debug\Ball.a(RC_Ch4_Timer.o)
                0x000014fc                RC_Ch4_Timer_SetInterruptMode
 .text.RC_Ch4_Timer_ReadStatusRegister
                0x00001508        0xc .\CortexM3\ARM_GCC_493\Debug\Ball.a(RC_Ch4_Timer.o)
                0x00001508                RC_Ch4_Timer_ReadStatusRegister
 .text.RC_Ch4_Timer_WritePeriod
                0x00001514       0x10 .\CortexM3\ARM_GCC_493\Debug\Ball.a(RC_Ch4_Timer.o)
                0x00001514                RC_Ch4_Timer_WritePeriod
 .text.RC_Ch4_Timer_ReadCapture
                0x00001524       0x10 .\CortexM3\ARM_GCC_493\Debug\Ball.a(RC_Ch4_Timer.o)
                0x00001524                RC_Ch4_Timer_ReadCapture
 .text.RC_Ch4_Timer_WriteCounter
                0x00001534       0x10 .\CortexM3\ARM_GCC_493\Debug\Ball.a(RC_Ch4_Timer.o)
                0x00001534                RC_Ch4_Timer_WriteCounter
 .text.RC_Ch4_Timer_EnableTrigger
                0x00001544       0x10 .\CortexM3\ARM_GCC_493\Debug\Ball.a(RC_Ch4_Timer.o)
                0x00001544                RC_Ch4_Timer_EnableTrigger
 .text.RC_Ch4_Timer_SetInterruptCount
                0x00001554       0x1c .\CortexM3\ARM_GCC_493\Debug\Ball.a(RC_Ch4_Timer.o)
                0x00001554                RC_Ch4_Timer_SetInterruptCount
 .text.RC_Ch4_Timer_ClearFIFO
                0x00001570       0x14 .\CortexM3\ARM_GCC_493\Debug\Ball.a(RC_Ch4_Timer.o)
                0x00001570                RC_Ch4_Timer_ClearFIFO
 .text.RC_Ch4_Timer_Init
                0x00001584       0x40 .\CortexM3\ARM_GCC_493\Debug\Ball.a(RC_Ch4_Timer.o)
                0x00001584                RC_Ch4_Timer_Init
 .text.RC_Ch4_Timer_Start
                0x000015c4       0x1c .\CortexM3\ARM_GCC_493\Debug\Ball.a(RC_Ch4_Timer.o)
                0x000015c4                RC_Ch4_Timer_Start
 .text.RC_Ch4_Read
                0x000015e0       0x10 .\CortexM3\ARM_GCC_493\Debug\Ball.a(RC_Ch4.o)
                0x000015e0                RC_Ch4_Read
 .text.RC_Ch4_Timer_Interrupt_SetVector
                0x000015f0        0xc .\CortexM3\ARM_GCC_493\Debug\Ball.a(RC_Ch4_Timer_Interrupt.o)
                0x000015f0                RC_Ch4_Timer_Interrupt_SetVector
 .text.RC_Ch4_Timer_Interrupt_SetPriority
                0x000015fc       0x10 .\CortexM3\ARM_GCC_493\Debug\Ball.a(RC_Ch4_Timer_Interrupt.o)
                0x000015fc                RC_Ch4_Timer_Interrupt_SetPriority
 .text.RC_Ch4_Timer_Interrupt_Enable
                0x0000160c        0xc .\CortexM3\ARM_GCC_493\Debug\Ball.a(RC_Ch4_Timer_Interrupt.o)
                0x0000160c                RC_Ch4_Timer_Interrupt_Enable
 .text.RC_Ch4_Timer_Interrupt_Disable
                0x00001618        0xc .\CortexM3\ARM_GCC_493\Debug\Ball.a(RC_Ch4_Timer_Interrupt.o)
                0x00001618                RC_Ch4_Timer_Interrupt_Disable
 .text.RC_Ch4_Timer_Interrupt_StartEx
                0x00001624       0x1c .\CortexM3\ARM_GCC_493\Debug\Ball.a(RC_Ch4_Timer_Interrupt.o)
                0x00001624                RC_Ch4_Timer_Interrupt_StartEx
 .text.RC_Ch3_Timer_Enable
                0x00001640       0x10 .\CortexM3\ARM_GCC_493\Debug\Ball.a(RC_Ch3_Timer.o)
                0x00001640                RC_Ch3_Timer_Enable
 .text.RC_Ch3_Timer_Stop
                0x00001650       0x10 .\CortexM3\ARM_GCC_493\Debug\Ball.a(RC_Ch3_Timer.o)
                0x00001650                RC_Ch3_Timer_Stop
 .text.RC_Ch3_Timer_SetInterruptMode
                0x00001660        0xc .\CortexM3\ARM_GCC_493\Debug\Ball.a(RC_Ch3_Timer.o)
                0x00001660                RC_Ch3_Timer_SetInterruptMode
 .text.RC_Ch3_Timer_ReadStatusRegister
                0x0000166c        0xc .\CortexM3\ARM_GCC_493\Debug\Ball.a(RC_Ch3_Timer.o)
                0x0000166c                RC_Ch3_Timer_ReadStatusRegister
 .text.RC_Ch3_Timer_WritePeriod
                0x00001678       0x10 .\CortexM3\ARM_GCC_493\Debug\Ball.a(RC_Ch3_Timer.o)
                0x00001678                RC_Ch3_Timer_WritePeriod
 .text.RC_Ch3_Timer_ReadCapture
                0x00001688       0x10 .\CortexM3\ARM_GCC_493\Debug\Ball.a(RC_Ch3_Timer.o)
                0x00001688                RC_Ch3_Timer_ReadCapture
 .text.RC_Ch3_Timer_WriteCounter
                0x00001698       0x10 .\CortexM3\ARM_GCC_493\Debug\Ball.a(RC_Ch3_Timer.o)
                0x00001698                RC_Ch3_Timer_WriteCounter
 .text.RC_Ch3_Timer_EnableTrigger
                0x000016a8       0x10 .\CortexM3\ARM_GCC_493\Debug\Ball.a(RC_Ch3_Timer.o)
                0x000016a8                RC_Ch3_Timer_EnableTrigger
 .text.RC_Ch3_Timer_SetInterruptCount
                0x000016b8       0x1c .\CortexM3\ARM_GCC_493\Debug\Ball.a(RC_Ch3_Timer.o)
                0x000016b8                RC_Ch3_Timer_SetInterruptCount
 .text.RC_Ch3_Timer_ClearFIFO
                0x000016d4       0x14 .\CortexM3\ARM_GCC_493\Debug\Ball.a(RC_Ch3_Timer.o)
                0x000016d4                RC_Ch3_Timer_ClearFIFO
 .text.RC_Ch3_Timer_Init
                0x000016e8       0x40 .\CortexM3\ARM_GCC_493\Debug\Ball.a(RC_Ch3_Timer.o)
                0x000016e8                RC_Ch3_Timer_Init
 .text.RC_Ch3_Timer_Start
                0x00001728       0x1c .\CortexM3\ARM_GCC_493\Debug\Ball.a(RC_Ch3_Timer.o)
                0x00001728                RC_Ch3_Timer_Start
 .text.RC_Ch3_Read
                0x00001744       0x10 .\CortexM3\ARM_GCC_493\Debug\Ball.a(RC_Ch3.o)
                0x00001744                RC_Ch3_Read
 .text.RC_Ch3_Timer_Interrupt_SetVector
                0x00001754        0xc .\CortexM3\ARM_GCC_493\Debug\Ball.a(RC_Ch3_Timer_Interrupt.o)
                0x00001754                RC_Ch3_Timer_Interrupt_SetVector
 .text.RC_Ch3_Timer_Interrupt_SetPriority
                0x00001760       0x10 .\CortexM3\ARM_GCC_493\Debug\Ball.a(RC_Ch3_Timer_Interrupt.o)
                0x00001760                RC_Ch3_Timer_Interrupt_SetPriority
 .text.RC_Ch3_Timer_Interrupt_Enable
                0x00001770        0xc .\CortexM3\ARM_GCC_493\Debug\Ball.a(RC_Ch3_Timer_Interrupt.o)
                0x00001770                RC_Ch3_Timer_Interrupt_Enable
 .text.RC_Ch3_Timer_Interrupt_Disable
                0x0000177c        0xc .\CortexM3\ARM_GCC_493\Debug\Ball.a(RC_Ch3_Timer_Interrupt.o)
                0x0000177c                RC_Ch3_Timer_Interrupt_Disable
 .text.RC_Ch3_Timer_Interrupt_StartEx
                0x00001788       0x1c .\CortexM3\ARM_GCC_493\Debug\Ball.a(RC_Ch3_Timer_Interrupt.o)
                0x00001788                RC_Ch3_Timer_Interrupt_StartEx
 .text.Drive_DC_Motor_PWM_Enable
                0x000017a4       0x10 .\CortexM3\ARM_GCC_493\Debug\Ball.a(Drive_DC_Motor_PWM.o)
                0x000017a4                Drive_DC_Motor_PWM_Enable
 .text.Drive_DC_Motor_PWM_WriteCounter
                0x000017b4        0xc .\CortexM3\ARM_GCC_493\Debug\Ball.a(Drive_DC_Motor_PWM.o)
                0x000017b4                Drive_DC_Motor_PWM_WriteCounter
 .text.Drive_DC_Motor_PWM_WritePeriod
                0x000017c0        0xc .\CortexM3\ARM_GCC_493\Debug\Ball.a(Drive_DC_Motor_PWM.o)
                0x000017c0                Drive_DC_Motor_PWM_WritePeriod
 .text.Drive_DC_Motor_PWM_WriteCompare1
                0x000017cc        0xc .\CortexM3\ARM_GCC_493\Debug\Ball.a(Drive_DC_Motor_PWM.o)
                0x000017cc                Drive_DC_Motor_PWM_WriteCompare1
 .text.Drive_DC_Motor_PWM_WriteCompare2
                0x000017d8        0xc .\CortexM3\ARM_GCC_493\Debug\Ball.a(Drive_DC_Motor_PWM.o)
                0x000017d8                Drive_DC_Motor_PWM_WriteCompare2
 .text.Drive_DC_Motor_PWM_SetInterruptMode
                0x000017e4        0xc .\CortexM3\ARM_GCC_493\Debug\Ball.a(Drive_DC_Motor_PWM.o)
                0x000017e4                Drive_DC_Motor_PWM_SetInterruptMode
 .text.Drive_DC_Motor_PWM_ReadStatusRegister
                0x000017f0        0xc .\CortexM3\ARM_GCC_493\Debug\Ball.a(Drive_DC_Motor_PWM.o)
                0x000017f0                Drive_DC_Motor_PWM_ReadStatusRegister
 .text.Drive_DC_Motor_PWM_ReadCapture
                0x000017fc        0xc .\CortexM3\ARM_GCC_493\Debug\Ball.a(Drive_DC_Motor_PWM.o)
                0x000017fc                Drive_DC_Motor_PWM_ReadCapture
 .text.Drive_DC_Motor_PWM_ClearFIFO
                0x00001808       0x14 .\CortexM3\ARM_GCC_493\Debug\Ball.a(Drive_DC_Motor_PWM.o)
                0x00001808                Drive_DC_Motor_PWM_ClearFIFO
 .text.Drive_DC_Motor_PWM_Init
                0x0000181c       0x58 .\CortexM3\ARM_GCC_493\Debug\Ball.a(Drive_DC_Motor_PWM.o)
                0x0000181c                Drive_DC_Motor_PWM_Init
 .text.Drive_DC_Motor_PWM_Start
                0x00001874       0x1c .\CortexM3\ARM_GCC_493\Debug\Ball.a(Drive_DC_Motor_PWM.o)
                0x00001874                Drive_DC_Motor_PWM_Start
 .text.Pendulum_DC_Motor_PWM_Enable
                0x00001890       0x10 .\CortexM3\ARM_GCC_493\Debug\Ball.a(Pendulum_DC_Motor_PWM.o)
                0x00001890                Pendulum_DC_Motor_PWM_Enable
 .text.Pendulum_DC_Motor_PWM_WriteCounter
                0x000018a0        0xc .\CortexM3\ARM_GCC_493\Debug\Ball.a(Pendulum_DC_Motor_PWM.o)
                0x000018a0                Pendulum_DC_Motor_PWM_WriteCounter
 .text.Pendulum_DC_Motor_PWM_WritePeriod
                0x000018ac        0xc .\CortexM3\ARM_GCC_493\Debug\Ball.a(Pendulum_DC_Motor_PWM.o)
                0x000018ac                Pendulum_DC_Motor_PWM_WritePeriod
 .text.Pendulum_DC_Motor_PWM_WriteCompare1
                0x000018b8        0xc .\CortexM3\ARM_GCC_493\Debug\Ball.a(Pendulum_DC_Motor_PWM.o)
                0x000018b8                Pendulum_DC_Motor_PWM_WriteCompare1
 .text.Pendulum_DC_Motor_PWM_WriteCompare2
                0x000018c4        0xc .\CortexM3\ARM_GCC_493\Debug\Ball.a(Pendulum_DC_Motor_PWM.o)
                0x000018c4                Pendulum_DC_Motor_PWM_WriteCompare2
 .text.Pendulum_DC_Motor_PWM_SetInterruptMode
                0x000018d0        0xc .\CortexM3\ARM_GCC_493\Debug\Ball.a(Pendulum_DC_Motor_PWM.o)
                0x000018d0                Pendulum_DC_Motor_PWM_SetInterruptMode
 .text.Pendulum_DC_Motor_PWM_ReadStatusRegister
                0x000018dc        0xc .\CortexM3\ARM_GCC_493\Debug\Ball.a(Pendulum_DC_Motor_PWM.o)
                0x000018dc                Pendulum_DC_Motor_PWM_ReadStatusRegister
 .text.Pendulum_DC_Motor_PWM_ReadCapture
                0x000018e8        0xc .\CortexM3\ARM_GCC_493\Debug\Ball.a(Pendulum_DC_Motor_PWM.o)
                0x000018e8                Pendulum_DC_Motor_PWM_ReadCapture
 .text.Pendulum_DC_Motor_PWM_ClearFIFO
                0x000018f4       0x14 .\CortexM3\ARM_GCC_493\Debug\Ball.a(Pendulum_DC_Motor_PWM.o)
                0x000018f4                Pendulum_DC_Motor_PWM_ClearFIFO
 .text.Pendulum_DC_Motor_PWM_Init
                0x00001908       0x5c .\CortexM3\ARM_GCC_493\Debug\Ball.a(Pendulum_DC_Motor_PWM.o)
                0x00001908                Pendulum_DC_Motor_PWM_Init
 .text.Pendulum_DC_Motor_PWM_Start
                0x00001964       0x1c .\CortexM3\ARM_GCC_493\Debug\Ball.a(Pendulum_DC_Motor_PWM.o)
                0x00001964                Pendulum_DC_Motor_PWM_Start
 .text.Flywheel_DC_Motor_PWM_Enable
                0x00001980       0x10 .\CortexM3\ARM_GCC_493\Debug\Ball.a(Flywheel_DC_Motor_PWM.o)
                0x00001980                Flywheel_DC_Motor_PWM_Enable
 .text.Flywheel_DC_Motor_PWM_WriteCounter
                0x00001990        0xc .\CortexM3\ARM_GCC_493\Debug\Ball.a(Flywheel_DC_Motor_PWM.o)
                0x00001990                Flywheel_DC_Motor_PWM_WriteCounter
 .text.Flywheel_DC_Motor_PWM_WritePeriod
                0x0000199c        0xc .\CortexM3\ARM_GCC_493\Debug\Ball.a(Flywheel_DC_Motor_PWM.o)
                0x0000199c                Flywheel_DC_Motor_PWM_WritePeriod
 .text.Flywheel_DC_Motor_PWM_WriteCompare1
                0x000019a8        0xc .\CortexM3\ARM_GCC_493\Debug\Ball.a(Flywheel_DC_Motor_PWM.o)
                0x000019a8                Flywheel_DC_Motor_PWM_WriteCompare1
 .text.Flywheel_DC_Motor_PWM_WriteCompare2
                0x000019b4        0xc .\CortexM3\ARM_GCC_493\Debug\Ball.a(Flywheel_DC_Motor_PWM.o)
                0x000019b4                Flywheel_DC_Motor_PWM_WriteCompare2
 .text.Flywheel_DC_Motor_PWM_SetInterruptMode
                0x000019c0        0xc .\CortexM3\ARM_GCC_493\Debug\Ball.a(Flywheel_DC_Motor_PWM.o)
                0x000019c0                Flywheel_DC_Motor_PWM_SetInterruptMode
 .text.Flywheel_DC_Motor_PWM_ReadStatusRegister
                0x000019cc        0xc .\CortexM3\ARM_GCC_493\Debug\Ball.a(Flywheel_DC_Motor_PWM.o)
                0x000019cc                Flywheel_DC_Motor_PWM_ReadStatusRegister
 .text.Flywheel_DC_Motor_PWM_ReadCapture
                0x000019d8        0xc .\CortexM3\ARM_GCC_493\Debug\Ball.a(Flywheel_DC_Motor_PWM.o)
                0x000019d8                Flywheel_DC_Motor_PWM_ReadCapture
 .text.Flywheel_DC_Motor_PWM_ClearFIFO
                0x000019e4       0x14 .\CortexM3\ARM_GCC_493\Debug\Ball.a(Flywheel_DC_Motor_PWM.o)
                0x000019e4                Flywheel_DC_Motor_PWM_ClearFIFO
 .text.Flywheel_DC_Motor_PWM_Init
                0x000019f8       0x5c .\CortexM3\ARM_GCC_493\Debug\Ball.a(Flywheel_DC_Motor_PWM.o)
                0x000019f8                Flywheel_DC_Motor_PWM_Init
 .text.Flywheel_DC_Motor_PWM_Start
                0x00001a54       0x1c .\CortexM3\ARM_GCC_493\Debug\Ball.a(Flywheel_DC_Motor_PWM.o)
                0x00001a54                Flywheel_DC_Motor_PWM_Start
 .text.MPU6050_I2C_Init
                0x00001a70       0x68 .\CortexM3\ARM_GCC_493\Debug\Ball.a(MPU6050_I2C.o)
                0x00001a70                MPU6050_I2C_Init
 .text.MPU6050_I2C_Enable
                0x00001ad8       0x24 .\CortexM3\ARM_GCC_493\Debug\Ball.a(MPU6050_I2C.o)
                0x00001ad8                MPU6050_I2C_Enable
 .text.MPU6050_I2C_Start
                0x00001afc       0x28 .\CortexM3\ARM_GCC_493\Debug\Ball.a(MPU6050_I2C.o)
                0x00001afc                MPU6050_I2C_Start
 .text.MPU6050_I2C_ISR
                0x00001b24      0x2cc .\CortexM3\ARM_GCC_493\Debug\Ball.a(MPU6050_I2C_INT.o)
                0x00001b24                MPU6050_I2C_ISR
 .text.MPU6050_I2C_MasterSendStart
                0x00001df0       0x80 .\CortexM3\ARM_GCC_493\Debug\Ball.a(MPU6050_I2C_MASTER.o)
                0x00001df0                MPU6050_I2C_MasterSendStart
 .text.MPU6050_I2C_MasterSendRestart
                0x00001e70       0x6c .\CortexM3\ARM_GCC_493\Debug\Ball.a(MPU6050_I2C_MASTER.o)
                0x00001e70                MPU6050_I2C_MasterSendRestart
 .text.MPU6050_I2C_MasterSendStop
                0x00001edc       0x38 .\CortexM3\ARM_GCC_493\Debug\Ball.a(MPU6050_I2C_MASTER.o)
                0x00001edc                MPU6050_I2C_MasterSendStop
 .text.MPU6050_I2C_MasterWriteByte
                0x00001f14       0x58 .\CortexM3\ARM_GCC_493\Debug\Ball.a(MPU6050_I2C_MASTER.o)
                0x00001f14                MPU6050_I2C_MasterWriteByte
 .text.MPU6050_I2C_MasterReadByte
                0x00001f6c       0x58 .\CortexM3\ARM_GCC_493\Debug\Ball.a(MPU6050_I2C_MASTER.o)
                0x00001f6c                MPU6050_I2C_MasterReadByte
 .text.Drive_DC_Motor_Quad_Dec_GetCounter
                0x00001fc4       0x10 .\CortexM3\ARM_GCC_493\Debug\Ball.a(Drive_DC_Motor_Quad_Dec.o)
                0x00001fc4                Drive_DC_Motor_Quad_Dec_GetCounter
 .text.Drive_DC_Motor_Quad_Dec_SetCounter
                0x00001fd4       0x1c .\CortexM3\ARM_GCC_493\Debug\Ball.a(Drive_DC_Motor_Quad_Dec.o)
                0x00001fd4                Drive_DC_Motor_Quad_Dec_SetCounter
 .text.Drive_DC_Motor_Quad_Dec_GetEvents
                0x00001ff0       0x10 .\CortexM3\ARM_GCC_493\Debug\Ball.a(Drive_DC_Motor_Quad_Dec.o)
                0x00001ff0                Drive_DC_Motor_Quad_Dec_GetEvents
 .text.Drive_DC_Motor_Quad_Dec_SetInterruptMask
                0x00002000        0xc .\CortexM3\ARM_GCC_493\Debug\Ball.a(Drive_DC_Motor_Quad_Dec.o)
                0x00002000                Drive_DC_Motor_Quad_Dec_SetInterruptMask
 .text.Drive_DC_Motor_Quad_Dec_Enable
                0x0000200c       0x24 .\CortexM3\ARM_GCC_493\Debug\Ball.a(Drive_DC_Motor_Quad_Dec.o)
                0x0000200c                Drive_DC_Motor_Quad_Dec_Enable
 .text.Drive_DC_Motor_Quad_Dec_Start
                0x00002030       0x24 .\CortexM3\ARM_GCC_493\Debug\Ball.a(Drive_DC_Motor_Quad_Dec.o)
                0x00002030                Drive_DC_Motor_Quad_Dec_Start
 .text.Drive_DC_Motor_Quad_Dec_Cnt16_Enable
                0x00002054       0x10 .\CortexM3\ARM_GCC_493\Debug\Ball.a(Drive_DC_Motor_Quad_Dec_Cnt16.o)
                0x00002054                Drive_DC_Motor_Quad_Dec_Cnt16_Enable
 .text.Drive_DC_Motor_Quad_Dec_Cnt16_SetInterruptMode
                0x00002064        0xc .\CortexM3\ARM_GCC_493\Debug\Ball.a(Drive_DC_Motor_Quad_Dec_Cnt16.o)
                0x00002064                Drive_DC_Motor_Quad_Dec_Cnt16_SetInterruptMode
 .text.Drive_DC_Motor_Quad_Dec_Cnt16_ReadStatusRegister
                0x00002070        0xc .\CortexM3\ARM_GCC_493\Debug\Ball.a(Drive_DC_Motor_Quad_Dec_Cnt16.o)
                0x00002070                Drive_DC_Motor_Quad_Dec_Cnt16_ReadStatusRegister
 .text.Drive_DC_Motor_Quad_Dec_Cnt16_WriteCounter
                0x0000207c        0xc .\CortexM3\ARM_GCC_493\Debug\Ball.a(Drive_DC_Motor_Quad_Dec_Cnt16.o)
                0x0000207c                Drive_DC_Motor_Quad_Dec_Cnt16_WriteCounter
 .text.Drive_DC_Motor_Quad_Dec_Cnt16_ReadCounter
                0x00002088       0x14 .\CortexM3\ARM_GCC_493\Debug\Ball.a(Drive_DC_Motor_Quad_Dec_Cnt16.o)
                0x00002088                Drive_DC_Motor_Quad_Dec_Cnt16_ReadCounter
 .text.Drive_DC_Motor_Quad_Dec_Cnt16_ReadCapture
                0x0000209c        0xc .\CortexM3\ARM_GCC_493\Debug\Ball.a(Drive_DC_Motor_Quad_Dec_Cnt16.o)
                0x0000209c                Drive_DC_Motor_Quad_Dec_Cnt16_ReadCapture
 .text.Drive_DC_Motor_Quad_Dec_Cnt16_WritePeriod
                0x000020a8        0xc .\CortexM3\ARM_GCC_493\Debug\Ball.a(Drive_DC_Motor_Quad_Dec_Cnt16.o)
                0x000020a8                Drive_DC_Motor_Quad_Dec_Cnt16_WritePeriod
 .text.Drive_DC_Motor_Quad_Dec_Cnt16_WriteCompare
                0x000020b4        0xc .\CortexM3\ARM_GCC_493\Debug\Ball.a(Drive_DC_Motor_Quad_Dec_Cnt16.o)
                0x000020b4                Drive_DC_Motor_Quad_Dec_Cnt16_WriteCompare
 .text.Drive_DC_Motor_Quad_Dec_Cnt16_ClearFIFO
                0x000020c0       0x14 .\CortexM3\ARM_GCC_493\Debug\Ball.a(Drive_DC_Motor_Quad_Dec_Cnt16.o)
                0x000020c0                Drive_DC_Motor_Quad_Dec_Cnt16_ClearFIFO
 .text.Drive_DC_Motor_Quad_Dec_Cnt16_Init
                0x000020d4       0x58 .\CortexM3\ARM_GCC_493\Debug\Ball.a(Drive_DC_Motor_Quad_Dec_Cnt16.o)
                0x000020d4                Drive_DC_Motor_Quad_Dec_Cnt16_Init
 .text.Drive_DC_Motor_Quad_Dec_Cnt16_Start
                0x0000212c       0x1c .\CortexM3\ARM_GCC_493\Debug\Ball.a(Drive_DC_Motor_Quad_Dec_Cnt16.o)
                0x0000212c                Drive_DC_Motor_Quad_Dec_Cnt16_Start
 .text.Pendulum_DC_Motor_Quad_Dec_GetCounter
                0x00002148       0x10 .\CortexM3\ARM_GCC_493\Debug\Ball.a(Pendulum_DC_Motor_Quad_Dec.o)
                0x00002148                Pendulum_DC_Motor_Quad_Dec_GetCounter
 .text.Pendulum_DC_Motor_Quad_Dec_SetCounter
                0x00002158       0x1c .\CortexM3\ARM_GCC_493\Debug\Ball.a(Pendulum_DC_Motor_Quad_Dec.o)
                0x00002158                Pendulum_DC_Motor_Quad_Dec_SetCounter
 .text.Pendulum_DC_Motor_Quad_Dec_GetEvents
                0x00002174       0x10 .\CortexM3\ARM_GCC_493\Debug\Ball.a(Pendulum_DC_Motor_Quad_Dec.o)
                0x00002174                Pendulum_DC_Motor_Quad_Dec_GetEvents
 .text.Pendulum_DC_Motor_Quad_Dec_SetInterruptMask
                0x00002184        0xc .\CortexM3\ARM_GCC_493\Debug\Ball.a(Pendulum_DC_Motor_Quad_Dec.o)
                0x00002184                Pendulum_DC_Motor_Quad_Dec_SetInterruptMask
 .text.Pendulum_DC_Motor_Quad_Dec_Enable
                0x00002190       0x24 .\CortexM3\ARM_GCC_493\Debug\Ball.a(Pendulum_DC_Motor_Quad_Dec.o)
                0x00002190                Pendulum_DC_Motor_Quad_Dec_Enable
 .text.Pendulum_DC_Motor_Quad_Dec_Start
                0x000021b4       0x24 .\CortexM3\ARM_GCC_493\Debug\Ball.a(Pendulum_DC_Motor_Quad_Dec.o)
                0x000021b4                Pendulum_DC_Motor_Quad_Dec_Start
 .text.Pendulum_DC_Motor_Quad_Dec_Cnt16_Enable
                0x000021d8       0x10 .\CortexM3\ARM_GCC_493\Debug\Ball.a(Pendulum_DC_Motor_Quad_Dec_Cnt16.o)
                0x000021d8                Pendulum_DC_Motor_Quad_Dec_Cnt16_Enable
 .text.Pendulum_DC_Motor_Quad_Dec_Cnt16_SetInterruptMode
                0x000021e8        0xc .\CortexM3\ARM_GCC_493\Debug\Ball.a(Pendulum_DC_Motor_Quad_Dec_Cnt16.o)
                0x000021e8                Pendulum_DC_Motor_Quad_Dec_Cnt16_SetInterruptMode
 .text.Pendulum_DC_Motor_Quad_Dec_Cnt16_ReadStatusRegister
                0x000021f4        0xc .\CortexM3\ARM_GCC_493\Debug\Ball.a(Pendulum_DC_Motor_Quad_Dec_Cnt16.o)
                0x000021f4                Pendulum_DC_Motor_Quad_Dec_Cnt16_ReadStatusRegister
 .text.Pendulum_DC_Motor_Quad_Dec_Cnt16_WriteCounter
                0x00002200        0xc .\CortexM3\ARM_GCC_493\Debug\Ball.a(Pendulum_DC_Motor_Quad_Dec_Cnt16.o)
                0x00002200                Pendulum_DC_Motor_Quad_Dec_Cnt16_WriteCounter
 .text.Pendulum_DC_Motor_Quad_Dec_Cnt16_ReadCounter
                0x0000220c       0x14 .\CortexM3\ARM_GCC_493\Debug\Ball.a(Pendulum_DC_Motor_Quad_Dec_Cnt16.o)
                0x0000220c                Pendulum_DC_Motor_Quad_Dec_Cnt16_ReadCounter
 .text.Pendulum_DC_Motor_Quad_Dec_Cnt16_ReadCapture
                0x00002220        0xc .\CortexM3\ARM_GCC_493\Debug\Ball.a(Pendulum_DC_Motor_Quad_Dec_Cnt16.o)
                0x00002220                Pendulum_DC_Motor_Quad_Dec_Cnt16_ReadCapture
 .text.Pendulum_DC_Motor_Quad_Dec_Cnt16_WritePeriod
                0x0000222c        0xc .\CortexM3\ARM_GCC_493\Debug\Ball.a(Pendulum_DC_Motor_Quad_Dec_Cnt16.o)
                0x0000222c                Pendulum_DC_Motor_Quad_Dec_Cnt16_WritePeriod
 .text.Pendulum_DC_Motor_Quad_Dec_Cnt16_WriteCompare
                0x00002238        0xc .\CortexM3\ARM_GCC_493\Debug\Ball.a(Pendulum_DC_Motor_Quad_Dec_Cnt16.o)
                0x00002238                Pendulum_DC_Motor_Quad_Dec_Cnt16_WriteCompare
 .text.Pendulum_DC_Motor_Quad_Dec_Cnt16_ClearFIFO
                0x00002244       0x14 .\CortexM3\ARM_GCC_493\Debug\Ball.a(Pendulum_DC_Motor_Quad_Dec_Cnt16.o)
                0x00002244                Pendulum_DC_Motor_Quad_Dec_Cnt16_ClearFIFO
 .text.Pendulum_DC_Motor_Quad_Dec_Cnt16_Init
                0x00002258       0x58 .\CortexM3\ARM_GCC_493\Debug\Ball.a(Pendulum_DC_Motor_Quad_Dec_Cnt16.o)
                0x00002258                Pendulum_DC_Motor_Quad_Dec_Cnt16_Init
 .text.Pendulum_DC_Motor_Quad_Dec_Cnt16_Start
                0x000022b0       0x1c .\CortexM3\ARM_GCC_493\Debug\Ball.a(Pendulum_DC_Motor_Quad_Dec_Cnt16.o)
                0x000022b0                Pendulum_DC_Motor_Quad_Dec_Cnt16_Start
 .text.Status_LED_Write
                0x000022cc       0x18 .\CortexM3\ARM_GCC_493\Debug\Ball.a(Status_LED.o)
                0x000022cc                Status_LED_Write
 .text.Head_Servo_PWM_Enable
                0x000022e4       0x10 .\CortexM3\ARM_GCC_493\Debug\Ball.a(Head_Servo_PWM.o)
                0x000022e4                Head_Servo_PWM_Enable
 .text.Head_Servo_PWM_WriteCounter
                0x000022f4        0xc .\CortexM3\ARM_GCC_493\Debug\Ball.a(Head_Servo_PWM.o)
                0x000022f4                Head_Servo_PWM_WriteCounter
 .text.Head_Servo_PWM_WritePeriod
                0x00002300        0xc .\CortexM3\ARM_GCC_493\Debug\Ball.a(Head_Servo_PWM.o)
                0x00002300                Head_Servo_PWM_WritePeriod
 .text.Head_Servo_PWM_WriteCompare
                0x0000230c        0xc .\CortexM3\ARM_GCC_493\Debug\Ball.a(Head_Servo_PWM.o)
                0x0000230c                Head_Servo_PWM_WriteCompare
 .text.Head_Servo_PWM_SetInterruptMode
                0x00002318        0xc .\CortexM3\ARM_GCC_493\Debug\Ball.a(Head_Servo_PWM.o)
                0x00002318                Head_Servo_PWM_SetInterruptMode
 .text.Head_Servo_PWM_ReadStatusRegister
                0x00002324        0xc .\CortexM3\ARM_GCC_493\Debug\Ball.a(Head_Servo_PWM.o)
                0x00002324                Head_Servo_PWM_ReadStatusRegister
 .text.Head_Servo_PWM_ReadCapture
                0x00002330        0xc .\CortexM3\ARM_GCC_493\Debug\Ball.a(Head_Servo_PWM.o)
                0x00002330                Head_Servo_PWM_ReadCapture
 .text.Head_Servo_PWM_ClearFIFO
                0x0000233c       0x14 .\CortexM3\ARM_GCC_493\Debug\Ball.a(Head_Servo_PWM.o)
                0x0000233c                Head_Servo_PWM_ClearFIFO
 .text.Head_Servo_PWM_Init
                0x00002350       0x64 .\CortexM3\ARM_GCC_493\Debug\Ball.a(Head_Servo_PWM.o)
                0x00002350                Head_Servo_PWM_Init
 .text.Head_Servo_PWM_Start
                0x000023b4       0x1c .\CortexM3\ARM_GCC_493\Debug\Ball.a(Head_Servo_PWM.o)
                0x000023b4                Head_Servo_PWM_Start
 .text.CySetReg24
                0x000023d0       0x14 .\CortexM3\ARM_GCC_493\Debug\Ball.a(cyutils.o)
                0x000023d0                CySetReg24
 .text.atan2    0x000023e4        0x4 c:/program files (x86)/cypress/psoc creator/3.3/psoc creator/import/gnu/arm/4.9.3/bin/../lib/gcc/arm-none-eabi/4.9.3/../../../../arm-none-eabi/lib/armv7-m\libm.a(lib_a-w_atan2.o)
                0x000023e4                atan2
 .text.__ieee754_atan2
                0x000023e8      0x1b8 c:/program files (x86)/cypress/psoc creator/3.3/psoc creator/import/gnu/arm/4.9.3/bin/../lib/gcc/arm-none-eabi/4.9.3/../../../../arm-none-eabi/lib/armv7-m\libm.a(lib_a-e_atan2.o)
                0x000023e8                __ieee754_atan2
 .text.atan     0x000025a0      0x338 c:/program files (x86)/cypress/psoc creator/3.3/psoc creator/import/gnu/arm/4.9.3/bin/../lib/gcc/arm-none-eabi/4.9.3/../../../../arm-none-eabi/lib/armv7-m\libm.a(lib_a-s_atan.o)
                0x000025a0                atan
 .text.fabs     0x000028d8        0x8 c:/program files (x86)/cypress/psoc creator/3.3/psoc creator/import/gnu/arm/4.9.3/bin/../lib/gcc/arm-none-eabi/4.9.3/../../../../arm-none-eabi/lib/armv7-m\libm.a(lib_a-s_fabs.o)
                0x000028d8                fabs
 .text          0x000028e0      0x370 c:/program files (x86)/cypress/psoc creator/3.3/psoc creator/import/gnu/arm/4.9.3/bin/../lib/gcc/arm-none-eabi/4.9.3/armv7-m\libgcc.a(_arm_addsubdf3.o)
                0x000028e0                __aeabi_drsub
                0x000028e8                __aeabi_dsub
                0x000028e8                __subdf3
                0x000028ec                __aeabi_dadd
                0x000028ec                __adddf3
                0x00002b64                __floatunsidf
                0x00002b64                __aeabi_ui2d
                0x00002b84                __floatsidf
                0x00002b84                __aeabi_i2d
                0x00002ba8                __aeabi_f2d
                0x00002ba8                __extendsfdf2
                0x00002be4                __floatundidf
                0x00002be4                __aeabi_ul2d
                0x00002bf4                __floatdidf
                0x00002bf4                __aeabi_l2d
 .text          0x00002c50      0x424 c:/program files (x86)/cypress/psoc creator/3.3/psoc creator/import/gnu/arm/4.9.3/bin/../lib/gcc/arm-none-eabi/4.9.3/armv7-m\libgcc.a(_arm_muldivdf3.o)
                0x00002c50                __aeabi_dmul
                0x00002c50                __muldf3
                0x00002ea4                __divdf3
                0x00002ea4                __aeabi_ddiv
 .text          0x00003074      0x110 c:/program files (x86)/cypress/psoc creator/3.3/psoc creator/import/gnu/arm/4.9.3/bin/../lib/gcc/arm-none-eabi/4.9.3/armv7-m\libgcc.a(_arm_cmpdf2.o)
                0x00003074                __gtdf2
                0x00003074                __gedf2
                0x0000307c                __ltdf2
                0x0000307c                __ledf2
                0x00003084                __nedf2
                0x00003084                __eqdf2
                0x00003084                __cmpdf2
                0x00003100                __aeabi_cdrcmple
                0x00003110                __aeabi_cdcmpeq
                0x00003110                __aeabi_cdcmple
                0x00003120                __aeabi_dcmpeq
                0x00003134                __aeabi_dcmplt
                0x00003148                __aeabi_dcmple
                0x0000315c                __aeabi_dcmpge
                0x00003170                __aeabi_dcmpgt
 .text          0x00003184       0x50 c:/program files (x86)/cypress/psoc creator/3.3/psoc creator/import/gnu/arm/4.9.3/bin/../lib/gcc/arm-none-eabi/4.9.3/armv7-m\libgcc.a(_arm_fixdfsi.o)
                0x00003184                __aeabi_d2iz
                0x00003184                __fixdfsi
 .text          0x000031d4       0xa0 c:/program files (x86)/cypress/psoc creator/3.3/psoc creator/import/gnu/arm/4.9.3/bin/../lib/gcc/arm-none-eabi/4.9.3/armv7-m\libgcc.a(_arm_truncdfsf2.o)
                0x000031d4                __truncdfsf2
                0x000031d4                __aeabi_d2f
 .text          0x00003274      0x21c c:/program files (x86)/cypress/psoc creator/3.3/psoc creator/import/gnu/arm/4.9.3/bin/../lib/gcc/arm-none-eabi/4.9.3/armv7-m\libgcc.a(_arm_addsubsf3.o)
                0x00003274                __aeabi_frsub
                0x0000327c                __subsf3
                0x0000327c                __aeabi_fsub
                0x00003280                __aeabi_fadd
                0x00003280                __addsf3
                0x000033e0                __aeabi_ui2f
                0x000033e0                __floatunsisf
                0x000033e8                __aeabi_i2f
                0x000033e8                __floatsisf
                0x00003404                __aeabi_ul2f
                0x00003404                __floatundisf
                0x00003414                __aeabi_l2f
                0x00003414                __floatdisf
 .text          0x00003490      0x2a0 c:/program files (x86)/cypress/psoc creator/3.3/psoc creator/import/gnu/arm/4.9.3/bin/../lib/gcc/arm-none-eabi/4.9.3/armv7-m\libgcc.a(_arm_muldivsf3.o)
                0x00003490                __mulsf3
                0x00003490                __aeabi_fmul
                0x000035f8                __aeabi_fdiv
                0x000035f8                __divsf3
 .text          0x00003730       0xec c:/program files (x86)/cypress/psoc creator/3.3/psoc creator/import/gnu/arm/4.9.3/bin/../lib/gcc/arm-none-eabi/4.9.3/armv7-m\libgcc.a(_arm_cmpsf2.o)
                0x00003730                __gesf2
                0x00003730                __gtsf2
                0x00003738                __lesf2
                0x00003738                __ltsf2
                0x00003740                __nesf2
                0x00003740                __eqsf2
                0x00003740                __cmpsf2
                0x000037a0                __aeabi_cfrcmple
                0x000037a8                __aeabi_cfcmpeq
                0x000037a8                __aeabi_cfcmple
                0x000037b8                __aeabi_fcmpeq
                0x000037cc                __aeabi_fcmplt
                0x000037e0                __aeabi_fcmple
                0x000037f4                __aeabi_fcmpge
                0x00003808                __aeabi_fcmpgt
 .text          0x0000381c       0x4c c:/program files (x86)/cypress/psoc creator/3.3/psoc creator/import/gnu/arm/4.9.3/bin/../lib/gcc/arm-none-eabi/4.9.3/armv7-m\libgcc.a(_arm_fixsfsi.o)
                0x0000381c                __aeabi_f2iz
                0x0000381c                __fixsfsi
 .text.__libc_init_array
                0x00003868       0x4c c:/program files (x86)/cypress/psoc creator/3.3/psoc creator/import/gnu/arm/4.9.3/bin/../lib/gcc/arm-none-eabi/4.9.3/../../../../arm-none-eabi/lib/armv7-m\libg_nano.a(lib_a-init.o)
                0x00003868                __libc_init_array
 .text.memcpy   0x000038b4       0x16 c:/program files (x86)/cypress/psoc creator/3.3/psoc creator/import/gnu/arm/4.9.3/bin/../lib/gcc/arm-none-eabi/4.9.3/../../../../arm-none-eabi/lib/armv7-m\libg_nano.a(lib_a-memcpy.o)
                0x000038b4                memcpy
 .text.memset   0x000038ca       0x10 c:/program files (x86)/cypress/psoc creator/3.3/psoc creator/import/gnu/arm/4.9.3/bin/../lib/gcc/arm-none-eabi/4.9.3/../../../../arm-none-eabi/lib/armv7-m\libg_nano.a(lib_a-memset.o)
                0x000038ca                memset
 *(.plt)
 *(.gnu.warning)
 *(.glue_7t)
 .glue_7t       0x00000000        0x0 linker stubs
 *(.glue_7)
 .glue_7        0x00000000        0x0 linker stubs
 *(.vfp11_veneer)
 .vfp11_veneer  0x00000000        0x0 linker stubs
 *(.bootloader)
 *(.ARM.extab* .gnu.linkonce.armextab.*)
 *(.gcc_except_table)

.v4_bx          0x000038dc        0x0
 .v4_bx         0x00000000        0x0 linker stubs

.iplt           0x000038dc        0x0
 .iplt          0x00000000        0x0 c:/program files (x86)/cypress/psoc creator/3.3/psoc creator/import/gnu/arm/4.9.3/bin/../lib/gcc/arm-none-eabi/4.9.3/armv7-m/crtbegin.o

.eh_frame_hdr
 *(.eh_frame_hdr)

.eh_frame       0x000038dc        0x4
 *(.eh_frame)
 .eh_frame      0x000038dc        0x0 c:/program files (x86)/cypress/psoc creator/3.3/psoc creator/import/gnu/arm/4.9.3/bin/../lib/gcc/arm-none-eabi/4.9.3/armv7-m/crtbegin.o
 .eh_frame      0x000038dc        0x4 c:/program files (x86)/cypress/psoc creator/3.3/psoc creator/import/gnu/arm/4.9.3/bin/../lib/gcc/arm-none-eabi/4.9.3/armv7-m/crtend.o
                0x000038e0                PROVIDE (__exidx_start, .)

.ARM.exidx
 *(.ARM.exidx* .gnu.linkonce.armexidx.*)
                0x000038e0                __exidx_end = .

.rodata         0x000038e0       0xf8
 *(.rodata .rodata.* .gnu.linkonce.r.*)
 .rodata        0x000038e0       0x24 .\CortexM3\ARM_GCC_493\Debug\rc_ch.o
                0x000038e0                RC_CH1_MIN_VALUE
                0x000038e4                RC_MIN_VALUE
                0x000038e8                RC_MAX_VALUE
                0x000038ec                RC_CONNECTION_TIMEOUT
                0x000038f0                RC_TIMER_MID_TOLERANCE
                0x000038f4                RC_TIMER_MIN_VALUE
                0x000038f8                RC_TIMER_MID_VALUE
                0x000038fc                RC_TIMER_MAX_VALUE
                0x00003900                RC_TIMER_PERIOD
 .rodata        0x00003904        0x8 .\CortexM3\ARM_GCC_493\Debug\imu.o
                0x00003904                IMU_TILT_TOLERANCE
                0x00003908                IMU_SCALE
 .rodata        0x0000390c       0x50 .\CortexM3\ARM_GCC_493\Debug\Ball.a(cyfitter_cfg.o)
 *fill*         0x0000395c        0x4 
 .rodata.atanlo
                0x00003960       0x20 c:/program files (x86)/cypress/psoc creator/3.3/psoc creator/import/gnu/arm/4.9.3/bin/../lib/gcc/arm-none-eabi/4.9.3/../../../../arm-none-eabi/lib/armv7-m\libm.a(lib_a-s_atan.o)
 .rodata.atanhi
                0x00003980       0x20 c:/program files (x86)/cypress/psoc creator/3.3/psoc creator/import/gnu/arm/4.9.3/bin/../lib/gcc/arm-none-eabi/4.9.3/../../../../arm-none-eabi/lib/armv7-m\libm.a(lib_a-s_atan.o)
                0x000039a0                . = ALIGN (0x4)
 *(.init)
 .init          0x000039a0        0x4 c:/program files (x86)/cypress/psoc creator/3.3/psoc creator/import/gnu/arm/4.9.3/bin/../lib/gcc/arm-none-eabi/4.9.3/armv7-m/crti.o
                0x000039a0                _init
 .init          0x000039a4        0x8 c:/program files (x86)/cypress/psoc creator/3.3/psoc creator/import/gnu/arm/4.9.3/bin/../lib/gcc/arm-none-eabi/4.9.3/armv7-m/crtn.o
                0x000039ac                . = ALIGN (0x4)
                0x000039ac                __preinit_array_start = .
 *(.preinit_array)
                0x000039ac                __preinit_array_end = .
                0x000039ac                . = ALIGN (0x4)
                0x000039ac                __init_array_start = .
 *(SORT(.init_array.*))
 *(.init_array)
 .init_array    0x000039ac        0x4 c:/program files (x86)/cypress/psoc creator/3.3/psoc creator/import/gnu/arm/4.9.3/bin/../lib/gcc/arm-none-eabi/4.9.3/armv7-m/crtbegin.o
 .init_array    0x000039b0        0x4 .\CortexM3\ARM_GCC_493\Debug\Cm3Start.o
                0x000039b4                __init_array_end = .
                0x000039b4                . = ALIGN (0x4)
 *(.fini)
 .fini          0x000039b4        0x4 c:/program files (x86)/cypress/psoc creator/3.3/psoc creator/import/gnu/arm/4.9.3/bin/../lib/gcc/arm-none-eabi/4.9.3/armv7-m/crti.o
                0x000039b4                _fini
 .fini          0x000039b8        0x8 c:/program files (x86)/cypress/psoc creator/3.3/psoc creator/import/gnu/arm/4.9.3/bin/../lib/gcc/arm-none-eabi/4.9.3/armv7-m/crtn.o
                0x000039c0                . = ALIGN (0x4)
                0x000039c0                __fini_array_start = .
 *(.fini_array)
 .fini_array    0x000039c0        0x4 c:/program files (x86)/cypress/psoc creator/3.3/psoc creator/import/gnu/arm/4.9.3/bin/../lib/gcc/arm-none-eabi/4.9.3/armv7-m/crtbegin.o
 *(SORT(.fini_array.*))
                0x000039c4                __fini_array_end = .
                0x000039c4                . = ALIGN (0x4)
 *crtbegin.o(.ctors)
 *(EXCLUDE_FILE(*crtend.o) .ctors)
 *(SORT(.ctors.*))
 *crtend.o(.ctors)
                0x000039c4                . = ALIGN (0x4)
 *crtbegin.o(.dtors)
 *(EXCLUDE_FILE(*crtend.o) .dtors)
 *(SORT(.dtors.*))
 *crtend.o(.dtors)
                0x000039c4                . = ALIGN (0x4)
                0x000039c4                __cy_regions = .
                0x000039c4        0x4 LONG 0x39d8 __cy_region_init_ram
                0x000039c8        0x4 LONG 0x1fff8108 __cy_region_start_data
                0x000039cc        0x4 LONG 0x8 __cy_region_init_size_ram
                0x000039d0        0x4 LONG 0x80 __cy_region_zero_size_ram
                0x000039d4                __cy_regions_end = .
                0x000039d8                . = ALIGN (0x8)
 *fill*         0x000039d4        0x4 
                0x000039d8                _etext = .

.cy_checksum_exclude
                0x000039d8        0x0
 *(.cy_checksum_exclude)

.ramvectors     0x1fff8000      0x100
                0x1fff8000                __cy_region_start_ram = .
 *(.ramvectors)
 .ramvectors    0x1fff8000      0x100 .\CortexM3\ARM_GCC_493\Debug\Cm3Start.o
                0x1fff8000                CyRamVectors

.noinit         0x1fff8100        0x5
 *(.noinit)
 .noinit        0x1fff8100        0x4 .\CortexM3\ARM_GCC_493\Debug\Cm3Start.o
 .noinit        0x1fff8104        0x1 .\CortexM3\ARM_GCC_493\Debug\Ball.a(CyLib.o)
                0x1fff8104                CyResetStatus

.data           0x1fff8108        0x8 load address 0x000039d8
                0x1fff8108                __cy_region_start_data = .
 *(.jcr)
 .jcr           0x1fff8108        0x0 c:/program files (x86)/cypress/psoc creator/3.3/psoc creator/import/gnu/arm/4.9.3/bin/../lib/gcc/arm-none-eabi/4.9.3/armv7-m/crtbegin.o
 .jcr           0x1fff8108        0x4 c:/program files (x86)/cypress/psoc creator/3.3/psoc creator/import/gnu/arm/4.9.3/bin/../lib/gcc/arm-none-eabi/4.9.3/armv7-m/crtend.o
 *(.got.plt)
 *(.got)
 *(.shdata)
 *(.data .data.* .gnu.linkonce.d.*)
                0x1fff8110                . = ALIGN (0x8)
 *fill*         0x1fff810c        0x4 
 *(.ram)
                0x1fff8110                _edata = .

.igot.plt       0x1fff8110        0x0 load address 0x000039e0
 .igot.plt      0x00000000        0x0 c:/program files (x86)/cypress/psoc creator/3.3/psoc creator/import/gnu/arm/4.9.3/bin/../lib/gcc/arm-none-eabi/4.9.3/armv7-m/crtbegin.o

.bss            0x1fff8110       0x80 load address 0x000039e0
                0x1fff8110                PROVIDE (__bss_start__, .)
 *(.shbss)
 *(.bss .bss.* .gnu.linkonce.b.*)
 .bss           0x1fff8110       0x1c c:/program files (x86)/cypress/psoc creator/3.3/psoc creator/import/gnu/arm/4.9.3/bin/../lib/gcc/arm-none-eabi/4.9.3/armv7-m/crtbegin.o
 .bss           0x1fff812c       0x20 .\CortexM3\ARM_GCC_493\Debug\rc_ch.o
 .bss           0x1fff814c        0x1 .\CortexM3\ARM_GCC_493\Debug\Ball.a(RC_Ch2_Timer.o)
                0x1fff814c                RC_Ch2_Timer_initVar
 .bss           0x1fff814d        0x1 .\CortexM3\ARM_GCC_493\Debug\Ball.a(RC_Ch1_Timer.o)
                0x1fff814d                RC_Ch1_Timer_initVar
 .bss           0x1fff814e        0x1 .\CortexM3\ARM_GCC_493\Debug\Ball.a(RC_Ch4_Timer.o)
                0x1fff814e                RC_Ch4_Timer_initVar
 .bss           0x1fff814f        0x1 .\CortexM3\ARM_GCC_493\Debug\Ball.a(RC_Ch3_Timer.o)
                0x1fff814f                RC_Ch3_Timer_initVar
 .bss           0x1fff8150        0x1 .\CortexM3\ARM_GCC_493\Debug\Ball.a(Drive_DC_Motor_PWM.o)
                0x1fff8150                Drive_DC_Motor_PWM_initVar
 .bss           0x1fff8151        0x1 .\CortexM3\ARM_GCC_493\Debug\Ball.a(Pendulum_DC_Motor_PWM.o)
                0x1fff8151                Pendulum_DC_Motor_PWM_initVar
 .bss           0x1fff8152        0x1 .\CortexM3\ARM_GCC_493\Debug\Ball.a(Flywheel_DC_Motor_PWM.o)
                0x1fff8152                Flywheel_DC_Motor_PWM_initVar
 .bss           0x1fff8153        0x1 .\CortexM3\ARM_GCC_493\Debug\Ball.a(MPU6050_I2C.o)
                0x1fff8153                MPU6050_I2C_initVar
 .bss           0x1fff8154        0x1 .\CortexM3\ARM_GCC_493\Debug\Ball.a(Drive_DC_Motor_Quad_Dec.o)
                0x1fff8154                Drive_DC_Motor_Quad_Dec_initVar
 .bss           0x1fff8155        0x1 .\CortexM3\ARM_GCC_493\Debug\Ball.a(Drive_DC_Motor_Quad_Dec_Cnt16.o)
                0x1fff8155                Drive_DC_Motor_Quad_Dec_Cnt16_initVar
 .bss           0x1fff8156        0x1 .\CortexM3\ARM_GCC_493\Debug\Ball.a(Pendulum_DC_Motor_Quad_Dec.o)
                0x1fff8156                Pendulum_DC_Motor_Quad_Dec_initVar
 .bss           0x1fff8157        0x1 .\CortexM3\ARM_GCC_493\Debug\Ball.a(Pendulum_DC_Motor_Quad_Dec_Cnt16.o)
                0x1fff8157                Pendulum_DC_Motor_Quad_Dec_Cnt16_initVar
 .bss           0x1fff8158        0x1 .\CortexM3\ARM_GCC_493\Debug\Ball.a(Head_Servo_PWM.o)
                0x1fff8158                Head_Servo_PWM_initVar
 *(COMMON)
 *fill*         0x1fff8159        0x3 
 COMMON         0x1fff815c        0xc .\CortexM3\ARM_GCC_493\Debug\milliseconds.o
                0x1fff815c                ms
                0x1fff815e                seconds
                0x1fff8160                MILLISECONDS
                0x1fff8164                minutes
                0x1fff8166                hours
 COMMON         0x1fff8168       0x17 .\CortexM3\ARM_GCC_493\Debug\mpu6050.o
                0x1fff8168                buffer
                0x1fff817e                devAddr
 COMMON         0x1fff817f        0x1 .\CortexM3\ARM_GCC_493\Debug\Ball.a(MPU6050_I2C.o)
                0x1fff817f                MPU6050_I2C_state
 COMMON         0x1fff8180        0xf .\CortexM3\ARM_GCC_493\Debug\Ball.a(MPU6050_I2C_MASTER.o)
                0x1fff8180                MPU6050_I2C_mstrWrBufPtr
                0x1fff8184                MPU6050_I2C_mstrRdBufSize
                0x1fff8185                MPU6050_I2C_mstrWrBufIndex
                0x1fff8186                MPU6050_I2C_mstrStatus
                0x1fff8188                MPU6050_I2C_mstrRdBufPtr
                0x1fff818c                MPU6050_I2C_mstrRdBufIndex
                0x1fff818d                MPU6050_I2C_mstrWrBufSize
                0x1fff818e                MPU6050_I2C_mstrControl
                0x1fff8190                . = ALIGN (0x8)
 *fill*         0x1fff818f        0x1 
 *(.ram.b)
                0x1fff8190                _end = .
                0x1fff8190                __end = .
                0x1fff8190                PROVIDE (end, .)
                0x1fff8190                PROVIDE (__bss_end__, .)
                0x000039d8                __cy_region_init_ram = LOADADDR (.data)
                0x00000008                __cy_region_init_size_ram = (_edata - ADDR (.data))
                0x00000080                __cy_region_zero_size_ram = (_end - _edata)

.heap           0x1fff8190       0x80 load address 0x000039e0
                0x1fff8190                . = _end
                0x1fff8210                . = (. + 0x80)
 *fill*         0x1fff8190       0x80 
                0x1fff8210                __cy_heap_limit = .

.stack          0x20007800      0x800
                0x20007800                __cy_stack_limit = .
                0x20008000                . = (. + 0x800)
 *fill*         0x20007800      0x800 
                0x00000001                ASSERT ((__cy_stack_limit >= __cy_heap_limit), region RAM overflowed with stack)
                0x00000000                cy_checksum_exclude_size = (CY_APPL_LOADABLE == 0x1)?SIZEOF (.cy_checksum_exclude):0x0
                0x00000001                ASSERT ((cy_checksum_exclude_size <= CY_CHECKSUM_EXCLUDE_SIZE), CY_BOOT: Section .cy_checksum_exclude size exceedes specified limit.)

.cyloadermeta
 *(.cyloadermeta)

.cyloadablemeta
 *(.cyloadablemeta)

.cyconfigecc    0x80000000     0x1164
 *(.cyconfigecc)
 .cyconfigecc   0x80000000     0x1164 .\CortexM3\ARM_GCC_493\Debug\cymetadata.o
                0x80000000                cy_meta_configecc

.cycustnvl      0x90000000        0x4
 *(.cycustnvl)
 .cycustnvl     0x90000000        0x4 .\CortexM3\ARM_GCC_493\Debug\cymetadata.o
                0x90000000                cy_meta_custnvl

.cywolatch      0x90100000        0x4
 *(.cywolatch)
 .cywolatch     0x90100000        0x4 .\CortexM3\ARM_GCC_493\Debug\cymetadata.o
                0x90100000                cy_meta_wonvl

.cyeeprom       0x90200000        0x0
 *(.cyeeprom)
                0x00000001                ASSERT ((. <= ((0x90200000 + ee_offset) + ee_size)), .cyeeprom data will not fit in EEPROM)

.cyflashprotect
                0x90400000      0x100
 *(.cyflashprotect)
 .cyflashprotect
                0x90400000      0x100 .\CortexM3\ARM_GCC_493\Debug\cymetadata.o
                0x90400000                cy_meta_flashprotect

.cymeta         0x90500000        0xc
 *(.cymeta)
 .cymeta        0x90500000        0xc .\CortexM3\ARM_GCC_493\Debug\cymetadata.o
                0x90500000                cy_metadata

.rel.dyn        0x000039e0        0x0 load address 0x9050000c
 .rel.iplt      0x00000000        0x0 c:/program files (x86)/cypress/psoc creator/3.3/psoc creator/import/gnu/arm/4.9.3/bin/../lib/gcc/arm-none-eabi/4.9.3/armv7-m/crtbegin.o

.stab
 *(.stab)

.stabstr
 *(.stabstr)

.debug
 *(.debug)

.line
 *(.line)

.debug_srcinfo
 *(.debug_srcinfo)

.debug_sfnames
 *(.debug_sfnames)

.debug_aranges  0x00000000     0x1af8
 *(.debug_aranges)
 .debug_aranges
                0x00000000       0x20 .\CortexM3\ARM_GCC_493\Debug\main.o
 .debug_aranges
                0x00000020       0x28 .\CortexM3\ARM_GCC_493\Debug\milliseconds.o
 .debug_aranges
                0x00000048       0x50 .\CortexM3\ARM_GCC_493\Debug\rc_ch.o
 .debug_aranges
                0x00000098       0x48 .\CortexM3\ARM_GCC_493\Debug\dc_motor.o
 .debug_aranges
                0x000000e0      0x838 .\CortexM3\ARM_GCC_493\Debug\mpu6050.o
 .debug_aranges
                0x00000918       0x60 .\CortexM3\ARM_GCC_493\Debug\i2cFunctions.o
 .debug_aranges
                0x00000978       0x30 .\CortexM3\ARM_GCC_493\Debug\imu.o
 .debug_aranges
                0x000009a8       0x38 .\CortexM3\ARM_GCC_493\Debug\pid.o
 .debug_aranges
                0x000009e0       0x30 .\CortexM3\ARM_GCC_493\Debug\servo.o
 .debug_aranges
                0x00000a10       0x18 .\CortexM3\ARM_GCC_493\Debug\cymetadata.o
 .debug_aranges
                0x00000a28       0x48 .\CortexM3\ARM_GCC_493\Debug\Cm3Start.o
 .debug_aranges
                0x00000a70       0x58 .\CortexM3\ARM_GCC_493\Debug\Ball.a(cyfitter_cfg.o)
 .debug_aranges
                0x00000ac8       0x20 .\CortexM3\ARM_GCC_493\Debug\Ball.a(CyBootAsmGnu.o)
 .debug_aranges
                0x00000ae8      0x298 .\CortexM3\ARM_GCC_493\Debug\Ball.a(CyLib.o)
 .debug_aranges
                0x00000d80       0x98 .\CortexM3\ARM_GCC_493\Debug\Ball.a(cyPm.o)
 .debug_aranges
                0x00000e18       0xa8 .\CortexM3\ARM_GCC_493\Debug\Ball.a(RC_Ch2_Timer.o)
 .debug_aranges
                0x00000ec0       0x80 .\CortexM3\ARM_GCC_493\Debug\Ball.a(RC_Ch2_Timer_Interrupt.o)
 .debug_aranges
                0x00000f40       0x80 .\CortexM3\ARM_GCC_493\Debug\Ball.a(Clock_Millis_Interrupt.o)
 .debug_aranges
                0x00000fc0       0x38 .\CortexM3\ARM_GCC_493\Debug\Ball.a(RC_Ch1.o)
 .debug_aranges
                0x00000ff8       0xa8 .\CortexM3\ARM_GCC_493\Debug\Ball.a(RC_Ch1_Timer.o)
 .debug_aranges
                0x000010a0       0x38 .\CortexM3\ARM_GCC_493\Debug\Ball.a(RC_Ch2.o)
 .debug_aranges
                0x000010d8       0x80 .\CortexM3\ARM_GCC_493\Debug\Ball.a(RC_Ch1_Timer_Interrupt.o)
 .debug_aranges
                0x00001158       0xa8 .\CortexM3\ARM_GCC_493\Debug\Ball.a(RC_Ch4_Timer.o)
 .debug_aranges
                0x00001200       0x38 .\CortexM3\ARM_GCC_493\Debug\Ball.a(RC_Ch4.o)
 .debug_aranges
                0x00001238       0x80 .\CortexM3\ARM_GCC_493\Debug\Ball.a(RC_Ch4_Timer_Interrupt.o)
 .debug_aranges
                0x000012b8       0xa8 .\CortexM3\ARM_GCC_493\Debug\Ball.a(RC_Ch3_Timer.o)
 .debug_aranges
                0x00001360       0x38 .\CortexM3\ARM_GCC_493\Debug\Ball.a(RC_Ch3.o)
 .debug_aranges
                0x00001398       0x80 .\CortexM3\ARM_GCC_493\Debug\Ball.a(RC_Ch3_Timer_Interrupt.o)
 .debug_aranges
                0x00001418       0xa8 .\CortexM3\ARM_GCC_493\Debug\Ball.a(Drive_DC_Motor_PWM.o)
 .debug_aranges
                0x000014c0       0xa8 .\CortexM3\ARM_GCC_493\Debug\Ball.a(Pendulum_DC_Motor_PWM.o)
 .debug_aranges
                0x00001568       0xa8 .\CortexM3\ARM_GCC_493\Debug\Ball.a(Flywheel_DC_Motor_PWM.o)
 .debug_aranges
                0x00001610       0x38 .\CortexM3\ARM_GCC_493\Debug\Ball.a(MPU6050_I2C.o)
 .debug_aranges
                0x00001648       0x20 .\CortexM3\ARM_GCC_493\Debug\Ball.a(MPU6050_I2C_INT.o)
 .debug_aranges
                0x00001668       0x38 .\CortexM3\ARM_GCC_493\Debug\Ball.a(MPU6050_I2C_PM.o)
 .debug_aranges
                0x000016a0       0x80 .\CortexM3\ARM_GCC_493\Debug\Ball.a(MPU6050_I2C_MASTER.o)
 .debug_aranges
                0x00001720       0x60 .\CortexM3\ARM_GCC_493\Debug\Ball.a(Drive_DC_Motor_Quad_Dec.o)
 .debug_aranges
                0x00001780       0x98 .\CortexM3\ARM_GCC_493\Debug\Ball.a(Drive_DC_Motor_Quad_Dec_Cnt16.o)
 .debug_aranges
                0x00001818       0x60 .\CortexM3\ARM_GCC_493\Debug\Ball.a(Pendulum_DC_Motor_Quad_Dec.o)
 .debug_aranges
                0x00001878       0x98 .\CortexM3\ARM_GCC_493\Debug\Ball.a(Pendulum_DC_Motor_Quad_Dec_Cnt16.o)
 .debug_aranges
                0x00001910       0x38 .\CortexM3\ARM_GCC_493\Debug\Ball.a(Status_LED.o)
 .debug_aranges
                0x00001948       0x98 .\CortexM3\ARM_GCC_493\Debug\Ball.a(Head_Servo_PWM.o)
 .debug_aranges
                0x000019e0       0x80 .\CortexM3\ARM_GCC_493\Debug\Ball.a(CyFlash.o)
 .debug_aranges
                0x00001a60       0x78 .\CortexM3\ARM_GCC_493\Debug\Ball.a(CySpc.o)
 .debug_aranges
                0x00001ad8       0x20 .\CortexM3\ARM_GCC_493\Debug\Ball.a(cyutils.o)

.debug_pubnames
 *(.debug_pubnames)

.debug_info     0x00000000     0xe5b6
 *(.debug_info .gnu.linkonce.wi.*)
 .debug_info    0x00000000      0xc21 .\CortexM3\ARM_GCC_493\Debug\main.o
 .debug_info    0x00000c21      0x17f .\CortexM3\ARM_GCC_493\Debug\milliseconds.o
 .debug_info    0x00000da0      0x68d .\CortexM3\ARM_GCC_493\Debug\rc_ch.o
 .debug_info    0x0000142d      0x749 .\CortexM3\ARM_GCC_493\Debug\dc_motor.o
 .debug_info    0x00001b76     0x4001 .\CortexM3\ARM_GCC_493\Debug\mpu6050.o
 .debug_info    0x00005b77      0x5eb .\CortexM3\ARM_GCC_493\Debug\i2cFunctions.o
 .debug_info    0x00006162      0x3ba .\CortexM3\ARM_GCC_493\Debug\imu.o
 .debug_info    0x0000651c      0x2d7 .\CortexM3\ARM_GCC_493\Debug\pid.o
 .debug_info    0x000067f3      0x1f7 .\CortexM3\ARM_GCC_493\Debug\servo.o
 .debug_info    0x000069ea      0x13f .\CortexM3\ARM_GCC_493\Debug\cymetadata.o
 .debug_info    0x00006b29      0x39f .\CortexM3\ARM_GCC_493\Debug\Cm3Start.o
 .debug_info    0x00006ec8      0x5fc .\CortexM3\ARM_GCC_493\Debug\Ball.a(cyfitter_cfg.o)
 .debug_info    0x000074c4       0xe3 .\CortexM3\ARM_GCC_493\Debug\Ball.a(CyBootAsmGnu.o)
 .debug_info    0x000075a7     0x136f .\CortexM3\ARM_GCC_493\Debug\Ball.a(CyLib.o)
 .debug_info    0x00008916      0xa57 .\CortexM3\ARM_GCC_493\Debug\Ball.a(cyPm.o)
 .debug_info    0x0000936d      0x3a5 .\CortexM3\ARM_GCC_493\Debug\Ball.a(RC_Ch2_Timer.o)
 .debug_info    0x00009712      0x2cb .\CortexM3\ARM_GCC_493\Debug\Ball.a(RC_Ch2_Timer_Interrupt.o)
 .debug_info    0x000099dd      0x2cb .\CortexM3\ARM_GCC_493\Debug\Ball.a(Clock_Millis_Interrupt.o)
 .debug_info    0x00009ca8      0x11f .\CortexM3\ARM_GCC_493\Debug\Ball.a(RC_Ch1.o)
 .debug_info    0x00009dc7      0x3a5 .\CortexM3\ARM_GCC_493\Debug\Ball.a(RC_Ch1_Timer.o)
 .debug_info    0x0000a16c      0x11f .\CortexM3\ARM_GCC_493\Debug\Ball.a(RC_Ch2.o)
 .debug_info    0x0000a28b      0x2cb .\CortexM3\ARM_GCC_493\Debug\Ball.a(RC_Ch1_Timer_Interrupt.o)
 .debug_info    0x0000a556      0x3a5 .\CortexM3\ARM_GCC_493\Debug\Ball.a(RC_Ch4_Timer.o)
 .debug_info    0x0000a8fb      0x11f .\CortexM3\ARM_GCC_493\Debug\Ball.a(RC_Ch4.o)
 .debug_info    0x0000aa1a      0x2cb .\CortexM3\ARM_GCC_493\Debug\Ball.a(RC_Ch4_Timer_Interrupt.o)
 .debug_info    0x0000ace5      0x3a5 .\CortexM3\ARM_GCC_493\Debug\Ball.a(RC_Ch3_Timer.o)
 .debug_info    0x0000b08a      0x11f .\CortexM3\ARM_GCC_493\Debug\Ball.a(RC_Ch3.o)
 .debug_info    0x0000b1a9      0x2cb .\CortexM3\ARM_GCC_493\Debug\Ball.a(RC_Ch3_Timer_Interrupt.o)
 .debug_info    0x0000b474      0x37c .\CortexM3\ARM_GCC_493\Debug\Ball.a(Drive_DC_Motor_PWM.o)
 .debug_info    0x0000b7f0      0x37c .\CortexM3\ARM_GCC_493\Debug\Ball.a(Pendulum_DC_Motor_PWM.o)
 .debug_info    0x0000bb6c      0x37c .\CortexM3\ARM_GCC_493\Debug\Ball.a(Flywheel_DC_Motor_PWM.o)
 .debug_info    0x0000bee8      0x2db .\CortexM3\ARM_GCC_493\Debug\Ball.a(MPU6050_I2C.o)
 .debug_info    0x0000c1c3      0x17f .\CortexM3\ARM_GCC_493\Debug\Ball.a(MPU6050_I2C_INT.o)
 .debug_info    0x0000c342      0x1fe .\CortexM3\ARM_GCC_493\Debug\Ball.a(MPU6050_I2C_PM.o)
 .debug_info    0x0000c540      0x400 .\CortexM3\ARM_GCC_493\Debug\Ball.a(MPU6050_I2C_MASTER.o)
 .debug_info    0x0000c940      0x2d1 .\CortexM3\ARM_GCC_493\Debug\Ball.a(Drive_DC_Motor_Quad_Dec.o)
 .debug_info    0x0000cc11      0x343 .\CortexM3\ARM_GCC_493\Debug\Ball.a(Drive_DC_Motor_Quad_Dec_Cnt16.o)
 .debug_info    0x0000cf54      0x2d1 .\CortexM3\ARM_GCC_493\Debug\Ball.a(Pendulum_DC_Motor_Quad_Dec.o)
 .debug_info    0x0000d225      0x343 .\CortexM3\ARM_GCC_493\Debug\Ball.a(Pendulum_DC_Motor_Quad_Dec_Cnt16.o)
 .debug_info    0x0000d568      0x11f .\CortexM3\ARM_GCC_493\Debug\Ball.a(Status_LED.o)
 .debug_info    0x0000d687      0x34f .\CortexM3\ARM_GCC_493\Debug\Ball.a(Head_Servo_PWM.o)
 .debug_info    0x0000d9d6      0x608 .\CortexM3\ARM_GCC_493\Debug\Ball.a(CyFlash.o)
 .debug_info    0x0000dfde      0x4ea .\CortexM3\ARM_GCC_493\Debug\Ball.a(CySpc.o)
 .debug_info    0x0000e4c8       0xee .\CortexM3\ARM_GCC_493\Debug\Ball.a(cyutils.o)

.debug_abbrev   0x00000000     0x3a91
 *(.debug_abbrev)
 .debug_abbrev  0x00000000      0x1e5 .\CortexM3\ARM_GCC_493\Debug\main.o
 .debug_abbrev  0x000001e5       0xed .\CortexM3\ARM_GCC_493\Debug\milliseconds.o
 .debug_abbrev  0x000002d2      0x1c0 .\CortexM3\ARM_GCC_493\Debug\rc_ch.o
 .debug_abbrev  0x00000492      0x20b .\CortexM3\ARM_GCC_493\Debug\dc_motor.o
 .debug_abbrev  0x0000069d      0x1e1 .\CortexM3\ARM_GCC_493\Debug\mpu6050.o
 .debug_abbrev  0x0000087e      0x155 .\CortexM3\ARM_GCC_493\Debug\i2cFunctions.o
 .debug_abbrev  0x000009d3      0x1f4 .\CortexM3\ARM_GCC_493\Debug\imu.o
 .debug_abbrev  0x00000bc7      0x13d .\CortexM3\ARM_GCC_493\Debug\pid.o
 .debug_abbrev  0x00000d04      0x150 .\CortexM3\ARM_GCC_493\Debug\servo.o
 .debug_abbrev  0x00000e54       0x77 .\CortexM3\ARM_GCC_493\Debug\cymetadata.o
 .debug_abbrev  0x00000ecb      0x200 .\CortexM3\ARM_GCC_493\Debug\Cm3Start.o
 .debug_abbrev  0x000010cb      0x212 .\CortexM3\ARM_GCC_493\Debug\Ball.a(cyfitter_cfg.o)
 .debug_abbrev  0x000012dd       0x14 .\CortexM3\ARM_GCC_493\Debug\Ball.a(CyBootAsmGnu.o)
 .debug_abbrev  0x000012f1      0x296 .\CortexM3\ARM_GCC_493\Debug\Ball.a(CyLib.o)
 .debug_abbrev  0x00001587      0x1ed .\CortexM3\ARM_GCC_493\Debug\Ball.a(cyPm.o)
 .debug_abbrev  0x00001774      0x170 .\CortexM3\ARM_GCC_493\Debug\Ball.a(RC_Ch2_Timer.o)
 .debug_abbrev  0x000018e4      0x173 .\CortexM3\ARM_GCC_493\Debug\Ball.a(RC_Ch2_Timer_Interrupt.o)
 .debug_abbrev  0x00001a57      0x173 .\CortexM3\ARM_GCC_493\Debug\Ball.a(Clock_Millis_Interrupt.o)
 .debug_abbrev  0x00001bca       0x90 .\CortexM3\ARM_GCC_493\Debug\Ball.a(RC_Ch1.o)
 .debug_abbrev  0x00001c5a      0x170 .\CortexM3\ARM_GCC_493\Debug\Ball.a(RC_Ch1_Timer.o)
 .debug_abbrev  0x00001dca       0x90 .\CortexM3\ARM_GCC_493\Debug\Ball.a(RC_Ch2.o)
 .debug_abbrev  0x00001e5a      0x173 .\CortexM3\ARM_GCC_493\Debug\Ball.a(RC_Ch1_Timer_Interrupt.o)
 .debug_abbrev  0x00001fcd      0x170 .\CortexM3\ARM_GCC_493\Debug\Ball.a(RC_Ch4_Timer.o)
 .debug_abbrev  0x0000213d       0x90 .\CortexM3\ARM_GCC_493\Debug\Ball.a(RC_Ch4.o)
 .debug_abbrev  0x000021cd      0x173 .\CortexM3\ARM_GCC_493\Debug\Ball.a(RC_Ch4_Timer_Interrupt.o)
 .debug_abbrev  0x00002340      0x170 .\CortexM3\ARM_GCC_493\Debug\Ball.a(RC_Ch3_Timer.o)
 .debug_abbrev  0x000024b0       0x90 .\CortexM3\ARM_GCC_493\Debug\Ball.a(RC_Ch3.o)
 .debug_abbrev  0x00002540      0x173 .\CortexM3\ARM_GCC_493\Debug\Ball.a(RC_Ch3_Timer_Interrupt.o)
 .debug_abbrev  0x000026b3      0x14d .\CortexM3\ARM_GCC_493\Debug\Ball.a(Drive_DC_Motor_PWM.o)
 .debug_abbrev  0x00002800      0x14d .\CortexM3\ARM_GCC_493\Debug\Ball.a(Pendulum_DC_Motor_PWM.o)
 .debug_abbrev  0x0000294d      0x14d .\CortexM3\ARM_GCC_493\Debug\Ball.a(Flywheel_DC_Motor_PWM.o)
 .debug_abbrev  0x00002a9a      0x15c .\CortexM3\ARM_GCC_493\Debug\Ball.a(MPU6050_I2C.o)
 .debug_abbrev  0x00002bf6       0xbd .\CortexM3\ARM_GCC_493\Debug\Ball.a(MPU6050_I2C_INT.o)
 .debug_abbrev  0x00002cb3      0x12b .\CortexM3\ARM_GCC_493\Debug\Ball.a(MPU6050_I2C_PM.o)
 .debug_abbrev  0x00002dde      0x13c .\CortexM3\ARM_GCC_493\Debug\Ball.a(MPU6050_I2C_MASTER.o)
 .debug_abbrev  0x00002f1a      0x17e .\CortexM3\ARM_GCC_493\Debug\Ball.a(Drive_DC_Motor_Quad_Dec.o)
 .debug_abbrev  0x00003098      0x131 .\CortexM3\ARM_GCC_493\Debug\Ball.a(Drive_DC_Motor_Quad_Dec_Cnt16.o)
 .debug_abbrev  0x000031c9      0x17e .\CortexM3\ARM_GCC_493\Debug\Ball.a(Pendulum_DC_Motor_Quad_Dec.o)
 .debug_abbrev  0x00003347      0x131 .\CortexM3\ARM_GCC_493\Debug\Ball.a(Pendulum_DC_Motor_Quad_Dec_Cnt16.o)
 .debug_abbrev  0x00003478       0x90 .\CortexM3\ARM_GCC_493\Debug\Ball.a(Status_LED.o)
 .debug_abbrev  0x00003508      0x14d .\CortexM3\ARM_GCC_493\Debug\Ball.a(Head_Servo_PWM.o)
 .debug_abbrev  0x00003655      0x1ed .\CortexM3\ARM_GCC_493\Debug\Ball.a(CyFlash.o)
 .debug_abbrev  0x00003842      0x1c1 .\CortexM3\ARM_GCC_493\Debug\Ball.a(CySpc.o)
 .debug_abbrev  0x00003a03       0x8e .\CortexM3\ARM_GCC_493\Debug\Ball.a(cyutils.o)

.debug_line     0x00000000     0x5cd8
 *(.debug_line)
 .debug_line    0x00000000      0x25f .\CortexM3\ARM_GCC_493\Debug\main.o
 .debug_line    0x0000025f      0x19f .\CortexM3\ARM_GCC_493\Debug\milliseconds.o
 .debug_line    0x000003fe      0x39a .\CortexM3\ARM_GCC_493\Debug\rc_ch.o
 .debug_line    0x00000798      0x2b5 .\CortexM3\ARM_GCC_493\Debug\dc_motor.o
 .debug_line    0x00000a4d     0x1402 .\CortexM3\ARM_GCC_493\Debug\mpu6050.o
 .debug_line    0x00001e4f      0x243 .\CortexM3\ARM_GCC_493\Debug\i2cFunctions.o
 .debug_line    0x00002092      0x210 .\CortexM3\ARM_GCC_493\Debug\imu.o
 .debug_line    0x000022a2      0x1a4 .\CortexM3\ARM_GCC_493\Debug\pid.o
 .debug_line    0x00002446      0x1ab .\CortexM3\ARM_GCC_493\Debug\servo.o
 .debug_line    0x000025f1       0x53 .\CortexM3\ARM_GCC_493\Debug\cymetadata.o
 .debug_line    0x00002644      0x249 .\CortexM3\ARM_GCC_493\Debug\Cm3Start.o
 .debug_line    0x0000288d      0x205 .\CortexM3\ARM_GCC_493\Debug\Ball.a(cyfitter_cfg.o)
 .debug_line    0x00002a92       0x68 .\CortexM3\ARM_GCC_493\Debug\Ball.a(CyBootAsmGnu.o)
 .debug_line    0x00002afa      0x806 .\CortexM3\ARM_GCC_493\Debug\Ball.a(CyLib.o)
 .debug_line    0x00003300      0x366 .\CortexM3\ARM_GCC_493\Debug\Ball.a(cyPm.o)
 .debug_line    0x00003666      0x1ae .\CortexM3\ARM_GCC_493\Debug\Ball.a(RC_Ch2_Timer.o)
 .debug_line    0x00003814      0x15c .\CortexM3\ARM_GCC_493\Debug\Ball.a(RC_Ch2_Timer_Interrupt.o)
 .debug_line    0x00003970      0x15c .\CortexM3\ARM_GCC_493\Debug\Ball.a(Clock_Millis_Interrupt.o)
 .debug_line    0x00003acc       0x95 .\CortexM3\ARM_GCC_493\Debug\Ball.a(RC_Ch1.o)
 .debug_line    0x00003b61      0x1ae .\CortexM3\ARM_GCC_493\Debug\Ball.a(RC_Ch1_Timer.o)
 .debug_line    0x00003d0f       0x95 .\CortexM3\ARM_GCC_493\Debug\Ball.a(RC_Ch2.o)
 .debug_line    0x00003da4      0x15c .\CortexM3\ARM_GCC_493\Debug\Ball.a(RC_Ch1_Timer_Interrupt.o)
 .debug_line    0x00003f00      0x1ae .\CortexM3\ARM_GCC_493\Debug\Ball.a(RC_Ch4_Timer.o)
 .debug_line    0x000040ae       0x95 .\CortexM3\ARM_GCC_493\Debug\Ball.a(RC_Ch4.o)
 .debug_line    0x00004143      0x15c .\CortexM3\ARM_GCC_493\Debug\Ball.a(RC_Ch4_Timer_Interrupt.o)
 .debug_line    0x0000429f      0x1ae .\CortexM3\ARM_GCC_493\Debug\Ball.a(RC_Ch3_Timer.o)
 .debug_line    0x0000444d       0x95 .\CortexM3\ARM_GCC_493\Debug\Ball.a(RC_Ch3.o)
 .debug_line    0x000044e2      0x15c .\CortexM3\ARM_GCC_493\Debug\Ball.a(RC_Ch3_Timer_Interrupt.o)
 .debug_line    0x0000463e      0x1b8 .\CortexM3\ARM_GCC_493\Debug\Ball.a(Drive_DC_Motor_PWM.o)
 .debug_line    0x000047f6      0x1bb .\CortexM3\ARM_GCC_493\Debug\Ball.a(Pendulum_DC_Motor_PWM.o)
 .debug_line    0x000049b1      0x1bb .\CortexM3\ARM_GCC_493\Debug\Ball.a(Flywheel_DC_Motor_PWM.o)
 .debug_line    0x00004b6c       0xf3 .\CortexM3\ARM_GCC_493\Debug\Ball.a(MPU6050_I2C.o)
 .debug_line    0x00004c5f      0x126 .\CortexM3\ARM_GCC_493\Debug\Ball.a(MPU6050_I2C_INT.o)
 .debug_line    0x00004d85       0xcd .\CortexM3\ARM_GCC_493\Debug\Ball.a(MPU6050_I2C_PM.o)
 .debug_line    0x00004e52      0x20f .\CortexM3\ARM_GCC_493\Debug\Ball.a(MPU6050_I2C_MASTER.o)
 .debug_line    0x00005061      0x13c .\CortexM3\ARM_GCC_493\Debug\Ball.a(Drive_DC_Motor_Quad_Dec.o)
 .debug_line    0x0000519d      0x19f .\CortexM3\ARM_GCC_493\Debug\Ball.a(Drive_DC_Motor_Quad_Dec_Cnt16.o)
 .debug_line    0x0000533c      0x142 .\CortexM3\ARM_GCC_493\Debug\Ball.a(Pendulum_DC_Motor_Quad_Dec.o)
 .debug_line    0x0000547e      0x1a2 .\CortexM3\ARM_GCC_493\Debug\Ball.a(Pendulum_DC_Motor_Quad_Dec_Cnt16.o)
 .debug_line    0x00005620       0x99 .\CortexM3\ARM_GCC_493\Debug\Ball.a(Status_LED.o)
 .debug_line    0x000056b9      0x193 .\CortexM3\ARM_GCC_493\Debug\Ball.a(Head_Servo_PWM.o)
 .debug_line    0x0000584c      0x1ec .\CortexM3\ARM_GCC_493\Debug\Ball.a(CyFlash.o)
 .debug_line    0x00005a38      0x23e .\CortexM3\ARM_GCC_493\Debug\Ball.a(CySpc.o)
 .debug_line    0x00005c76       0x62 .\CortexM3\ARM_GCC_493\Debug\Ball.a(cyutils.o)

.debug_frame    0x00000000     0x4924
 *(.debug_frame)
 .debug_frame   0x00000000       0x40 .\CortexM3\ARM_GCC_493\Debug\main.o
 .debug_frame   0x00000040       0x3c .\CortexM3\ARM_GCC_493\Debug\milliseconds.o
 .debug_frame   0x0000007c       0xcc .\CortexM3\ARM_GCC_493\Debug\rc_ch.o
 .debug_frame   0x00000148       0xd8 .\CortexM3\ARM_GCC_493\Debug\dc_motor.o
 .debug_frame   0x00000220     0x1d54 .\CortexM3\ARM_GCC_493\Debug\mpu6050.o
 .debug_frame   0x00001f74      0x140 .\CortexM3\ARM_GCC_493\Debug\i2cFunctions.o
 .debug_frame   0x000020b4       0x70 .\CortexM3\ARM_GCC_493\Debug\imu.o
 .debug_frame   0x00002124       0x68 .\CortexM3\ARM_GCC_493\Debug\pid.o
 .debug_frame   0x0000218c       0x64 .\CortexM3\ARM_GCC_493\Debug\servo.o
 .debug_frame   0x000021f0       0xac .\CortexM3\ARM_GCC_493\Debug\Cm3Start.o
 .debug_frame   0x0000229c       0xe4 .\CortexM3\ARM_GCC_493\Debug\Ball.a(cyfitter_cfg.o)
 .debug_frame   0x00002380      0x728 .\CortexM3\ARM_GCC_493\Debug\Ball.a(CyLib.o)
 .debug_frame   0x00002aa8      0x1f8 .\CortexM3\ARM_GCC_493\Debug\Ball.a(cyPm.o)
 .debug_frame   0x00002ca0      0x16c .\CortexM3\ARM_GCC_493\Debug\Ball.a(RC_Ch2_Timer.o)
 .debug_frame   0x00002e0c      0x104 .\CortexM3\ARM_GCC_493\Debug\Ball.a(RC_Ch2_Timer_Interrupt.o)
 .debug_frame   0x00002f10      0x104 .\CortexM3\ARM_GCC_493\Debug\Ball.a(Clock_Millis_Interrupt.o)
 .debug_frame   0x00003014       0x50 .\CortexM3\ARM_GCC_493\Debug\Ball.a(RC_Ch1.o)
 .debug_frame   0x00003064      0x16c .\CortexM3\ARM_GCC_493\Debug\Ball.a(RC_Ch1_Timer.o)
 .debug_frame   0x000031d0       0x50 .\CortexM3\ARM_GCC_493\Debug\Ball.a(RC_Ch2.o)
 .debug_frame   0x00003220      0x104 .\CortexM3\ARM_GCC_493\Debug\Ball.a(RC_Ch1_Timer_Interrupt.o)
 .debug_frame   0x00003324      0x16c .\CortexM3\ARM_GCC_493\Debug\Ball.a(RC_Ch4_Timer.o)
 .debug_frame   0x00003490       0x50 .\CortexM3\ARM_GCC_493\Debug\Ball.a(RC_Ch4.o)
 .debug_frame   0x000034e0      0x104 .\CortexM3\ARM_GCC_493\Debug\Ball.a(RC_Ch4_Timer_Interrupt.o)
 .debug_frame   0x000035e4      0x16c .\CortexM3\ARM_GCC_493\Debug\Ball.a(RC_Ch3_Timer.o)
 .debug_frame   0x00003750       0x50 .\CortexM3\ARM_GCC_493\Debug\Ball.a(RC_Ch3.o)
 .debug_frame   0x000037a0      0x104 .\CortexM3\ARM_GCC_493\Debug\Ball.a(RC_Ch3_Timer_Interrupt.o)
 .debug_frame   0x000038a4      0x154 .\CortexM3\ARM_GCC_493\Debug\Ball.a(Drive_DC_Motor_PWM.o)
 .debug_frame   0x000039f8      0x154 .\CortexM3\ARM_GCC_493\Debug\Ball.a(Pendulum_DC_Motor_PWM.o)
 .debug_frame   0x00003b4c      0x154 .\CortexM3\ARM_GCC_493\Debug\Ball.a(Flywheel_DC_Motor_PWM.o)
 .debug_frame   0x00003ca0       0x94 .\CortexM3\ARM_GCC_493\Debug\Ball.a(MPU6050_I2C.o)
 .debug_frame   0x00003d34       0x30 .\CortexM3\ARM_GCC_493\Debug\Ball.a(MPU6050_I2C_INT.o)
 .debug_frame   0x00003d64       0x74 .\CortexM3\ARM_GCC_493\Debug\Ball.a(MPU6050_I2C_PM.o)
 .debug_frame   0x00003dd8      0x138 .\CortexM3\ARM_GCC_493\Debug\Ball.a(MPU6050_I2C_MASTER.o)
 .debug_frame   0x00003f10       0xdc .\CortexM3\ARM_GCC_493\Debug\Ball.a(Drive_DC_Motor_Quad_Dec.o)
 .debug_frame   0x00003fec      0x134 .\CortexM3\ARM_GCC_493\Debug\Ball.a(Drive_DC_Motor_Quad_Dec_Cnt16.o)
 .debug_frame   0x00004120       0xdc .\CortexM3\ARM_GCC_493\Debug\Ball.a(Pendulum_DC_Motor_Quad_Dec.o)
 .debug_frame   0x000041fc      0x134 .\CortexM3\ARM_GCC_493\Debug\Ball.a(Pendulum_DC_Motor_Quad_Dec_Cnt16.o)
 .debug_frame   0x00004330       0x50 .\CortexM3\ARM_GCC_493\Debug\Ball.a(Status_LED.o)
 .debug_frame   0x00004380      0x134 .\CortexM3\ARM_GCC_493\Debug\Ball.a(Head_Servo_PWM.o)
 .debug_frame   0x000044b4      0x174 .\CortexM3\ARM_GCC_493\Debug\Ball.a(CyFlash.o)
 .debug_frame   0x00004628      0x160 .\CortexM3\ARM_GCC_493\Debug\Ball.a(CySpc.o)
 .debug_frame   0x00004788       0x20 .\CortexM3\ARM_GCC_493\Debug\Ball.a(cyutils.o)
 .debug_frame   0x000047a8       0x20 c:/program files (x86)/cypress/psoc creator/3.3/psoc creator/import/gnu/arm/4.9.3/bin/../lib/gcc/arm-none-eabi/4.9.3/../../../../arm-none-eabi/lib/armv7-m\libm.a(lib_a-w_atan2.o)
 .debug_frame   0x000047c8       0x48 c:/program files (x86)/cypress/psoc creator/3.3/psoc creator/import/gnu/arm/4.9.3/bin/../lib/gcc/arm-none-eabi/4.9.3/../../../../arm-none-eabi/lib/armv7-m\libm.a(lib_a-e_atan2.o)
 .debug_frame   0x00004810       0x38 c:/program files (x86)/cypress/psoc creator/3.3/psoc creator/import/gnu/arm/4.9.3/bin/../lib/gcc/arm-none-eabi/4.9.3/../../../../arm-none-eabi/lib/armv7-m\libm.a(lib_a-s_atan.o)
 .debug_frame   0x00004848       0x20 c:/program files (x86)/cypress/psoc creator/3.3/psoc creator/import/gnu/arm/4.9.3/bin/../lib/gcc/arm-none-eabi/4.9.3/../../../../arm-none-eabi/lib/armv7-m\libm.a(lib_a-s_fabs.o)
 .debug_frame   0x00004868       0x20 c:/program files (x86)/cypress/psoc creator/3.3/psoc creator/import/gnu/arm/4.9.3/bin/../lib/gcc/arm-none-eabi/4.9.3/../../../../arm-none-eabi/lib/armv7-m\libg_nano.a(lib_a-errno.o)
 .debug_frame   0x00004888       0x28 c:/program files (x86)/cypress/psoc creator/3.3/psoc creator/import/gnu/arm/4.9.3/bin/../lib/gcc/arm-none-eabi/4.9.3/../../../../arm-none-eabi/lib/armv7-m\libg_nano.a(lib_a-exit.o)
 .debug_frame   0x000048b0       0x2c c:/program files (x86)/cypress/psoc creator/3.3/psoc creator/import/gnu/arm/4.9.3/bin/../lib/gcc/arm-none-eabi/4.9.3/../../../../arm-none-eabi/lib/armv7-m\libg_nano.a(lib_a-init.o)
 .debug_frame   0x000048dc       0x28 c:/program files (x86)/cypress/psoc creator/3.3/psoc creator/import/gnu/arm/4.9.3/bin/../lib/gcc/arm-none-eabi/4.9.3/../../../../arm-none-eabi/lib/armv7-m\libg_nano.a(lib_a-memcpy.o)
 .debug_frame   0x00004904       0x20 c:/program files (x86)/cypress/psoc creator/3.3/psoc creator/import/gnu/arm/4.9.3/bin/../lib/gcc/arm-none-eabi/4.9.3/../../../../arm-none-eabi/lib/armv7-m\libg_nano.a(lib_a-memset.o)

.debug_str      0x00000000     0x6441
 *(.debug_str)
 .debug_str     0x00000000      0x632 .\CortexM3\ARM_GCC_493\Debug\main.o
                                0x6c1 (size before relaxing)
 .debug_str     0x00000632       0x61 .\CortexM3\ARM_GCC_493\Debug\milliseconds.o
                                0x275 (size before relaxing)
 .debug_str     0x00000693      0x41d .\CortexM3\ARM_GCC_493\Debug\rc_ch.o
                                0x750 (size before relaxing)
 .debug_str     0x00000ab0      0x235 .\CortexM3\ARM_GCC_493\Debug\dc_motor.o
                                0x56c (size before relaxing)
 .debug_str     0x00000ce5     0x1d62 .\CortexM3\ARM_GCC_493\Debug\mpu6050.o
                               0x1f4c (size before relaxing)
 .debug_str     0x00002a47       0xe2 .\CortexM3\ARM_GCC_493\Debug\i2cFunctions.o
                                0x344 (size before relaxing)
 .debug_str     0x00002b29       0x35 .\CortexM3\ARM_GCC_493\Debug\imu.o
                                0x2ee (size before relaxing)
 .debug_str     0x00002b5e       0x26 .\CortexM3\ARM_GCC_493\Debug\pid.o
                                0x295 (size before relaxing)
 .debug_str     0x00002b84       0x55 .\CortexM3\ARM_GCC_493\Debug\servo.o
                                0x28e (size before relaxing)
 .debug_str     0x00002bd9       0x77 .\CortexM3\ARM_GCC_493\Debug\cymetadata.o
                                0x23d (size before relaxing)
 .debug_str     0x00002c50      0x14d .\CortexM3\ARM_GCC_493\Debug\Cm3Start.o
                                0x351 (size before relaxing)
 .debug_str     0x00002d9d      0x176 .\CortexM3\ARM_GCC_493\Debug\Ball.a(cyfitter_cfg.o)
                                0x38b (size before relaxing)
 .debug_str     0x00002f13      0x7e7 .\CortexM3\ARM_GCC_493\Debug\Ball.a(CyLib.o)
                                0xa76 (size before relaxing)
 .debug_str     0x000036fa      0x35b .\CortexM3\ARM_GCC_493\Debug\Ball.a(cyPm.o)
                                0x76e (size before relaxing)
 .debug_str     0x00003a55      0x1f3 .\CortexM3\ARM_GCC_493\Debug\Ball.a(RC_Ch2_Timer.o)
                                0x470 (size before relaxing)
 .debug_str     0x00003c48      0x1b7 .\CortexM3\ARM_GCC_493\Debug\Ball.a(RC_Ch2_Timer_Interrupt.o)
                                0x3db (size before relaxing)
 .debug_str     0x00003dff      0x1b7 .\CortexM3\ARM_GCC_493\Debug\Ball.a(Clock_Millis_Interrupt.o)
                                0x3db (size before relaxing)
 .debug_str     0x00003fb6       0x61 .\CortexM3\ARM_GCC_493\Debug\Ball.a(RC_Ch1.o)
                                0x23a (size before relaxing)
 .debug_str     0x00004017      0x1b4 .\CortexM3\ARM_GCC_493\Debug\Ball.a(RC_Ch1_Timer.o)
                                0x470 (size before relaxing)
 .debug_str     0x000041cb       0x56 .\CortexM3\ARM_GCC_493\Debug\Ball.a(RC_Ch2.o)
                                0x23a (size before relaxing)
 .debug_str     0x00004221      0x1b7 .\CortexM3\ARM_GCC_493\Debug\Ball.a(RC_Ch1_Timer_Interrupt.o)
                                0x3db (size before relaxing)
 .debug_str     0x000043d8      0x1b4 .\CortexM3\ARM_GCC_493\Debug\Ball.a(RC_Ch4_Timer.o)
                                0x470 (size before relaxing)
 .debug_str     0x0000458c       0x56 .\CortexM3\ARM_GCC_493\Debug\Ball.a(RC_Ch4.o)
                                0x23a (size before relaxing)
 .debug_str     0x000045e2      0x1b7 .\CortexM3\ARM_GCC_493\Debug\Ball.a(RC_Ch4_Timer_Interrupt.o)
                                0x3db (size before relaxing)
 .debug_str     0x00004799      0x1b4 .\CortexM3\ARM_GCC_493\Debug\Ball.a(RC_Ch3_Timer.o)
                                0x470 (size before relaxing)
 .debug_str     0x0000494d       0x56 .\CortexM3\ARM_GCC_493\Debug\Ball.a(RC_Ch3.o)
                                0x23a (size before relaxing)
 .debug_str     0x000049a3      0x1b7 .\CortexM3\ARM_GCC_493\Debug\Ball.a(RC_Ch3_Timer_Interrupt.o)
                                0x3db (size before relaxing)
 .debug_str     0x00004b5a      0x25a .\CortexM3\ARM_GCC_493\Debug\Ball.a(Drive_DC_Motor_PWM.o)
                                0x4d2 (size before relaxing)
 .debug_str     0x00004db4      0x27c .\CortexM3\ARM_GCC_493\Debug\Ball.a(Pendulum_DC_Motor_PWM.o)
                                0x511 (size before relaxing)
 .debug_str     0x00005030      0x27c .\CortexM3\ARM_GCC_493\Debug\Ball.a(Flywheel_DC_Motor_PWM.o)
                                0x511 (size before relaxing)
 .debug_str     0x000052ac      0x133 .\CortexM3\ARM_GCC_493\Debug\Ball.a(MPU6050_I2C.o)
                                0x395 (size before relaxing)
 .debug_str     0x000053df       0xc0 .\CortexM3\ARM_GCC_493\Debug\Ball.a(MPU6050_I2C_INT.o)
                                0x2fe (size before relaxing)
 .debug_str     0x0000549f       0x80 .\CortexM3\ARM_GCC_493\Debug\Ball.a(MPU6050_I2C_PM.o)
                                0x30c (size before relaxing)
 .debug_str     0x0000551f      0x156 .\CortexM3\ARM_GCC_493\Debug\Ball.a(MPU6050_I2C_MASTER.o)
                                0x4a3 (size before relaxing)
 .debug_str     0x00005675      0x1d4 .\CortexM3\ARM_GCC_493\Debug\Ball.a(Drive_DC_Motor_Quad_Dec.o)
                                0x454 (size before relaxing)
 .debug_str     0x00005849      0x2a2 .\CortexM3\ARM_GCC_493\Debug\Ball.a(Drive_DC_Motor_Quad_Dec_Cnt16.o)
                                0x567 (size before relaxing)
 .debug_str     0x00005aeb      0x1e0 .\CortexM3\ARM_GCC_493\Debug\Ball.a(Pendulum_DC_Motor_Quad_Dec.o)
                                0x481 (size before relaxing)
 .debug_str     0x00005ccb      0x2c0 .\CortexM3\ARM_GCC_493\Debug\Ball.a(Pendulum_DC_Motor_Quad_Dec_Cnt16.o)
                                0x5a0 (size before relaxing)
 .debug_str     0x00005f8b       0x65 .\CortexM3\ARM_GCC_493\Debug\Ball.a(Status_LED.o)
                                0x24e (size before relaxing)
 .debug_str     0x00005ff0      0x1e1 .\CortexM3\ARM_GCC_493\Debug\Ball.a(Head_Servo_PWM.o)
                                0x450 (size before relaxing)
 .debug_str     0x000061d1      0x197 .\CortexM3\ARM_GCC_493\Debug\Ball.a(CyFlash.o)
                                0x3e8 (size before relaxing)
 .debug_str     0x00006368       0xae .\CortexM3\ARM_GCC_493\Debug\Ball.a(CySpc.o)
                                0x371 (size before relaxing)
 .debug_str     0x00006416       0x2b .\CortexM3\ARM_GCC_493\Debug\Ball.a(cyutils.o)
                                0x205 (size before relaxing)

.debug_loc      0x00000000     0x4c11
 *(.debug_loc)
 .debug_loc     0x00000000      0x113 .\CortexM3\ARM_GCC_493\Debug\main.o
 .debug_loc     0x00000113       0xe8 .\CortexM3\ARM_GCC_493\Debug\rc_ch.o
 .debug_loc     0x000001fb      0x30a .\CortexM3\ARM_GCC_493\Debug\dc_motor.o
 .debug_loc     0x00000505     0x1931 .\CortexM3\ARM_GCC_493\Debug\mpu6050.o
 .debug_loc     0x00001e36      0x507 .\CortexM3\ARM_GCC_493\Debug\i2cFunctions.o
 .debug_loc     0x0000233d      0x145 .\CortexM3\ARM_GCC_493\Debug\imu.o
 .debug_loc     0x00002482       0xcc .\CortexM3\ARM_GCC_493\Debug\pid.o
 .debug_loc     0x0000254e       0xd2 .\CortexM3\ARM_GCC_493\Debug\servo.o
 .debug_loc     0x00002620      0x144 .\CortexM3\ARM_GCC_493\Debug\Cm3Start.o
 .debug_loc     0x00002764      0x288 .\CortexM3\ARM_GCC_493\Debug\Ball.a(cyfitter_cfg.o)
 .debug_loc     0x000029ec      0xa11 .\CortexM3\ARM_GCC_493\Debug\Ball.a(CyLib.o)
 .debug_loc     0x000033fd      0x1e4 .\CortexM3\ARM_GCC_493\Debug\Ball.a(cyPm.o)
 .debug_loc     0x000035e1       0x89 .\CortexM3\ARM_GCC_493\Debug\Ball.a(RC_Ch2_Timer.o)
 .debug_loc     0x0000366a       0x56 .\CortexM3\ARM_GCC_493\Debug\Ball.a(RC_Ch2_Timer_Interrupt.o)
 .debug_loc     0x000036c0       0x56 .\CortexM3\ARM_GCC_493\Debug\Ball.a(Clock_Millis_Interrupt.o)
 .debug_loc     0x00003716       0x42 .\CortexM3\ARM_GCC_493\Debug\Ball.a(RC_Ch1.o)
 .debug_loc     0x00003758       0x89 .\CortexM3\ARM_GCC_493\Debug\Ball.a(RC_Ch1_Timer.o)
 .debug_loc     0x000037e1       0x42 .\CortexM3\ARM_GCC_493\Debug\Ball.a(RC_Ch2.o)
 .debug_loc     0x00003823       0x56 .\CortexM3\ARM_GCC_493\Debug\Ball.a(RC_Ch1_Timer_Interrupt.o)
 .debug_loc     0x00003879       0x89 .\CortexM3\ARM_GCC_493\Debug\Ball.a(RC_Ch4_Timer.o)
 .debug_loc     0x00003902       0x42 .\CortexM3\ARM_GCC_493\Debug\Ball.a(RC_Ch4.o)
 .debug_loc     0x00003944       0x56 .\CortexM3\ARM_GCC_493\Debug\Ball.a(RC_Ch4_Timer_Interrupt.o)
 .debug_loc     0x0000399a       0x89 .\CortexM3\ARM_GCC_493\Debug\Ball.a(RC_Ch3_Timer.o)
 .debug_loc     0x00003a23       0x42 .\CortexM3\ARM_GCC_493\Debug\Ball.a(RC_Ch3.o)
 .debug_loc     0x00003a65       0x56 .\CortexM3\ARM_GCC_493\Debug\Ball.a(RC_Ch3_Timer_Interrupt.o)
 .debug_loc     0x00003abb       0x26 .\CortexM3\ARM_GCC_493\Debug\Ball.a(Drive_DC_Motor_PWM.o)
 .debug_loc     0x00003ae1       0x26 .\CortexM3\ARM_GCC_493\Debug\Ball.a(Pendulum_DC_Motor_PWM.o)
 .debug_loc     0x00003b07       0x26 .\CortexM3\ARM_GCC_493\Debug\Ball.a(Flywheel_DC_Motor_PWM.o)
 .debug_loc     0x00003b2d       0x39 .\CortexM3\ARM_GCC_493\Debug\Ball.a(MPU6050_I2C.o)
 .debug_loc     0x00003b66       0x29 .\CortexM3\ARM_GCC_493\Debug\Ball.a(MPU6050_I2C_INT.o)
 .debug_loc     0x00003b8f       0x13 .\CortexM3\ARM_GCC_493\Debug\Ball.a(MPU6050_I2C_PM.o)
 .debug_loc     0x00003ba2      0x52f .\CortexM3\ARM_GCC_493\Debug\Ball.a(MPU6050_I2C_MASTER.o)
 .debug_loc     0x000040d1       0x78 .\CortexM3\ARM_GCC_493\Debug\Ball.a(Drive_DC_Motor_Quad_Dec.o)
 .debug_loc     0x00004149       0x3d .\CortexM3\ARM_GCC_493\Debug\Ball.a(Drive_DC_Motor_Quad_Dec_Cnt16.o)
 .debug_loc     0x00004186       0x78 .\CortexM3\ARM_GCC_493\Debug\Ball.a(Pendulum_DC_Motor_Quad_Dec.o)
 .debug_loc     0x000041fe       0x3d .\CortexM3\ARM_GCC_493\Debug\Ball.a(Pendulum_DC_Motor_Quad_Dec_Cnt16.o)
 .debug_loc     0x0000423b       0x42 .\CortexM3\ARM_GCC_493\Debug\Ball.a(Status_LED.o)
 .debug_loc     0x0000427d       0x26 .\CortexM3\ARM_GCC_493\Debug\Ball.a(Head_Servo_PWM.o)
 .debug_loc     0x000042a3      0x300 .\CortexM3\ARM_GCC_493\Debug\Ball.a(CyFlash.o)
 .debug_loc     0x000045a3      0x64d .\CortexM3\ARM_GCC_493\Debug\Ball.a(CySpc.o)
 .debug_loc     0x00004bf0       0x21 .\CortexM3\ARM_GCC_493\Debug\Ball.a(cyutils.o)

.debug_macinfo
 *(.debug_macinfo)

.debug_ranges   0x00000000     0x1820
 *(.debug_ranges)
 .debug_ranges  0x00000000       0x10 .\CortexM3\ARM_GCC_493\Debug\main.o
 .debug_ranges  0x00000010       0x18 .\CortexM3\ARM_GCC_493\Debug\milliseconds.o
 .debug_ranges  0x00000028       0x40 .\CortexM3\ARM_GCC_493\Debug\rc_ch.o
 .debug_ranges  0x00000068       0x38 .\CortexM3\ARM_GCC_493\Debug\dc_motor.o
 .debug_ranges  0x000000a0      0x828 .\CortexM3\ARM_GCC_493\Debug\mpu6050.o
 .debug_ranges  0x000008c8       0x50 .\CortexM3\ARM_GCC_493\Debug\i2cFunctions.o
 .debug_ranges  0x00000918       0x20 .\CortexM3\ARM_GCC_493\Debug\imu.o
 .debug_ranges  0x00000938       0x28 .\CortexM3\ARM_GCC_493\Debug\pid.o
 .debug_ranges  0x00000960       0x20 .\CortexM3\ARM_GCC_493\Debug\servo.o
 .debug_ranges  0x00000980       0x38 .\CortexM3\ARM_GCC_493\Debug\Cm3Start.o
 .debug_ranges  0x000009b8       0x48 .\CortexM3\ARM_GCC_493\Debug\Ball.a(cyfitter_cfg.o)
 .debug_ranges  0x00000a00      0x288 .\CortexM3\ARM_GCC_493\Debug\Ball.a(CyLib.o)
 .debug_ranges  0x00000c88       0x88 .\CortexM3\ARM_GCC_493\Debug\Ball.a(cyPm.o)
 .debug_ranges  0x00000d10       0x98 .\CortexM3\ARM_GCC_493\Debug\Ball.a(RC_Ch2_Timer.o)
 .debug_ranges  0x00000da8       0x70 .\CortexM3\ARM_GCC_493\Debug\Ball.a(RC_Ch2_Timer_Interrupt.o)
 .debug_ranges  0x00000e18       0x70 .\CortexM3\ARM_GCC_493\Debug\Ball.a(Clock_Millis_Interrupt.o)
 .debug_ranges  0x00000e88       0x28 .\CortexM3\ARM_GCC_493\Debug\Ball.a(RC_Ch1.o)
 .debug_ranges  0x00000eb0       0x98 .\CortexM3\ARM_GCC_493\Debug\Ball.a(RC_Ch1_Timer.o)
 .debug_ranges  0x00000f48       0x28 .\CortexM3\ARM_GCC_493\Debug\Ball.a(RC_Ch2.o)
 .debug_ranges  0x00000f70       0x70 .\CortexM3\ARM_GCC_493\Debug\Ball.a(RC_Ch1_Timer_Interrupt.o)
 .debug_ranges  0x00000fe0       0x98 .\CortexM3\ARM_GCC_493\Debug\Ball.a(RC_Ch4_Timer.o)
 .debug_ranges  0x00001078       0x28 .\CortexM3\ARM_GCC_493\Debug\Ball.a(RC_Ch4.o)
 .debug_ranges  0x000010a0       0x70 .\CortexM3\ARM_GCC_493\Debug\Ball.a(RC_Ch4_Timer_Interrupt.o)
 .debug_ranges  0x00001110       0x98 .\CortexM3\ARM_GCC_493\Debug\Ball.a(RC_Ch3_Timer.o)
 .debug_ranges  0x000011a8       0x28 .\CortexM3\ARM_GCC_493\Debug\Ball.a(RC_Ch3.o)
 .debug_ranges  0x000011d0       0x70 .\CortexM3\ARM_GCC_493\Debug\Ball.a(RC_Ch3_Timer_Interrupt.o)
 .debug_ranges  0x00001240       0x98 .\CortexM3\ARM_GCC_493\Debug\Ball.a(Drive_DC_Motor_PWM.o)
 .debug_ranges  0x000012d8       0x98 .\CortexM3\ARM_GCC_493\Debug\Ball.a(Pendulum_DC_Motor_PWM.o)
 .debug_ranges  0x00001370       0x98 .\CortexM3\ARM_GCC_493\Debug\Ball.a(Flywheel_DC_Motor_PWM.o)
 .debug_ranges  0x00001408       0x28 .\CortexM3\ARM_GCC_493\Debug\Ball.a(MPU6050_I2C.o)
 .debug_ranges  0x00001430       0x10 .\CortexM3\ARM_GCC_493\Debug\Ball.a(MPU6050_I2C_INT.o)
 .debug_ranges  0x00001440       0x28 .\CortexM3\ARM_GCC_493\Debug\Ball.a(MPU6050_I2C_PM.o)
 .debug_ranges  0x00001468       0x70 .\CortexM3\ARM_GCC_493\Debug\Ball.a(MPU6050_I2C_MASTER.o)
 .debug_ranges  0x000014d8       0x50 .\CortexM3\ARM_GCC_493\Debug\Ball.a(Drive_DC_Motor_Quad_Dec.o)
 .debug_ranges  0x00001528       0x88 .\CortexM3\ARM_GCC_493\Debug\Ball.a(Drive_DC_Motor_Quad_Dec_Cnt16.o)
 .debug_ranges  0x000015b0       0x50 .\CortexM3\ARM_GCC_493\Debug\Ball.a(Pendulum_DC_Motor_Quad_Dec.o)
 .debug_ranges  0x00001600       0x88 .\CortexM3\ARM_GCC_493\Debug\Ball.a(Pendulum_DC_Motor_Quad_Dec_Cnt16.o)
 .debug_ranges  0x00001688       0x28 .\CortexM3\ARM_GCC_493\Debug\Ball.a(Status_LED.o)
 .debug_ranges  0x000016b0       0x88 .\CortexM3\ARM_GCC_493\Debug\Ball.a(Head_Servo_PWM.o)
 .debug_ranges  0x00001738       0x70 .\CortexM3\ARM_GCC_493\Debug\Ball.a(CyFlash.o)
 .debug_ranges  0x000017a8       0x68 .\CortexM3\ARM_GCC_493\Debug\Ball.a(CySpc.o)
 .debug_ranges  0x00001810       0x10 .\CortexM3\ARM_GCC_493\Debug\Ball.a(cyutils.o)

.comment        0x00000000       0x70
 .comment       0x00000000       0x70 .\CortexM3\ARM_GCC_493\Debug\main.o
                                 0x71 (size before relaxing)
 .comment       0x00000000       0x71 .\CortexM3\ARM_GCC_493\Debug\milliseconds.o
 .comment       0x00000000       0x71 .\CortexM3\ARM_GCC_493\Debug\rc_ch.o
 .comment       0x00000000       0x71 .\CortexM3\ARM_GCC_493\Debug\dc_motor.o
 .comment       0x00000000       0x71 .\CortexM3\ARM_GCC_493\Debug\mpu6050.o
 .comment       0x00000000       0x71 .\CortexM3\ARM_GCC_493\Debug\i2cFunctions.o
 .comment       0x00000000       0x71 .\CortexM3\ARM_GCC_493\Debug\imu.o
 .comment       0x00000000       0x71 .\CortexM3\ARM_GCC_493\Debug\pid.o
 .comment       0x00000000       0x71 .\CortexM3\ARM_GCC_493\Debug\servo.o
 .comment       0x00000000       0x71 .\CortexM3\ARM_GCC_493\Debug\cymetadata.o
 .comment       0x00000000       0x71 .\CortexM3\ARM_GCC_493\Debug\Cm3Start.o
 .comment       0x00000000       0x71 .\CortexM3\ARM_GCC_493\Debug\Ball.a(cyfitter_cfg.o)
 .comment       0x00000000       0x71 .\CortexM3\ARM_GCC_493\Debug\Ball.a(CyLib.o)
 .comment       0x00000000       0x71 .\CortexM3\ARM_GCC_493\Debug\Ball.a(cyPm.o)
 .comment       0x00000000       0x71 .\CortexM3\ARM_GCC_493\Debug\Ball.a(RC_Ch2_Timer.o)
 .comment       0x00000000       0x71 .\CortexM3\ARM_GCC_493\Debug\Ball.a(RC_Ch2_Timer_Interrupt.o)
 .comment       0x00000000       0x71 .\CortexM3\ARM_GCC_493\Debug\Ball.a(Clock_Millis_Interrupt.o)
 .comment       0x00000000       0x71 .\CortexM3\ARM_GCC_493\Debug\Ball.a(RC_Ch1.o)
 .comment       0x00000000       0x71 .\CortexM3\ARM_GCC_493\Debug\Ball.a(RC_Ch1_Timer.o)
 .comment       0x00000000       0x71 .\CortexM3\ARM_GCC_493\Debug\Ball.a(RC_Ch2.o)
 .comment       0x00000000       0x71 .\CortexM3\ARM_GCC_493\Debug\Ball.a(RC_Ch1_Timer_Interrupt.o)
 .comment       0x00000000       0x71 .\CortexM3\ARM_GCC_493\Debug\Ball.a(RC_Ch4_Timer.o)
 .comment       0x00000000       0x71 .\CortexM3\ARM_GCC_493\Debug\Ball.a(RC_Ch4.o)
 .comment       0x00000000       0x71 .\CortexM3\ARM_GCC_493\Debug\Ball.a(RC_Ch4_Timer_Interrupt.o)
 .comment       0x00000000       0x71 .\CortexM3\ARM_GCC_493\Debug\Ball.a(RC_Ch3_Timer.o)
 .comment       0x00000000       0x71 .\CortexM3\ARM_GCC_493\Debug\Ball.a(RC_Ch3.o)
 .comment       0x00000000       0x71 .\CortexM3\ARM_GCC_493\Debug\Ball.a(RC_Ch3_Timer_Interrupt.o)
 .comment       0x00000000       0x71 .\CortexM3\ARM_GCC_493\Debug\Ball.a(Drive_DC_Motor_PWM.o)
 .comment       0x00000000       0x71 .\CortexM3\ARM_GCC_493\Debug\Ball.a(Pendulum_DC_Motor_PWM.o)
 .comment       0x00000000       0x71 .\CortexM3\ARM_GCC_493\Debug\Ball.a(Flywheel_DC_Motor_PWM.o)
 .comment       0x00000000       0x71 .\CortexM3\ARM_GCC_493\Debug\Ball.a(MPU6050_I2C.o)
 .comment       0x00000000       0x71 .\CortexM3\ARM_GCC_493\Debug\Ball.a(MPU6050_I2C_INT.o)
 .comment       0x00000000       0x71 .\CortexM3\ARM_GCC_493\Debug\Ball.a(MPU6050_I2C_PM.o)
 .comment       0x00000000       0x71 .\CortexM3\ARM_GCC_493\Debug\Ball.a(MPU6050_I2C_MASTER.o)
 .comment       0x00000000       0x71 .\CortexM3\ARM_GCC_493\Debug\Ball.a(Drive_DC_Motor_Quad_Dec.o)
 .comment       0x00000000       0x71 .\CortexM3\ARM_GCC_493\Debug\Ball.a(Drive_DC_Motor_Quad_Dec_Cnt16.o)
 .comment       0x00000000       0x71 .\CortexM3\ARM_GCC_493\Debug\Ball.a(Pendulum_DC_Motor_Quad_Dec.o)
 .comment       0x00000000       0x71 .\CortexM3\ARM_GCC_493\Debug\Ball.a(Pendulum_DC_Motor_Quad_Dec_Cnt16.o)
 .comment       0x00000000       0x71 .\CortexM3\ARM_GCC_493\Debug\Ball.a(Status_LED.o)
 .comment       0x00000000       0x71 .\CortexM3\ARM_GCC_493\Debug\Ball.a(Head_Servo_PWM.o)
 .comment       0x00000000       0x71 .\CortexM3\ARM_GCC_493\Debug\Ball.a(CyFlash.o)
 .comment       0x00000000       0x71 .\CortexM3\ARM_GCC_493\Debug\Ball.a(CySpc.o)
 .comment       0x00000000       0x71 .\CortexM3\ARM_GCC_493\Debug\Ball.a(cyutils.o)

.debug_weaknames
 *(.debug_weaknames)

.debug_funcnames
 *(.debug_funcnames)

.debug_typenames
 *(.debug_typenames)

.debug_varnames
 *(.debug_varnames)

.note.gnu.arm.ident
 *(.note.gnu.arm.ident)

.ARM.attributes
                0x00000000       0x29
 *(.ARM.attributes)
 .ARM.attributes
                0x00000000       0x1d c:/program files (x86)/cypress/psoc creator/3.3/psoc creator/import/gnu/arm/4.9.3/bin/../lib/gcc/arm-none-eabi/4.9.3/armv7-m/crti.o
 .ARM.attributes
                0x0000001d       0x2d c:/program files (x86)/cypress/psoc creator/3.3/psoc creator/import/gnu/arm/4.9.3/bin/../lib/gcc/arm-none-eabi/4.9.3/armv7-m/crtbegin.o
 .ARM.attributes
                0x0000004a       0x1b c:/program files (x86)/cypress/psoc creator/3.3/psoc creator/import/gnu/arm/4.9.3/bin/../lib/gcc/arm-none-eabi/4.9.3/../../../../arm-none-eabi/lib/armv7-m/crt0.o
 .ARM.attributes
                0x00000065       0x33 .\CortexM3\ARM_GCC_493\Debug\main.o
 .ARM.attributes
                0x00000098       0x33 .\CortexM3\ARM_GCC_493\Debug\milliseconds.o
 .ARM.attributes
                0x000000cb       0x33 .\CortexM3\ARM_GCC_493\Debug\rc_ch.o
 .ARM.attributes
                0x000000fe       0x33 .\CortexM3\ARM_GCC_493\Debug\dc_motor.o
 .ARM.attributes
                0x00000131       0x33 .\CortexM3\ARM_GCC_493\Debug\mpu6050.o
 .ARM.attributes
                0x00000164       0x33 .\CortexM3\ARM_GCC_493\Debug\i2cFunctions.o
 .ARM.attributes
                0x00000197       0x33 .\CortexM3\ARM_GCC_493\Debug\imu.o
 .ARM.attributes
                0x000001ca       0x33 .\CortexM3\ARM_GCC_493\Debug\pid.o
 .ARM.attributes
                0x000001fd       0x33 .\CortexM3\ARM_GCC_493\Debug\servo.o
 .ARM.attributes
                0x00000230       0x33 .\CortexM3\ARM_GCC_493\Debug\cymetadata.o
 .ARM.attributes
                0x00000263       0x33 .\CortexM3\ARM_GCC_493\Debug\Cm3Start.o
 .ARM.attributes
                0x00000296       0x33 .\CortexM3\ARM_GCC_493\Debug\Ball.a(cyfitter_cfg.o)
 .ARM.attributes
                0x000002c9       0x21 .\CortexM3\ARM_GCC_493\Debug\Ball.a(CyBootAsmGnu.o)
 .ARM.attributes
                0x000002ea       0x33 .\CortexM3\ARM_GCC_493\Debug\Ball.a(CyLib.o)
 .ARM.attributes
                0x0000031d       0x33 .\CortexM3\ARM_GCC_493\Debug\Ball.a(cyPm.o)
 .ARM.attributes
                0x00000350       0x33 .\CortexM3\ARM_GCC_493\Debug\Ball.a(RC_Ch2_Timer.o)
 .ARM.attributes
                0x00000383       0x33 .\CortexM3\ARM_GCC_493\Debug\Ball.a(RC_Ch2_Timer_Interrupt.o)
 .ARM.attributes
                0x000003b6       0x33 .\CortexM3\ARM_GCC_493\Debug\Ball.a(Clock_Millis_Interrupt.o)
 .ARM.attributes
                0x000003e9       0x33 .\CortexM3\ARM_GCC_493\Debug\Ball.a(RC_Ch1.o)
 .ARM.attributes
                0x0000041c       0x33 .\CortexM3\ARM_GCC_493\Debug\Ball.a(RC_Ch1_Timer.o)
 .ARM.attributes
                0x0000044f       0x33 .\CortexM3\ARM_GCC_493\Debug\Ball.a(RC_Ch2.o)
 .ARM.attributes
                0x00000482       0x33 .\CortexM3\ARM_GCC_493\Debug\Ball.a(RC_Ch1_Timer_Interrupt.o)
 .ARM.attributes
                0x000004b5       0x33 .\CortexM3\ARM_GCC_493\Debug\Ball.a(RC_Ch4_Timer.o)
 .ARM.attributes
                0x000004e8       0x33 .\CortexM3\ARM_GCC_493\Debug\Ball.a(RC_Ch4.o)
 .ARM.attributes
                0x0000051b       0x33 .\CortexM3\ARM_GCC_493\Debug\Ball.a(RC_Ch4_Timer_Interrupt.o)
 .ARM.attributes
                0x0000054e       0x33 .\CortexM3\ARM_GCC_493\Debug\Ball.a(RC_Ch3_Timer.o)
 .ARM.attributes
                0x00000581       0x33 .\CortexM3\ARM_GCC_493\Debug\Ball.a(RC_Ch3.o)
 .ARM.attributes
                0x000005b4       0x33 .\CortexM3\ARM_GCC_493\Debug\Ball.a(RC_Ch3_Timer_Interrupt.o)
 .ARM.attributes
                0x000005e7       0x33 .\CortexM3\ARM_GCC_493\Debug\Ball.a(Drive_DC_Motor_PWM.o)
 .ARM.attributes
                0x0000061a       0x33 .\CortexM3\ARM_GCC_493\Debug\Ball.a(Pendulum_DC_Motor_PWM.o)
 .ARM.attributes
                0x0000064d       0x33 .\CortexM3\ARM_GCC_493\Debug\Ball.a(Flywheel_DC_Motor_PWM.o)
 .ARM.attributes
                0x00000680       0x33 .\CortexM3\ARM_GCC_493\Debug\Ball.a(MPU6050_I2C.o)
 .ARM.attributes
                0x000006b3       0x33 .\CortexM3\ARM_GCC_493\Debug\Ball.a(MPU6050_I2C_INT.o)
 .ARM.attributes
                0x000006e6       0x33 .\CortexM3\ARM_GCC_493\Debug\Ball.a(MPU6050_I2C_PM.o)
 .ARM.attributes
                0x00000719       0x33 .\CortexM3\ARM_GCC_493\Debug\Ball.a(MPU6050_I2C_MASTER.o)
 .ARM.attributes
                0x0000074c       0x33 .\CortexM3\ARM_GCC_493\Debug\Ball.a(Drive_DC_Motor_Quad_Dec.o)
 .ARM.attributes
                0x0000077f       0x33 .\CortexM3\ARM_GCC_493\Debug\Ball.a(Drive_DC_Motor_Quad_Dec_Cnt16.o)
 .ARM.attributes
                0x000007b2       0x33 .\CortexM3\ARM_GCC_493\Debug\Ball.a(Pendulum_DC_Motor_Quad_Dec.o)
 .ARM.attributes
                0x000007e5       0x33 .\CortexM3\ARM_GCC_493\Debug\Ball.a(Pendulum_DC_Motor_Quad_Dec_Cnt16.o)
 .ARM.attributes
                0x00000818       0x33 .\CortexM3\ARM_GCC_493\Debug\Ball.a(Status_LED.o)
 .ARM.attributes
                0x0000084b       0x33 .\CortexM3\ARM_GCC_493\Debug\Ball.a(Head_Servo_PWM.o)
 .ARM.attributes
                0x0000087e       0x33 .\CortexM3\ARM_GCC_493\Debug\Ball.a(CyFlash.o)
 .ARM.attributes
                0x000008b1       0x33 .\CortexM3\ARM_GCC_493\Debug\Ball.a(CySpc.o)
 .ARM.attributes
                0x000008e4       0x33 .\CortexM3\ARM_GCC_493\Debug\Ball.a(cyutils.o)
 .ARM.attributes
                0x00000917       0x2d c:/program files (x86)/cypress/psoc creator/3.3/psoc creator/import/gnu/arm/4.9.3/bin/../lib/gcc/arm-none-eabi/4.9.3/../../../../arm-none-eabi/lib/armv7-m\libm.a(lib_a-w_atan2.o)
 .ARM.attributes
                0x00000944       0x2d c:/program files (x86)/cypress/psoc creator/3.3/psoc creator/import/gnu/arm/4.9.3/bin/../lib/gcc/arm-none-eabi/4.9.3/../../../../arm-none-eabi/lib/armv7-m\libm.a(lib_a-e_atan2.o)
 .ARM.attributes
                0x00000971       0x2d c:/program files (x86)/cypress/psoc creator/3.3/psoc creator/import/gnu/arm/4.9.3/bin/../lib/gcc/arm-none-eabi/4.9.3/../../../../arm-none-eabi/lib/armv7-m\libm.a(lib_a-s_atan.o)
 .ARM.attributes
                0x0000099e       0x2d c:/program files (x86)/cypress/psoc creator/3.3/psoc creator/import/gnu/arm/4.9.3/bin/../lib/gcc/arm-none-eabi/4.9.3/../../../../arm-none-eabi/lib/armv7-m\libm.a(lib_a-s_fabs.o)
 .ARM.attributes
                0x000009cb       0x1d c:/program files (x86)/cypress/psoc creator/3.3/psoc creator/import/gnu/arm/4.9.3/bin/../lib/gcc/arm-none-eabi/4.9.3/armv7-m\libgcc.a(_arm_addsubdf3.o)
 .ARM.attributes
                0x000009e8       0x1d c:/program files (x86)/cypress/psoc creator/3.3/psoc creator/import/gnu/arm/4.9.3/bin/../lib/gcc/arm-none-eabi/4.9.3/armv7-m\libgcc.a(_arm_muldivdf3.o)
 .ARM.attributes
                0x00000a05       0x1d c:/program files (x86)/cypress/psoc creator/3.3/psoc creator/import/gnu/arm/4.9.3/bin/../lib/gcc/arm-none-eabi/4.9.3/armv7-m\libgcc.a(_arm_cmpdf2.o)
 .ARM.attributes
                0x00000a22       0x1d c:/program files (x86)/cypress/psoc creator/3.3/psoc creator/import/gnu/arm/4.9.3/bin/../lib/gcc/arm-none-eabi/4.9.3/armv7-m\libgcc.a(_arm_fixdfsi.o)
 .ARM.attributes
                0x00000a3f       0x1d c:/program files (x86)/cypress/psoc creator/3.3/psoc creator/import/gnu/arm/4.9.3/bin/../lib/gcc/arm-none-eabi/4.9.3/armv7-m\libgcc.a(_arm_truncdfsf2.o)
 .ARM.attributes
                0x00000a5c       0x1d c:/program files (x86)/cypress/psoc creator/3.3/psoc creator/import/gnu/arm/4.9.3/bin/../lib/gcc/arm-none-eabi/4.9.3/armv7-m\libgcc.a(_arm_addsubsf3.o)
 .ARM.attributes
                0x00000a79       0x1d c:/program files (x86)/cypress/psoc creator/3.3/psoc creator/import/gnu/arm/4.9.3/bin/../lib/gcc/arm-none-eabi/4.9.3/armv7-m\libgcc.a(_arm_muldivsf3.o)
 .ARM.attributes
                0x00000a96       0x1d c:/program files (x86)/cypress/psoc creator/3.3/psoc creator/import/gnu/arm/4.9.3/bin/../lib/gcc/arm-none-eabi/4.9.3/armv7-m\libgcc.a(_arm_cmpsf2.o)
 .ARM.attributes
                0x00000ab3       0x1d c:/program files (x86)/cypress/psoc creator/3.3/psoc creator/import/gnu/arm/4.9.3/bin/../lib/gcc/arm-none-eabi/4.9.3/armv7-m\libgcc.a(_arm_fixsfsi.o)
 .ARM.attributes
                0x00000ad0       0x2d c:/program files (x86)/cypress/psoc creator/3.3/psoc creator/import/gnu/arm/4.9.3/bin/../lib/gcc/arm-none-eabi/4.9.3/../../../../arm-none-eabi/lib/armv7-m\libg_nano.a(lib_a-errno.o)
 .ARM.attributes
                0x00000afd       0x2d c:/program files (x86)/cypress/psoc creator/3.3/psoc creator/import/gnu/arm/4.9.3/bin/../lib/gcc/arm-none-eabi/4.9.3/../../../../arm-none-eabi/lib/armv7-m\libg_nano.a(lib_a-exit.o)
 .ARM.attributes
                0x00000b2a       0x2d c:/program files (x86)/cypress/psoc creator/3.3/psoc creator/import/gnu/arm/4.9.3/bin/../lib/gcc/arm-none-eabi/4.9.3/../../../../arm-none-eabi/lib/armv7-m\libg_nano.a(lib_a-impure.o)
 .ARM.attributes
                0x00000b57       0x2d c:/program files (x86)/cypress/psoc creator/3.3/psoc creator/import/gnu/arm/4.9.3/bin/../lib/gcc/arm-none-eabi/4.9.3/../../../../arm-none-eabi/lib/armv7-m\libg_nano.a(lib_a-init.o)
 .ARM.attributes
                0x00000b84       0x2d c:/program files (x86)/cypress/psoc creator/3.3/psoc creator/import/gnu/arm/4.9.3/bin/../lib/gcc/arm-none-eabi/4.9.3/../../../../arm-none-eabi/lib/armv7-m\libg_nano.a(lib_a-memcpy.o)
 .ARM.attributes
                0x00000bb1       0x2d c:/program files (x86)/cypress/psoc creator/3.3/psoc creator/import/gnu/arm/4.9.3/bin/../lib/gcc/arm-none-eabi/4.9.3/../../../../arm-none-eabi/lib/armv7-m\libg_nano.a(lib_a-memset.o)
 .ARM.attributes
                0x00000bde       0x2d c:/program files (x86)/cypress/psoc creator/3.3/psoc creator/import/gnu/arm/4.9.3/bin/../lib/gcc/arm-none-eabi/4.9.3/armv7-m/crtend.o
 .ARM.attributes
                0x00000c0b       0x1d c:/program files (x86)/cypress/psoc creator/3.3/psoc creator/import/gnu/arm/4.9.3/bin/../lib/gcc/arm-none-eabi/4.9.3/armv7-m/crtn.o

/DISCARD/
 *(.note.GNU-stack)
OUTPUT(.\CortexM3\ARM_GCC_493\Debug\Ball.elf elf32-littlearm)
