ARM GAS  C:\Users\Michael\AppData\Local\Temp\cc1nEUpX.s 			page 1


   1              		.syntax unified
   2              		.cpu cortex-m3
   3              		.fpu softvfp
   4              		.eabi_attribute 20, 1
   5              		.eabi_attribute 21, 1
   6              		.eabi_attribute 23, 3
   7              		.eabi_attribute 24, 1
   8              		.eabi_attribute 25, 1
   9              		.eabi_attribute 26, 1
  10              		.eabi_attribute 30, 1
  11              		.eabi_attribute 34, 1
  12              		.eabi_attribute 18, 4
  13              		.thumb
  14              		.file	"dc_motor.c"
  15              		.text
  16              	.Ltext0:
  17              		.cfi_sections	.debug_frame
  18              		.section	.text.init_dc_motors,"ax",%progbits
  19              		.align	2
  20              		.global	init_dc_motors
  21              		.thumb
  22              		.thumb_func
  23              		.type	init_dc_motors, %function
  24              	init_dc_motors:
  25              	.LFB63:
  26              		.file 1 ".\\dc_motor.c"
   1:.\dc_motor.c  **** /* ========================================
   2:.\dc_motor.c  ****  *
   3:.\dc_motor.c  ****  * Copyright YOUR COMPANY, THE YEAR
   4:.\dc_motor.c  ****  * All Rights Reserved
   5:.\dc_motor.c  ****  * UNPUBLISHED, LICENSED SOFTWARE.
   6:.\dc_motor.c  ****  *
   7:.\dc_motor.c  ****  * CONFIDENTIAL AND PROPRIETARY INFORMATION
   8:.\dc_motor.c  ****  * WHICH IS THE PROPERTY OF your company.
   9:.\dc_motor.c  ****  *
  10:.\dc_motor.c  ****  * ========================================
  11:.\dc_motor.c  **** */
  12:.\dc_motor.c  **** #include "project.h"
  13:.\dc_motor.c  **** #include "dc_motor.h"
  14:.\dc_motor.c  **** 
  15:.\dc_motor.c  **** const int NUM_DC_MOTORS = 3;
  16:.\dc_motor.c  **** 
  17:.\dc_motor.c  **** void init_dc_motors() {
  27              		.loc 1 17 0
  28              		.cfi_startproc
  29              		@ args = 0, pretend = 0, frame = 0
  30              		@ frame_needed = 0, uses_anonymous_args = 0
  31 0000 08B5     		push	{r3, lr}
  32              		.cfi_def_cfa_offset 8
  33              		.cfi_offset 3, -8
  34              		.cfi_offset 14, -4
  18:.\dc_motor.c  ****     Drive_DC_Motor_PWM_Start();
  35              		.loc 1 18 0
  36 0002 FFF7FEFF 		bl	Drive_DC_Motor_PWM_Start
  37              	.LVL0:
  19:.\dc_motor.c  ****     Pendulum_DC_Motor_PWM_Start();
  38              		.loc 1 19 0
ARM GAS  C:\Users\Michael\AppData\Local\Temp\cc1nEUpX.s 			page 2


  39 0006 FFF7FEFF 		bl	Pendulum_DC_Motor_PWM_Start
  40              	.LVL1:
  20:.\dc_motor.c  ****     Flywheel_DC_Motor_PWM_Start();
  41              		.loc 1 20 0
  42 000a FFF7FEFF 		bl	Flywheel_DC_Motor_PWM_Start
  43              	.LVL2:
  44 000e 08BD     		pop	{r3, pc}
  45              		.cfi_endproc
  46              	.LFE63:
  47              		.size	init_dc_motors, .-init_dc_motors
  48              		.section	.text.construct_dc_motor,"ax",%progbits
  49              		.align	2
  50              		.global	construct_dc_motor
  51              		.thumb
  52              		.thumb_func
  53              		.type	construct_dc_motor, %function
  54              	construct_dc_motor:
  55              	.LFB64:
  21:.\dc_motor.c  **** }
  22:.\dc_motor.c  **** 
  23:.\dc_motor.c  **** void construct_dc_motor(DC_MOTOR *dc_motor, uint8 motor_id) {
  56              		.loc 1 23 0
  57              		.cfi_startproc
  58              		@ args = 0, pretend = 0, frame = 0
  59              		@ frame_needed = 0, uses_anonymous_args = 0
  60              		@ link register save eliminated.
  61              	.LVL3:
  24:.\dc_motor.c  ****     dc_motor->motor_id = motor_id;
  62              		.loc 1 24 0
  63 0000 0170     		strb	r1, [r0]
  25:.\dc_motor.c  ****     dc_motor->motor_pwm = 0;
  64              		.loc 1 25 0
  65 0002 0023     		movs	r3, #0
  66 0004 4380     		strh	r3, [r0, #2]	@ movhi
  67 0006 7047     		bx	lr
  68              		.cfi_endproc
  69              	.LFE64:
  70              		.size	construct_dc_motor, .-construct_dc_motor
  71              		.section	.text.run_motor,"ax",%progbits
  72              		.align	2
  73              		.global	run_motor
  74              		.thumb
  75              		.thumb_func
  76              		.type	run_motor, %function
  77              	run_motor:
  78              	.LFB65:
  26:.\dc_motor.c  **** }
  27:.\dc_motor.c  **** 
  28:.\dc_motor.c  **** void run_motor(DC_MOTOR *dc_motor, int16 motor_pwm) {
  79              		.loc 1 28 0
  80              		.cfi_startproc
  81              		@ args = 0, pretend = 0, frame = 0
  82              		@ frame_needed = 0, uses_anonymous_args = 0
  83              	.LVL4:
  84 0000 10B5     		push	{r4, lr}
  85              		.cfi_def_cfa_offset 8
  86              		.cfi_offset 4, -8
ARM GAS  C:\Users\Michael\AppData\Local\Temp\cc1nEUpX.s 			page 3


  87              		.cfi_offset 14, -4
  88 0002 0C46     		mov	r4, r1
  29:.\dc_motor.c  ****     if (dc_motor->motor_id == DRIVE_DC_MOTOR) {
  89              		.loc 1 29 0
  90 0004 0378     		ldrb	r3, [r0]	@ zero_extendqisi2
  91 0006 E3B9     		cbnz	r3, .L5
  30:.\dc_motor.c  ****         if (motor_pwm < 0) {
  92              		.loc 1 30 0
  93 0008 0029     		cmp	r1, #0
  94 000a 0ADA     		bge	.L6
  95              	.LBB2:
  31:.\dc_motor.c  ****             Drive_DC_Motor_PWM_WriteCompare1(abs(motor_pwm));
  96              		.loc 1 31 0
  97 000c 81EAE170 		eor	r0, r1, r1, asr #31
  98              	.LVL5:
  99 0010 A0EBE170 		sub	r0, r0, r1, asr #31
 100 0014 C0B2     		uxtb	r0, r0
 101 0016 FFF7FEFF 		bl	Drive_DC_Motor_PWM_WriteCompare1
 102              	.LVL6:
  32:.\dc_motor.c  ****             Drive_DC_Motor_PWM_WriteCompare2(0);
 103              		.loc 1 32 0
 104 001a 0020     		movs	r0, #0
 105 001c FFF7FEFF 		bl	Drive_DC_Motor_PWM_WriteCompare2
 106              	.LVL7:
 107              	.LBE2:
 108 0020 10BD     		pop	{r4, pc}
 109              	.LVL8:
 110              	.L6:
  33:.\dc_motor.c  ****         } else if (motor_pwm > 0) {
 111              		.loc 1 33 0
 112 0022 0029     		cmp	r1, #0
 113 0024 06DD     		ble	.L8
  34:.\dc_motor.c  ****             Drive_DC_Motor_PWM_WriteCompare1(0);
 114              		.loc 1 34 0
 115 0026 0020     		movs	r0, #0
 116              	.LVL9:
 117 0028 FFF7FEFF 		bl	Drive_DC_Motor_PWM_WriteCompare1
 118              	.LVL10:
  35:.\dc_motor.c  ****             Drive_DC_Motor_PWM_WriteCompare2(motor_pwm);
 119              		.loc 1 35 0
 120 002c E0B2     		uxtb	r0, r4
 121 002e FFF7FEFF 		bl	Drive_DC_Motor_PWM_WriteCompare2
 122              	.LVL11:
 123 0032 10BD     		pop	{r4, pc}
 124              	.LVL12:
 125              	.L8:
  36:.\dc_motor.c  ****         } else {
  37:.\dc_motor.c  ****             Drive_DC_Motor_PWM_WriteCompare1(0);
 126              		.loc 1 37 0
 127 0034 0020     		movs	r0, #0
 128              	.LVL13:
 129 0036 FFF7FEFF 		bl	Drive_DC_Motor_PWM_WriteCompare1
 130              	.LVL14:
  38:.\dc_motor.c  ****             Drive_DC_Motor_PWM_WriteCompare2(0);
 131              		.loc 1 38 0
 132 003a 0020     		movs	r0, #0
 133 003c FFF7FEFF 		bl	Drive_DC_Motor_PWM_WriteCompare2
ARM GAS  C:\Users\Michael\AppData\Local\Temp\cc1nEUpX.s 			page 4


 134              	.LVL15:
 135 0040 10BD     		pop	{r4, pc}
 136              	.LVL16:
 137              	.L5:
  39:.\dc_motor.c  ****         }
  40:.\dc_motor.c  ****     } else if (dc_motor->motor_id == PENDULUM_DC_MOTOR) {
 138              		.loc 1 40 0
 139 0042 012B     		cmp	r3, #1
 140 0044 1CD1     		bne	.L9
  41:.\dc_motor.c  ****         if (motor_pwm < 0) {
 141              		.loc 1 41 0
 142 0046 0029     		cmp	r1, #0
 143 0048 0ADA     		bge	.L10
 144              	.LBB3:
  42:.\dc_motor.c  ****             Pendulum_DC_Motor_PWM_WriteCompare1(abs(motor_pwm));
 145              		.loc 1 42 0
 146 004a 81EAE170 		eor	r0, r1, r1, asr #31
 147              	.LVL17:
 148 004e A0EBE170 		sub	r0, r0, r1, asr #31
 149 0052 C0B2     		uxtb	r0, r0
 150 0054 FFF7FEFF 		bl	Pendulum_DC_Motor_PWM_WriteCompare1
 151              	.LVL18:
  43:.\dc_motor.c  ****             Pendulum_DC_Motor_PWM_WriteCompare2(0);
 152              		.loc 1 43 0
 153 0058 0020     		movs	r0, #0
 154 005a FFF7FEFF 		bl	Pendulum_DC_Motor_PWM_WriteCompare2
 155              	.LVL19:
 156              	.LBE3:
 157 005e 10BD     		pop	{r4, pc}
 158              	.LVL20:
 159              	.L10:
  44:.\dc_motor.c  ****         } else if (motor_pwm > 0) {
 160              		.loc 1 44 0
 161 0060 0029     		cmp	r1, #0
 162 0062 06DD     		ble	.L11
  45:.\dc_motor.c  ****             Pendulum_DC_Motor_PWM_WriteCompare1(0);
 163              		.loc 1 45 0
 164 0064 0020     		movs	r0, #0
 165              	.LVL21:
 166 0066 FFF7FEFF 		bl	Pendulum_DC_Motor_PWM_WriteCompare1
 167              	.LVL22:
  46:.\dc_motor.c  ****             Pendulum_DC_Motor_PWM_WriteCompare2(motor_pwm);
 168              		.loc 1 46 0
 169 006a E0B2     		uxtb	r0, r4
 170 006c FFF7FEFF 		bl	Pendulum_DC_Motor_PWM_WriteCompare2
 171              	.LVL23:
 172 0070 10BD     		pop	{r4, pc}
 173              	.LVL24:
 174              	.L11:
  47:.\dc_motor.c  ****         } else {
  48:.\dc_motor.c  ****             Pendulum_DC_Motor_PWM_WriteCompare1(0);
 175              		.loc 1 48 0
 176 0072 0020     		movs	r0, #0
 177              	.LVL25:
 178 0074 FFF7FEFF 		bl	Pendulum_DC_Motor_PWM_WriteCompare1
 179              	.LVL26:
  49:.\dc_motor.c  ****             Pendulum_DC_Motor_PWM_WriteCompare2(0);
ARM GAS  C:\Users\Michael\AppData\Local\Temp\cc1nEUpX.s 			page 5


 180              		.loc 1 49 0
 181 0078 0020     		movs	r0, #0
 182 007a FFF7FEFF 		bl	Pendulum_DC_Motor_PWM_WriteCompare2
 183              	.LVL27:
 184 007e 10BD     		pop	{r4, pc}
 185              	.LVL28:
 186              	.L9:
  50:.\dc_motor.c  ****         }
  51:.\dc_motor.c  ****     } else if (dc_motor->motor_id == FLYWHEEL_DC_MOTOR) {
 187              		.loc 1 51 0
 188 0080 022B     		cmp	r3, #2
 189 0082 1BD1     		bne	.L4
  52:.\dc_motor.c  ****         if (motor_pwm < 0) {
 190              		.loc 1 52 0
 191 0084 0029     		cmp	r1, #0
 192 0086 0ADA     		bge	.L12
 193              	.LBB4:
  53:.\dc_motor.c  ****             Flywheel_DC_Motor_PWM_WriteCompare1(abs(motor_pwm));
 194              		.loc 1 53 0
 195 0088 81EAE170 		eor	r0, r1, r1, asr #31
 196              	.LVL29:
 197 008c A0EBE170 		sub	r0, r0, r1, asr #31
 198 0090 C0B2     		uxtb	r0, r0
 199 0092 FFF7FEFF 		bl	Flywheel_DC_Motor_PWM_WriteCompare1
 200              	.LVL30:
  54:.\dc_motor.c  ****             Flywheel_DC_Motor_PWM_WriteCompare2(0);
 201              		.loc 1 54 0
 202 0096 0020     		movs	r0, #0
 203 0098 FFF7FEFF 		bl	Flywheel_DC_Motor_PWM_WriteCompare2
 204              	.LVL31:
 205              	.LBE4:
 206 009c 10BD     		pop	{r4, pc}
 207              	.LVL32:
 208              	.L12:
  55:.\dc_motor.c  ****         } else if (motor_pwm > 0) {
 209              		.loc 1 55 0
 210 009e 0029     		cmp	r1, #0
 211 00a0 06DD     		ble	.L13
  56:.\dc_motor.c  ****             Flywheel_DC_Motor_PWM_WriteCompare1(0);
 212              		.loc 1 56 0
 213 00a2 0020     		movs	r0, #0
 214              	.LVL33:
 215 00a4 FFF7FEFF 		bl	Flywheel_DC_Motor_PWM_WriteCompare1
 216              	.LVL34:
  57:.\dc_motor.c  ****             Flywheel_DC_Motor_PWM_WriteCompare2(motor_pwm);
 217              		.loc 1 57 0
 218 00a8 E0B2     		uxtb	r0, r4
 219 00aa FFF7FEFF 		bl	Flywheel_DC_Motor_PWM_WriteCompare2
 220              	.LVL35:
 221 00ae 10BD     		pop	{r4, pc}
 222              	.LVL36:
 223              	.L13:
  58:.\dc_motor.c  ****         } else {
  59:.\dc_motor.c  ****             Flywheel_DC_Motor_PWM_WriteCompare1(0);
 224              		.loc 1 59 0
 225 00b0 0020     		movs	r0, #0
 226              	.LVL37:
ARM GAS  C:\Users\Michael\AppData\Local\Temp\cc1nEUpX.s 			page 6


 227 00b2 FFF7FEFF 		bl	Flywheel_DC_Motor_PWM_WriteCompare1
 228              	.LVL38:
  60:.\dc_motor.c  ****             Flywheel_DC_Motor_PWM_WriteCompare2(0);
 229              		.loc 1 60 0
 230 00b6 0020     		movs	r0, #0
 231 00b8 FFF7FEFF 		bl	Flywheel_DC_Motor_PWM_WriteCompare2
 232              	.LVL39:
 233              	.L4:
 234 00bc 10BD     		pop	{r4, pc}
 235              		.cfi_endproc
 236              	.LFE65:
 237              		.size	run_motor, .-run_motor
 238              		.global	NUM_DC_MOTORS
 239 00be 00BF     		.section	.rodata
 240              		.align	2
 241              		.type	NUM_DC_MOTORS, %object
 242              		.size	NUM_DC_MOTORS, 4
 243              	NUM_DC_MOTORS:
 244 0000 03000000 		.word	3
 245              		.text
 246              	.Letext0:
 247              		.file 2 "c:\\program files (x86)\\cypress\\psoc creator\\3.3\\psoc creator\\import\\gnu\\arm\\4.9.
 248              		.file 3 "c:\\program files (x86)\\cypress\\psoc creator\\3.3\\psoc creator\\import\\gnu\\arm\\4.9.
 249              		.file 4 "Generated_Source\\PSoC5/cytypes.h"
 250              		.file 5 ".\\dc_motor.h"
 251              		.file 6 "<built-in>"
 252              		.file 7 "Generated_Source\\PSoC5/core_cm3.h"
 253              		.file 8 "Generated_Source\\PSoC5/Drive_DC_Motor_PWM.h"
 254              		.file 9 "Generated_Source\\PSoC5/Pendulum_DC_Motor_PWM.h"
 255              		.file 10 "Generated_Source\\PSoC5/Flywheel_DC_Motor_PWM.h"