ARM GAS  C:\Users\Michael\AppData\Local\Temp\ccKHd7z8.s 			page 1


   1              		.syntax unified
   2              		.cpu cortex-m3
   3              		.fpu softvfp
   4              		.eabi_attribute 20, 1
   5              		.eabi_attribute 21, 1
   6              		.eabi_attribute 23, 3
   7              		.eabi_attribute 24, 1
   8              		.eabi_attribute 25, 1
   9              		.eabi_attribute 26, 1
  10              		.eabi_attribute 30, 1
  11              		.eabi_attribute 34, 1
  12              		.eabi_attribute 18, 4
  13              		.thumb
  14              		.file	"i2cFunctions.c"
  15              		.text
  16              	.Ltext0:
  17              		.cfi_sections	.debug_frame
  18              		.section	.text.I2CReadBytes,"ax",%progbits
  19              		.align	2
  20              		.global	I2CReadBytes
  21              		.thumb
  22              		.thumb_func
  23              		.type	I2CReadBytes, %function
  24              	I2CReadBytes:
  25              	.LFB63:
  26              		.file 1 ".\\i2cFunctions.c"
   1:.\i2cFunctions.c **** /*****************************************************************************
   2:.\i2cFunctions.c **** * File Name: i2cFunctions.c
   3:.\i2cFunctions.c **** * 
   4:.\i2cFunctions.c **** * Version 1.0
   5:.\i2cFunctions.c **** *
   6:.\i2cFunctions.c **** * Description:
   7:.\i2cFunctions.c **** *  
   8:.\i2cFunctions.c **** *
   9:.\i2cFunctions.c **** * Hardware Dependency:
  10:.\i2cFunctions.c **** * 	PSoC 6 Kit CY8CKIT-062
  11:.\i2cFunctions.c **** *
  12:.\i2cFunctions.c **** * Code Tested With:
  13:.\i2cFunctions.c **** * 	Creator 3.3
  14:.\i2cFunctions.c **** *
  15:.\i2cFunctions.c **** ******************************************************************************
  16:.\i2cFunctions.c **** * Copyright (2016), Cypress Semiconductor Corporation.
  17:.\i2cFunctions.c **** ******************************************************************************
  18:.\i2cFunctions.c **** * This software is owned by Cypress Semiconductor Corporation (Cypress) and is
  19:.\i2cFunctions.c **** * protected by and subject to worldwide patent protection (United States and
  20:.\i2cFunctions.c **** * foreign), United States copyright laws and international treaty provisions.
  21:.\i2cFunctions.c **** * Cypress hereby grants to licensee a personal, non-exclusive, non-transferable
  22:.\i2cFunctions.c **** * license to copy, use, modify, create derivative works of, and compile the
  23:.\i2cFunctions.c **** * Cypress Source Code and derivative works for the sole purpose of creating
  24:.\i2cFunctions.c **** * custom software in support of licensee product to be used only in conjunction
  25:.\i2cFunctions.c **** * with a Cypress integrated circuit as specified in the applicable agreement.
  26:.\i2cFunctions.c **** * Any reproduction, modification, translation, compilation, or representation of
  27:.\i2cFunctions.c **** * this software except as specified above is prohibited without the express
  28:.\i2cFunctions.c **** * written permission of Cypress.
  29:.\i2cFunctions.c **** *
  30:.\i2cFunctions.c **** * Disclaimer: CYPRESS MAKES NO WARRANTY OF ANY KIND, EXPRESS OR IMPLIED, WITH
  31:.\i2cFunctions.c **** * REGARD TO THIS MATERIAL, INCLUDING, BUT NOT LIMITED TO, THE IMPLIED
ARM GAS  C:\Users\Michael\AppData\Local\Temp\ccKHd7z8.s 			page 2


  32:.\i2cFunctions.c **** * WARRANTIES OF MERCHANTABILITY AND FITNESS FOR A PARTICULAR PURPOSE.
  33:.\i2cFunctions.c **** * Cypress reserves the right to make changes without further notice to the
  34:.\i2cFunctions.c **** * materials described herein. Cypress does not assume any liability arising out
  35:.\i2cFunctions.c **** * of the application or use of any product or circuit described herein. Cypress
  36:.\i2cFunctions.c **** * does not authorize its products for use as critical components in life-support
  37:.\i2cFunctions.c **** * systems where a malfunction or failure may reasonably be expected to result in
  38:.\i2cFunctions.c **** * significant injury to the user. The inclusion of Cypress' product in a life-
  39:.\i2cFunctions.c **** * support systems application implies that the manufacturer assumes all risk of
  40:.\i2cFunctions.c **** * such use and in doing so indemnifies Cypress against all charges. Use may be
  41:.\i2cFunctions.c **** * limited by and subject to the applicable Cypress software license agreement.
  42:.\i2cFunctions.c **** *****************************************************************************/
  43:.\i2cFunctions.c **** #include <project.h>
  44:.\i2cFunctions.c **** 
  45:.\i2cFunctions.c **** uint8_t temp_value = 0;
  46:.\i2cFunctions.c **** 
  47:.\i2cFunctions.c **** void I2CReadBytes(uint8_t devAddr, uint8_t regAddr, uint8_t length, uint8_t *value)
  48:.\i2cFunctions.c **** {
  27              		.loc 1 48 0
  28              		.cfi_startproc
  29              		@ args = 0, pretend = 0, frame = 0
  30              		@ frame_needed = 0, uses_anonymous_args = 0
  31              	.LVL0:
  32 0000 F8B5     		push	{r3, r4, r5, r6, r7, lr}
  33              		.cfi_def_cfa_offset 24
  34              		.cfi_offset 3, -24
  35              		.cfi_offset 4, -20
  36              		.cfi_offset 5, -16
  37              		.cfi_offset 6, -12
  38              		.cfi_offset 7, -8
  39              		.cfi_offset 14, -4
  40 0002 0446     		mov	r4, r0
  41 0004 0F46     		mov	r7, r1
  42 0006 1546     		mov	r5, r2
  43 0008 1E46     		mov	r6, r3
  44              	.LVL1:
  49:.\i2cFunctions.c **** 	
  50:.\i2cFunctions.c ****     /******************INSERT CODE HERE******CODE 1.1*********/	
  51:.\i2cFunctions.c ****     /* Insert the code to read "length" number of bytes from the device address 
  52:.\i2cFunctions.c ****      * "devAddr" and register address "regAddr" passed to the function. Save this to
  53:.\i2cFunctions.c ****      * the location pointer by the pointer "value"  */
  54:.\i2cFunctions.c ****     
  55:.\i2cFunctions.c ****     
  56:.\i2cFunctions.c ****         uint8 i = 0;
  57:.\i2cFunctions.c ****         MPU6050_I2C_MasterSendStart(devAddr,0);
  45              		.loc 1 57 0
  46 000a 0021     		movs	r1, #0
  47              	.LVL2:
  48 000c FFF7FEFF 		bl	MPU6050_I2C_MasterSendStart
  49              	.LVL3:
  58:.\i2cFunctions.c ****         MPU6050_I2C_MasterWriteByte(regAddr);
  50              		.loc 1 58 0
  51 0010 3846     		mov	r0, r7
  52 0012 FFF7FEFF 		bl	MPU6050_I2C_MasterWriteByte
  53              	.LVL4:
  59:.\i2cFunctions.c ****         MPU6050_I2C_MasterSendRestart(devAddr,1);
  54              		.loc 1 59 0
  55 0016 2046     		mov	r0, r4
ARM GAS  C:\Users\Michael\AppData\Local\Temp\ccKHd7z8.s 			page 3


  56 0018 0121     		movs	r1, #1
  57 001a FFF7FEFF 		bl	MPU6050_I2C_MasterSendRestart
  58              	.LVL5:
  56:.\i2cFunctions.c ****         MPU6050_I2C_MasterSendStart(devAddr,0);
  59              		.loc 1 56 0
  60 001e 0024     		movs	r4, #0
  60:.\i2cFunctions.c ****         while((length - 1))
  61              		.loc 1 60 0
  62 0020 07E0     		b	.L2
  63              	.LVL6:
  64              	.L3:
  61:.\i2cFunctions.c ****         {
  62:.\i2cFunctions.c ****             *(value + i) = MPU6050_I2C_MasterReadByte(MPU6050_I2C_ACK_DATA);
  65              		.loc 1 62 0
  66 0022 0120     		movs	r0, #1
  67 0024 FFF7FEFF 		bl	MPU6050_I2C_MasterReadByte
  68              	.LVL7:
  69 0028 3055     		strb	r0, [r6, r4]
  63:.\i2cFunctions.c ****             i++;
  70              		.loc 1 63 0
  71 002a 0134     		adds	r4, r4, #1
  72              	.LVL8:
  73 002c E4B2     		uxtb	r4, r4
  74              	.LVL9:
  64:.\i2cFunctions.c ****             length--;
  75              		.loc 1 64 0
  76 002e 013D     		subs	r5, r5, #1
  77              	.LVL10:
  78 0030 EDB2     		uxtb	r5, r5
  79              	.LVL11:
  80              	.L2:
  60:.\i2cFunctions.c ****         {
  81              		.loc 1 60 0
  82 0032 012D     		cmp	r5, #1
  83 0034 F5D1     		bne	.L3
  65:.\i2cFunctions.c ****         }
  66:.\i2cFunctions.c ****         *(value + i) = MPU6050_I2C_MasterReadByte(MPU6050_I2C_NAK_DATA);
  84              		.loc 1 66 0
  85 0036 0020     		movs	r0, #0
  86 0038 FFF7FEFF 		bl	MPU6050_I2C_MasterReadByte
  87              	.LVL12:
  88 003c 3055     		strb	r0, [r6, r4]
  67:.\i2cFunctions.c ****         MPU6050_I2C_MasterSendStop();
  89              		.loc 1 67 0
  90 003e FFF7FEFF 		bl	MPU6050_I2C_MasterSendStop
  91              	.LVL13:
  92 0042 F8BD     		pop	{r3, r4, r5, r6, r7, pc}
  93              		.cfi_endproc
  94              	.LFE63:
  95              		.size	I2CReadBytes, .-I2CReadBytes
  96              		.section	.text.I2CWriteBytes,"ax",%progbits
  97              		.align	2
  98              		.global	I2CWriteBytes
  99              		.thumb
 100              		.thumb_func
 101              		.type	I2CWriteBytes, %function
 102              	I2CWriteBytes:
ARM GAS  C:\Users\Michael\AppData\Local\Temp\ccKHd7z8.s 			page 4


 103              	.LFB64:
  68:.\i2cFunctions.c ****     
  69:.\i2cFunctions.c ****     
  70:.\i2cFunctions.c ****     /****************END CODE 1.1 HERE*************************/
  71:.\i2cFunctions.c **** }
  72:.\i2cFunctions.c **** 
  73:.\i2cFunctions.c **** void I2CWriteBytes(uint8_t devAddr, uint8_t regAddr, uint8_t length, uint8_t *value) 
  74:.\i2cFunctions.c **** {
 104              		.loc 1 74 0
 105              		.cfi_startproc
 106              		@ args = 0, pretend = 0, frame = 0
 107              		@ frame_needed = 0, uses_anonymous_args = 0
 108              	.LVL14:
 109 0000 70B5     		push	{r4, r5, r6, lr}
 110              		.cfi_def_cfa_offset 16
 111              		.cfi_offset 4, -16
 112              		.cfi_offset 5, -12
 113              		.cfi_offset 6, -8
 114              		.cfi_offset 14, -4
 115 0002 0D46     		mov	r5, r1
 116 0004 1446     		mov	r4, r2
 117 0006 1E46     		mov	r6, r3
 118              	.LVL15:
  75:.\i2cFunctions.c **** 	
  76:.\i2cFunctions.c ****     /******************INSERT CODE HERE******CODE 1.2*********/
  77:.\i2cFunctions.c ****     /* Insert the code to write "length" number of bytes to the device address 
  78:.\i2cFunctions.c ****      * "devAddr" and register address "regAddr" passed to the function. The data is
  79:.\i2cFunctions.c ****      * available from the location pointer by the pointer "value"  */
  80:.\i2cFunctions.c ****     
  81:.\i2cFunctions.c **** 
  82:.\i2cFunctions.c ****     uint8 i = 0;
  83:.\i2cFunctions.c ****     MPU6050_I2C_MasterSendStart(devAddr,0);
 119              		.loc 1 83 0
 120 0008 0021     		movs	r1, #0
 121              	.LVL16:
 122 000a FFF7FEFF 		bl	MPU6050_I2C_MasterSendStart
 123              	.LVL17:
  84:.\i2cFunctions.c ****     MPU6050_I2C_MasterWriteByte(regAddr);
 124              		.loc 1 84 0
 125 000e 2846     		mov	r0, r5
 126 0010 FFF7FEFF 		bl	MPU6050_I2C_MasterWriteByte
 127              	.LVL18:
  82:.\i2cFunctions.c ****     MPU6050_I2C_MasterSendStart(devAddr,0);
 128              		.loc 1 82 0
 129 0014 0025     		movs	r5, #0
  85:.\i2cFunctions.c ****     while(length)
 130              		.loc 1 85 0
 131 0016 06E0     		b	.L6
 132              	.LVL19:
 133              	.L7:
  86:.\i2cFunctions.c ****     {
  87:.\i2cFunctions.c ****         MPU6050_I2C_MasterWriteByte(*(value + i));
 134              		.loc 1 87 0
 135 0018 705D     		ldrb	r0, [r6, r5]	@ zero_extendqisi2
 136 001a FFF7FEFF 		bl	MPU6050_I2C_MasterWriteByte
 137              	.LVL20:
  88:.\i2cFunctions.c ****         i++;
ARM GAS  C:\Users\Michael\AppData\Local\Temp\ccKHd7z8.s 			page 5


 138              		.loc 1 88 0
 139 001e 0135     		adds	r5, r5, #1
 140              	.LVL21:
 141 0020 EDB2     		uxtb	r5, r5
 142              	.LVL22:
  89:.\i2cFunctions.c ****         length--;
 143              		.loc 1 89 0
 144 0022 013C     		subs	r4, r4, #1
 145              	.LVL23:
 146 0024 E4B2     		uxtb	r4, r4
 147              	.LVL24:
 148              	.L6:
  85:.\i2cFunctions.c ****     {
 149              		.loc 1 85 0
 150 0026 002C     		cmp	r4, #0
 151 0028 F6D1     		bne	.L7
  90:.\i2cFunctions.c ****     }
  91:.\i2cFunctions.c ****     MPU6050_I2C_MasterSendStop();
 152              		.loc 1 91 0
 153 002a FFF7FEFF 		bl	MPU6050_I2C_MasterSendStop
 154              	.LVL25:
 155 002e 70BD     		pop	{r4, r5, r6, pc}
 156              		.cfi_endproc
 157              	.LFE64:
 158              		.size	I2CWriteBytes, .-I2CWriteBytes
 159              		.section	.text.I2CReadByte,"ax",%progbits
 160              		.align	2
 161              		.global	I2CReadByte
 162              		.thumb
 163              		.thumb_func
 164              		.type	I2CReadByte, %function
 165              	I2CReadByte:
 166              	.LFB65:
  92:.\i2cFunctions.c **** 
  93:.\i2cFunctions.c **** 
  94:.\i2cFunctions.c ****     
  95:.\i2cFunctions.c ****     
  96:.\i2cFunctions.c ****     /****************END CODE 1.2 HERE*************************/
  97:.\i2cFunctions.c **** }
  98:.\i2cFunctions.c **** 
  99:.\i2cFunctions.c **** /* Following functions are build on top of the functions defined above. */
 100:.\i2cFunctions.c **** void I2CReadByte(uint8_t devAddr, uint8_t regAddr, uint8_t *value) {
 167              		.loc 1 100 0
 168              		.cfi_startproc
 169              		@ args = 0, pretend = 0, frame = 0
 170              		@ frame_needed = 0, uses_anonymous_args = 0
 171              	.LVL26:
 172 0000 08B5     		push	{r3, lr}
 173              		.cfi_def_cfa_offset 8
 174              		.cfi_offset 3, -8
 175              		.cfi_offset 14, -4
 176 0002 1346     		mov	r3, r2
 101:.\i2cFunctions.c **** 	I2CReadBytes(devAddr, regAddr, 1, value);
 177              		.loc 1 101 0
 178 0004 0122     		movs	r2, #1
 179              	.LVL27:
 180 0006 FFF7FEFF 		bl	I2CReadBytes
ARM GAS  C:\Users\Michael\AppData\Local\Temp\ccKHd7z8.s 			page 6


 181              	.LVL28:
 182 000a 08BD     		pop	{r3, pc}
 183              		.cfi_endproc
 184              	.LFE65:
 185              		.size	I2CReadByte, .-I2CReadByte
 186              		.section	.text.I2CSplReadByte,"ax",%progbits
 187              		.align	2
 188              		.global	I2CSplReadByte
 189              		.thumb
 190              		.thumb_func
 191              		.type	I2CSplReadByte, %function
 192              	I2CSplReadByte:
 193              	.LFB66:
 102:.\i2cFunctions.c **** }
 103:.\i2cFunctions.c **** 
 104:.\i2cFunctions.c **** uint8_t I2CSplReadByte(uint8_t devAddr, uint8_t regAddr) {
 194              		.loc 1 104 0
 195              		.cfi_startproc
 196              		@ args = 0, pretend = 0, frame = 0
 197              		@ frame_needed = 0, uses_anonymous_args = 0
 198              	.LVL29:
 199 0000 10B5     		push	{r4, lr}
 200              		.cfi_def_cfa_offset 8
 201              		.cfi_offset 4, -8
 202              		.cfi_offset 14, -4
 105:.\i2cFunctions.c **** 	
 106:.\i2cFunctions.c ****     I2CReadBytes(devAddr, regAddr, 1, &temp_value);
 203              		.loc 1 106 0
 204 0002 034C     		ldr	r4, .L13
 205 0004 0122     		movs	r2, #1
 206 0006 2346     		mov	r3, r4
 207 0008 FFF7FEFF 		bl	I2CReadBytes
 208              	.LVL30:
 107:.\i2cFunctions.c ****     return(temp_value);
 108:.\i2cFunctions.c **** }
 209              		.loc 1 108 0
 210 000c 2078     		ldrb	r0, [r4]	@ zero_extendqisi2
 211 000e 10BD     		pop	{r4, pc}
 212              	.L14:
 213              		.align	2
 214              	.L13:
 215 0010 00000000 		.word	.LANCHOR0
 216              		.cfi_endproc
 217              	.LFE66:
 218              		.size	I2CSplReadByte, .-I2CSplReadByte
 219              		.section	.text.I2CReadBits,"ax",%progbits
 220              		.align	2
 221              		.global	I2CReadBits
 222              		.thumb
 223              		.thumb_func
 224              		.type	I2CReadBits, %function
 225              	I2CReadBits:
 226              	.LFB67:
 109:.\i2cFunctions.c **** 
 110:.\i2cFunctions.c **** void I2CReadBits(uint8_t devAddr, uint8_t regAddr, uint8_t bitStart, \
 111:.\i2cFunctions.c ****                                                 uint8_t length, uint8_t *value) 
 112:.\i2cFunctions.c **** {
ARM GAS  C:\Users\Michael\AppData\Local\Temp\ccKHd7z8.s 			page 7


 227              		.loc 1 112 0
 228              		.cfi_startproc
 229              		@ args = 4, pretend = 0, frame = 0
 230              		@ frame_needed = 0, uses_anonymous_args = 0
 231              	.LVL31:
 232 0000 70B5     		push	{r4, r5, r6, lr}
 233              		.cfi_def_cfa_offset 16
 234              		.cfi_offset 4, -16
 235              		.cfi_offset 5, -12
 236              		.cfi_offset 6, -8
 237              		.cfi_offset 14, -4
 238 0002 049E     		ldr	r6, [sp, #16]
 113:.\i2cFunctions.c ****    	uint8_t mask = ((1 << length) - 1) << (bitStart - length + 1);
 239              		.loc 1 113 0
 240 0004 0124     		movs	r4, #1
 241 0006 9C40     		lsls	r4, r4, r3
 242 0008 013C     		subs	r4, r4, #1
 243 000a D21A     		subs	r2, r2, r3
 244              	.LVL32:
 245 000c 551C     		adds	r5, r2, #1
 246 000e AC40     		lsls	r4, r4, r5
 247 0010 E4B2     		uxtb	r4, r4
 248              	.LVL33:
 114:.\i2cFunctions.c ****     I2CReadByte(devAddr, regAddr, value);
 249              		.loc 1 114 0
 250 0012 3246     		mov	r2, r6
 251 0014 FFF7FEFF 		bl	I2CReadByte
 252              	.LVL34:
 115:.\i2cFunctions.c ****     *value &= mask;
 253              		.loc 1 115 0
 254 0018 3378     		ldrb	r3, [r6]	@ zero_extendqisi2
 255 001a 1C40     		ands	r4, r4, r3
 256              	.LVL35:
 116:.\i2cFunctions.c ****     *value >>= (bitStart - length + 1);
 257              		.loc 1 116 0
 258 001c 2C41     		asrs	r4, r4, r5
 259 001e 3470     		strb	r4, [r6]
 260 0020 70BD     		pop	{r4, r5, r6, pc}
 261              		.cfi_endproc
 262              	.LFE67:
 263              		.size	I2CReadBits, .-I2CReadBits
 264 0022 00BF     		.section	.text.I2CReadBit,"ax",%progbits
 265              		.align	2
 266              		.global	I2CReadBit
 267              		.thumb
 268              		.thumb_func
 269              		.type	I2CReadBit, %function
 270              	I2CReadBit:
 271              	.LFB68:
 117:.\i2cFunctions.c **** }
 118:.\i2cFunctions.c **** 
 119:.\i2cFunctions.c **** void I2CReadBit(uint8_t devAddr, uint8_t regAddr, uint8_t bitNum, uint8_t *value)
 120:.\i2cFunctions.c **** {
 272              		.loc 1 120 0
 273              		.cfi_startproc
 274              		@ args = 0, pretend = 0, frame = 0
 275              		@ frame_needed = 0, uses_anonymous_args = 0
ARM GAS  C:\Users\Michael\AppData\Local\Temp\ccKHd7z8.s 			page 8


 276              	.LVL36:
 277 0000 38B5     		push	{r3, r4, r5, lr}
 278              		.cfi_def_cfa_offset 16
 279              		.cfi_offset 3, -16
 280              		.cfi_offset 4, -12
 281              		.cfi_offset 5, -8
 282              		.cfi_offset 14, -4
 283 0002 1546     		mov	r5, r2
 284 0004 1C46     		mov	r4, r3
 121:.\i2cFunctions.c **** 	I2CReadByte(devAddr, regAddr, value);
 285              		.loc 1 121 0
 286 0006 1A46     		mov	r2, r3
 287              	.LVL37:
 288 0008 FFF7FEFF 		bl	I2CReadByte
 289              	.LVL38:
 122:.\i2cFunctions.c **** 	*value = *value & (1 << bitNum);
 290              		.loc 1 122 0
 291 000c 2278     		ldrb	r2, [r4]	@ zero_extendqisi2
 292 000e 0123     		movs	r3, #1
 293 0010 AB40     		lsls	r3, r3, r5
 294 0012 1340     		ands	r3, r3, r2
 295 0014 2370     		strb	r3, [r4]
 296 0016 38BD     		pop	{r3, r4, r5, pc}
 297              		.cfi_endproc
 298              	.LFE68:
 299              		.size	I2CReadBit, .-I2CReadBit
 300              		.section	.text.I2CWriteByte,"ax",%progbits
 301              		.align	2
 302              		.global	I2CWriteByte
 303              		.thumb
 304              		.thumb_func
 305              		.type	I2CWriteByte, %function
 306              	I2CWriteByte:
 307              	.LFB69:
 123:.\i2cFunctions.c **** }
 124:.\i2cFunctions.c **** 
 125:.\i2cFunctions.c **** void I2CWriteByte(uint8_t devAddr, uint8_t regAddr, uint8_t value) 
 126:.\i2cFunctions.c **** {
 308              		.loc 1 126 0
 309              		.cfi_startproc
 310              		@ args = 0, pretend = 0, frame = 8
 311              		@ frame_needed = 0, uses_anonymous_args = 0
 312              	.LVL39:
 313 0000 00B5     		push	{lr}
 314              		.cfi_def_cfa_offset 4
 315              		.cfi_offset 14, -4
 316 0002 83B0     		sub	sp, sp, #12
 317              		.cfi_def_cfa_offset 16
 318 0004 02AB     		add	r3, sp, #8
 319 0006 03F8012D 		strb	r2, [r3, #-1]!
 127:.\i2cFunctions.c **** 	I2CWriteBytes(devAddr, regAddr, 1, &value);
 320              		.loc 1 127 0
 321 000a 0122     		movs	r2, #1
 322              	.LVL40:
 323 000c FFF7FEFF 		bl	I2CWriteBytes
 324              	.LVL41:
 128:.\i2cFunctions.c **** }
ARM GAS  C:\Users\Michael\AppData\Local\Temp\ccKHd7z8.s 			page 9


 325              		.loc 1 128 0
 326 0010 03B0     		add	sp, sp, #12
 327              		.cfi_def_cfa_offset 4
 328              		@ sp needed
 329 0012 5DF804FB 		ldr	pc, [sp], #4
 330              		.cfi_endproc
 331              	.LFE69:
 332              		.size	I2CWriteByte, .-I2CWriteByte
 333 0016 00BF     		.section	.text.I2CWriteBits,"ax",%progbits
 334              		.align	2
 335              		.global	I2CWriteBits
 336              		.thumb
 337              		.thumb_func
 338              		.type	I2CWriteBits, %function
 339              	I2CWriteBits:
 340              	.LFB70:
 129:.\i2cFunctions.c **** 
 130:.\i2cFunctions.c **** void I2CWriteBits(uint8_t devAddr, uint8_t regAddr, uint8_t bitStart, \
 131:.\i2cFunctions.c ****                                                   uint8_t length, uint8_t value) 
 132:.\i2cFunctions.c **** {
 341              		.loc 1 132 0
 342              		.cfi_startproc
 343              		@ args = 4, pretend = 0, frame = 8
 344              		@ frame_needed = 0, uses_anonymous_args = 0
 345              	.LVL42:
 346 0000 2DE9F041 		push	{r4, r5, r6, r7, r8, lr}
 347              		.cfi_def_cfa_offset 24
 348              		.cfi_offset 4, -24
 349              		.cfi_offset 5, -20
 350              		.cfi_offset 6, -16
 351              		.cfi_offset 7, -12
 352              		.cfi_offset 8, -8
 353              		.cfi_offset 14, -4
 354 0004 82B0     		sub	sp, sp, #8
 355              		.cfi_def_cfa_offset 32
 356 0006 0746     		mov	r7, r0
 357 0008 0E46     		mov	r6, r1
 133:.\i2cFunctions.c **** 	uint8_t b;
 134:.\i2cFunctions.c **** 	uint8_t mask = ((1 << length) - 1) << (bitStart - length + 1);
 358              		.loc 1 134 0
 359 000a 0124     		movs	r4, #1
 360 000c 9C40     		lsls	r4, r4, r3
 361 000e 013C     		subs	r4, r4, #1
 362 0010 D21A     		subs	r2, r2, r3
 363              	.LVL43:
 364 0012 551C     		adds	r5, r2, #1
 365 0014 AC40     		lsls	r4, r4, r5
 366 0016 5FFA84F8 		uxtb	r8, r4
 367              	.LVL44:
 135:.\i2cFunctions.c **** 	I2CReadByte(devAddr, regAddr, &b);
 368              		.loc 1 135 0
 369 001a 0DF10702 		add	r2, sp, #7
 370 001e FFF7FEFF 		bl	I2CReadByte
 371              	.LVL45:
 136:.\i2cFunctions.c **** 	value <<= (bitStart - length + 1);
 372              		.loc 1 136 0
 373 0022 9DF82020 		ldrb	r2, [sp, #32]	@ zero_extendqisi2
ARM GAS  C:\Users\Michael\AppData\Local\Temp\ccKHd7z8.s 			page 10


 374 0026 AA40     		lsls	r2, r2, r5
 375              	.LVL46:
 137:.\i2cFunctions.c **** 	value &= mask;
 376              		.loc 1 137 0
 377 0028 02EA0808 		and	r8, r2, r8
 378              	.LVL47:
 138:.\i2cFunctions.c **** 	b &= ~(mask);
 379              		.loc 1 138 0
 380 002c 9DF80720 		ldrb	r2, [sp, #7]	@ zero_extendqisi2
 381 0030 22EA0404 		bic	r4, r2, r4
 382              	.LVL48:
 139:.\i2cFunctions.c **** 	b |= value;
 383              		.loc 1 139 0
 384 0034 48EA0402 		orr	r2, r8, r4
 385 0038 8DF80720 		strb	r2, [sp, #7]
 140:.\i2cFunctions.c **** 	I2CWriteByte(devAddr, regAddr, b);	
 386              		.loc 1 140 0
 387 003c 3846     		mov	r0, r7
 388 003e 3146     		mov	r1, r6
 389 0040 FFF7FEFF 		bl	I2CWriteByte
 390              	.LVL49:
 141:.\i2cFunctions.c **** }
 391              		.loc 1 141 0
 392 0044 02B0     		add	sp, sp, #8
 393              		.cfi_def_cfa_offset 24
 394              		@ sp needed
 395 0046 BDE8F081 		pop	{r4, r5, r6, r7, r8, pc}
 396              		.cfi_endproc
 397              	.LFE70:
 398              		.size	I2CWriteBits, .-I2CWriteBits
 399 004a 00BF     		.section	.text.I2CWriteBit,"ax",%progbits
 400              		.align	2
 401              		.global	I2CWriteBit
 402              		.thumb
 403              		.thumb_func
 404              		.type	I2CWriteBit, %function
 405              	I2CWriteBit:
 406              	.LFB71:
 142:.\i2cFunctions.c **** 
 143:.\i2cFunctions.c **** void I2CWriteBit(uint8_t devAddr, uint8_t regAddr, uint8_t bitNum, uint8_t value)
 144:.\i2cFunctions.c **** {
 407              		.loc 1 144 0
 408              		.cfi_startproc
 409              		@ args = 0, pretend = 0, frame = 8
 410              		@ frame_needed = 0, uses_anonymous_args = 0
 411              	.LVL50:
 412 0000 F0B5     		push	{r4, r5, r6, r7, lr}
 413              		.cfi_def_cfa_offset 20
 414              		.cfi_offset 4, -20
 415              		.cfi_offset 5, -16
 416              		.cfi_offset 6, -12
 417              		.cfi_offset 7, -8
 418              		.cfi_offset 14, -4
 419 0002 83B0     		sub	sp, sp, #12
 420              		.cfi_def_cfa_offset 32
 421 0004 0546     		mov	r5, r0
 422 0006 0C46     		mov	r4, r1
ARM GAS  C:\Users\Michael\AppData\Local\Temp\ccKHd7z8.s 			page 11


 423 0008 1646     		mov	r6, r2
 424 000a 1F46     		mov	r7, r3
 145:.\i2cFunctions.c **** 	uint8_t b;
 146:.\i2cFunctions.c **** 	I2CReadByte(devAddr, regAddr, &b);
 425              		.loc 1 146 0
 426 000c 0DF10702 		add	r2, sp, #7
 427              	.LVL51:
 428 0010 FFF7FEFF 		bl	I2CReadByte
 429              	.LVL52:
 147:.\i2cFunctions.c **** 	b = (value != 0) ? (b | (1 << bitNum)) : (b & ~(1 << bitNum));
 430              		.loc 1 147 0
 431 0014 37B1     		cbz	r7, .L24
 432              		.loc 1 147 0 is_stmt 0 discriminator 1
 433 0016 0122     		movs	r2, #1
 434 0018 B240     		lsls	r2, r2, r6
 435 001a 9DF80730 		ldrb	r3, [sp, #7]	@ zero_extendqisi2
 436 001e 1A43     		orrs	r2, r2, r3
 437 0020 D2B2     		uxtb	r2, r2
 438 0022 05E0     		b	.L25
 439              	.L24:
 440              		.loc 1 147 0 discriminator 2
 441 0024 0122     		movs	r2, #1
 442 0026 B240     		lsls	r2, r2, r6
 443 0028 9DF80730 		ldrb	r3, [sp, #7]	@ zero_extendqisi2
 444 002c 23EA0202 		bic	r2, r3, r2
 445              	.L25:
 446              		.loc 1 147 0 discriminator 4
 447 0030 8DF80720 		strb	r2, [sp, #7]
 148:.\i2cFunctions.c **** 	I2CWriteByte(devAddr, regAddr, b);
 448              		.loc 1 148 0 is_stmt 1 discriminator 4
 449 0034 2846     		mov	r0, r5
 450 0036 2146     		mov	r1, r4
 451 0038 FFF7FEFF 		bl	I2CWriteByte
 452              	.LVL53:
 149:.\i2cFunctions.c **** }
 453              		.loc 1 149 0 discriminator 4
 454 003c 03B0     		add	sp, sp, #12
 455              		.cfi_def_cfa_offset 20
 456              		@ sp needed
 457 003e F0BD     		pop	{r4, r5, r6, r7, pc}
 458              		.cfi_endproc
 459              	.LFE71:
 460              		.size	I2CWriteBit, .-I2CWriteBit
 461              		.global	temp_value
 462              		.bss
 463              		.set	.LANCHOR0,. + 0
 464              		.type	temp_value, %object
 465              		.size	temp_value, 1
 466              	temp_value:
 467 0000 00       		.space	1
 468              		.text
 469              	.Letext0:
 470              		.file 2 "c:\\program files (x86)\\cypress\\psoc creator\\3.3\\psoc creator\\import\\gnu\\arm\\4.9.
 471              		.file 3 "c:\\program files (x86)\\cypress\\psoc creator\\3.3\\psoc creator\\import\\gnu\\arm\\4.9.
 472              		.file 4 "Generated_Source\\PSoC5/cytypes.h"
 473              		.file 5 "Generated_Source\\PSoC5/core_cm3.h"
 474              		.file 6 "Generated_Source\\PSoC5/MPU6050_I2C.h"
ARM GAS  C:\Users\Michael\AppData\Local\Temp\ccKHd7z8.s 			page 12

