ARM GAS  C:\Users\Michael\AppData\Local\Temp\ccoqdgwg.s 			page 1


   1              		.syntax unified
   2              		.cpu cortex-m3
   3              		.fpu softvfp
   4              		.eabi_attribute 20, 1
   5              		.eabi_attribute 21, 1
   6              		.eabi_attribute 23, 3
   7              		.eabi_attribute 24, 1
   8              		.eabi_attribute 25, 1
   9              		.eabi_attribute 26, 1
  10              		.eabi_attribute 30, 1
  11              		.eabi_attribute 34, 1
  12              		.eabi_attribute 18, 4
  13              		.thumb
  14              		.file	"imu.c"
  15              		.text
  16              	.Ltext0:
  17              		.cfi_sections	.debug_frame
  18              		.section	.text.init_imu,"ax",%progbits
  19              		.align	2
  20              		.global	init_imu
  21              		.thumb
  22              		.thumb_func
  23              		.type	init_imu, %function
  24              	init_imu:
  25              	.LFB63:
  26              		.file 1 ".\\imu.c"
   1:.\imu.c       **** /* ========================================
   2:.\imu.c       ****  *
   3:.\imu.c       ****  * Copyright YOUR COMPANY, THE YEAR
   4:.\imu.c       ****  * All Rights Reserved
   5:.\imu.c       ****  * UNPUBLISHED, LICENSED SOFTWARE.
   6:.\imu.c       ****  *
   7:.\imu.c       ****  * CONFIDENTIAL AND PROPRIETARY INFORMATION
   8:.\imu.c       ****  * WHICH IS THE PROPERTY OF your company.
   9:.\imu.c       ****  *
  10:.\imu.c       ****  * ========================================
  11:.\imu.c       **** */
  12:.\imu.c       **** #include "project.h"
  13:.\imu.c       **** #include "imu.h"
  14:.\imu.c       **** #include "mpu6050.h"
  15:.\imu.c       **** 
  16:.\imu.c       **** const float IMU_SCALE = 1600.0;
  17:.\imu.c       **** 
  18:.\imu.c       **** void init_imu() {
  27              		.loc 1 18 0
  28              		.cfi_startproc
  29              		@ args = 0, pretend = 0, frame = 0
  30              		@ frame_needed = 0, uses_anonymous_args = 0
  31 0000 08B5     		push	{r3, lr}
  32              		.cfi_def_cfa_offset 8
  33              		.cfi_offset 3, -8
  34              		.cfi_offset 14, -4
  19:.\imu.c       ****     MPU6050_I2C_Start();
  35              		.loc 1 19 0
  36 0002 FFF7FEFF 		bl	MPU6050_I2C_Start
  37              	.LVL0:
  20:.\imu.c       ****     MPU6050_init();
ARM GAS  C:\Users\Michael\AppData\Local\Temp\ccoqdgwg.s 			page 2


  38              		.loc 1 20 0
  39 0006 FFF7FEFF 		bl	MPU6050_init
  40              	.LVL1:
  21:.\imu.c       ****     MPU6050_initialize();
  41              		.loc 1 21 0
  42 000a FFF7FEFF 		bl	MPU6050_initialize
  43              	.LVL2:
  22:.\imu.c       ****     MPU6050_setDLPFMode(IMU_DLP_MODE);
  44              		.loc 1 22 0
  45 000e 0620     		movs	r0, #6
  46 0010 FFF7FEFF 		bl	MPU6050_setDLPFMode
  47              	.LVL3:
  48 0014 08BD     		pop	{r3, pc}
  49              		.cfi_endproc
  50              	.LFE63:
  51              		.size	init_imu, .-init_imu
  52 0016 00BF     		.section	.text.construct_imu,"ax",%progbits
  53              		.align	2
  54              		.global	construct_imu
  55              		.thumb
  56              		.thumb_func
  57              		.type	construct_imu, %function
  58              	construct_imu:
  59              	.LFB64:
  23:.\imu.c       **** }
  24:.\imu.c       **** 
  25:.\imu.c       **** void construct_imu(IMU* imu) {
  60              		.loc 1 25 0
  61              		.cfi_startproc
  62              		@ args = 0, pretend = 0, frame = 0
  63              		@ frame_needed = 0, uses_anonymous_args = 0
  64              		@ link register save eliminated.
  65              	.LVL4:
  26:.\imu.c       ****     imu->ax = 0;
  66              		.loc 1 26 0
  67 0000 0023     		movs	r3, #0
  68 0002 0360     		str	r3, [r0]	@ float
  27:.\imu.c       ****     imu->ay = 0;
  69              		.loc 1 27 0
  70 0004 4360     		str	r3, [r0, #4]	@ float
  28:.\imu.c       ****     imu->az = 0;
  71              		.loc 1 28 0
  72 0006 8360     		str	r3, [r0, #8]	@ float
  29:.\imu.c       ****     imu->gx = 0;
  73              		.loc 1 29 0
  74 0008 C360     		str	r3, [r0, #12]	@ float
  30:.\imu.c       ****     imu->gy = 0;
  75              		.loc 1 30 0
  76 000a 0361     		str	r3, [r0, #16]	@ float
  31:.\imu.c       ****     imu->gz = 0;
  77              		.loc 1 31 0
  78 000c 4361     		str	r3, [r0, #20]	@ float
  79 000e 7047     		bx	lr
  80              		.cfi_endproc
  81              	.LFE64:
  82              		.size	construct_imu, .-construct_imu
  83              		.global	__aeabi_i2f
ARM GAS  C:\Users\Michael\AppData\Local\Temp\ccoqdgwg.s 			page 3


  84              		.global	__aeabi_fdiv
  85              		.section	.text.get_imu_values,"ax",%progbits
  86              		.align	2
  87              		.global	get_imu_values
  88              		.thumb
  89              		.thumb_func
  90              		.type	get_imu_values, %function
  91              	get_imu_values:
  92              	.LFB65:
  32:.\imu.c       **** }
  33:.\imu.c       **** 
  34:.\imu.c       **** void get_imu_values(IMU* imu) {
  93              		.loc 1 34 0
  94              		.cfi_startproc
  95              		@ args = 0, pretend = 0, frame = 16
  96              		@ frame_needed = 0, uses_anonymous_args = 0
  97              	.LVL5:
  98 0000 10B5     		push	{r4, lr}
  99              		.cfi_def_cfa_offset 8
 100              		.cfi_offset 4, -8
 101              		.cfi_offset 14, -4
 102 0002 86B0     		sub	sp, sp, #24
 103              		.cfi_def_cfa_offset 32
 104 0004 0446     		mov	r4, r0
  35:.\imu.c       ****     int16 ax, ay, az;
  36:.\imu.c       ****     int16 gx, gy, gz;
  37:.\imu.c       ****     MPU6050_getMotion6(&ay, &ax, &az, &gx, &gy, &gz);
 105              		.loc 1 37 0
 106 0006 0DF10E03 		add	r3, sp, #14
 107 000a 0093     		str	r3, [sp]
 108 000c 03AB     		add	r3, sp, #12
 109 000e 0193     		str	r3, [sp, #4]
 110 0010 05A8     		add	r0, sp, #20
 111              	.LVL6:
 112 0012 0DF11601 		add	r1, sp, #22
 113 0016 0DF11202 		add	r2, sp, #18
 114 001a 04AB     		add	r3, sp, #16
 115 001c FFF7FEFF 		bl	MPU6050_getMotion6
 116              	.LVL7:
  38:.\imu.c       ****     imu->ax = ax/IMU_SCALE;
 117              		.loc 1 38 0
 118 0020 BDF91600 		ldrsh	r0, [sp, #22]
 119 0024 FFF7FEFF 		bl	__aeabi_i2f
 120              	.LVL8:
 121 0028 1649     		ldr	r1, .L6
 122 002a FFF7FEFF 		bl	__aeabi_fdiv
 123              	.LVL9:
 124 002e 2060     		str	r0, [r4]	@ float
  39:.\imu.c       ****     imu->ay = ay/IMU_SCALE;
 125              		.loc 1 39 0
 126 0030 BDF91400 		ldrsh	r0, [sp, #20]
 127 0034 FFF7FEFF 		bl	__aeabi_i2f
 128              	.LVL10:
 129 0038 1249     		ldr	r1, .L6
 130 003a FFF7FEFF 		bl	__aeabi_fdiv
 131              	.LVL11:
 132 003e 6060     		str	r0, [r4, #4]	@ float
ARM GAS  C:\Users\Michael\AppData\Local\Temp\ccoqdgwg.s 			page 4


  40:.\imu.c       ****     imu->az = az/IMU_SCALE;
 133              		.loc 1 40 0
 134 0040 BDF91200 		ldrsh	r0, [sp, #18]
 135 0044 FFF7FEFF 		bl	__aeabi_i2f
 136              	.LVL12:
 137 0048 0E49     		ldr	r1, .L6
 138 004a FFF7FEFF 		bl	__aeabi_fdiv
 139              	.LVL13:
 140 004e A060     		str	r0, [r4, #8]	@ float
  41:.\imu.c       ****     imu->gx = gx/IMU_SCALE;
 141              		.loc 1 41 0
 142 0050 BDF91000 		ldrsh	r0, [sp, #16]
 143 0054 FFF7FEFF 		bl	__aeabi_i2f
 144              	.LVL14:
 145 0058 0A49     		ldr	r1, .L6
 146 005a FFF7FEFF 		bl	__aeabi_fdiv
 147              	.LVL15:
 148 005e E060     		str	r0, [r4, #12]	@ float
  42:.\imu.c       ****     imu->gy = gy/IMU_SCALE;
 149              		.loc 1 42 0
 150 0060 BDF90E00 		ldrsh	r0, [sp, #14]
 151 0064 FFF7FEFF 		bl	__aeabi_i2f
 152              	.LVL16:
 153 0068 0649     		ldr	r1, .L6
 154 006a FFF7FEFF 		bl	__aeabi_fdiv
 155              	.LVL17:
 156 006e 2061     		str	r0, [r4, #16]	@ float
  43:.\imu.c       ****     imu->gz = gz/IMU_SCALE;
 157              		.loc 1 43 0
 158 0070 BDF90C00 		ldrsh	r0, [sp, #12]
 159 0074 FFF7FEFF 		bl	__aeabi_i2f
 160              	.LVL18:
 161 0078 0249     		ldr	r1, .L6
 162 007a FFF7FEFF 		bl	__aeabi_fdiv
 163              	.LVL19:
 164 007e 6061     		str	r0, [r4, #20]	@ float
  44:.\imu.c       **** }
 165              		.loc 1 44 0
 166 0080 06B0     		add	sp, sp, #24
 167              		.cfi_def_cfa_offset 8
 168              		@ sp needed
 169 0082 10BD     		pop	{r4, pc}
 170              	.LVL20:
 171              	.L7:
 172              		.align	2
 173              	.L6:
 174 0084 0000C844 		.word	1153957888
 175              		.cfi_endproc
 176              	.LFE65:
 177              		.size	get_imu_values, .-get_imu_values
 178              		.comm	buffer,22,4
 179              		.comm	devAddr,1,1
 180              		.global	IMU_SCALE
 181              		.section	.rodata
 182              		.align	2
 183              		.type	IMU_SCALE, %object
 184              		.size	IMU_SCALE, 4
ARM GAS  C:\Users\Michael\AppData\Local\Temp\ccoqdgwg.s 			page 5


 185              	IMU_SCALE:
 186 0000 0000C844 		.word	1153957888
 187              		.text
 188              	.Letext0:
 189              		.file 2 "c:\\program files (x86)\\cypress\\psoc creator\\3.3\\psoc creator\\import\\gnu\\arm\\4.9.
 190              		.file 3 "c:\\program files (x86)\\cypress\\psoc creator\\3.3\\psoc creator\\import\\gnu\\arm\\4.9.
 191              		.file 4 "Generated_Source\\PSoC5/cytypes.h"
 192              		.file 5 ".\\imu.h"
 193              		.file 6 "Generated_Source\\PSoC5/core_cm3.h"
 194              		.file 7 ".\\mpu6050.h"
 195              		.file 8 "Generated_Source\\PSoC5/MPU6050_I2C.h"