ARM GAS  C:\Users\Michael\AppData\Local\Temp\ccuKFcvm.s 			page 1


   1              		.syntax unified
   2              		.cpu cortex-m3
   3              		.fpu softvfp
   4              		.eabi_attribute 20, 1
   5              		.eabi_attribute 21, 1
   6              		.eabi_attribute 23, 3
   7              		.eabi_attribute 24, 1
   8              		.eabi_attribute 25, 1
   9              		.eabi_attribute 26, 1
  10              		.eabi_attribute 30, 1
  11              		.eabi_attribute 34, 1
  12              		.eabi_attribute 18, 4
  13              		.thumb
  14              		.file	"main.c"
  15              		.text
  16              	.Ltext0:
  17              		.cfi_sections	.debug_frame
  18              		.section	.text.main,"ax",%progbits
  19              		.align	2
  20              		.global	main
  21              		.thumb
  22              		.thumb_func
  23              		.type	main, %function
  24              	main:
  25              	.LFB63:
  26              		.file 1 ".\\main.c"
   1:.\main.c      **** /* ========================================
   2:.\main.c      ****  *
   3:.\main.c      ****  * Copyright YOUR COMPANY, THE YEAR
   4:.\main.c      ****  * All Rights Reserved
   5:.\main.c      ****  * UNPUBLISHED, LICENSED SOFTWARE.
   6:.\main.c      ****  *
   7:.\main.c      ****  * CONFIDENTIAL AND PROPRIETARY INFORMATION
   8:.\main.c      ****  * WHICH IS THE PROPERTY OF your company.
   9:.\main.c      ****  *
  10:.\main.c      ****  * ========================================
  11:.\main.c      **** */
  12:.\main.c      **** /*
  13:.\main.c      ****  * References:
  14:.\main.c      ****  * https://iotexpert.com/psoc-5-timer-circuit-debug/
  15:.\main.c      ****  * https://youtu.be/nJs6Q4ekVjw
  16:.\main.c      ****  * https://socmaker.com/?p=296
  17:.\main.c      ****  * https://github.com/embeddedprogrammer/psoc-pid-controller
  18:.\main.c      ****  * https://www.hackster.io/hima/mpu6050-psoc6-interface-7c505e
  19:.\main.c      **** */
  20:.\main.c      **** 
  21:.\main.c      **** #include "project.h"
  22:.\main.c      **** #include "milliseconds.h"
  23:.\main.c      **** #include "rc_ch.h"
  24:.\main.c      **** 
  25:.\main.c      **** #define DEBUG 1
  26:.\main.c      **** char debug_data_buf[64] = "";
  27:.\main.c      **** 
  28:.\main.c      **** /*
  29:.\main.c      ****  * Channel 1: Right Joystick X
  30:.\main.c      ****  * Channel 2: Right Joystick Y
  31:.\main.c      ****  * Channel 3: Left Joystick Y
ARM GAS  C:\Users\Michael\AppData\Local\Temp\ccuKFcvm.s 			page 2


  32:.\main.c      ****  * Channel 4: Left Joystick X
  33:.\main.c      ****  * Channel 5: Right Knob
  34:.\main.c      ****  * Channel 6: Left Knob
  35:.\main.c      **** */
  36:.\main.c      **** 
  37:.\main.c      **** void run_motor();
  38:.\main.c      **** 
  39:.\main.c      **** int main()
  40:.\main.c      **** {
  27              		.loc 1 40 0
  28              		.cfi_startproc
  29              		@ args = 0, pretend = 0, frame = 64
  30              		@ frame_needed = 0, uses_anonymous_args = 0
  31 0000 00B5     		push	{lr}
  32              		.cfi_def_cfa_offset 4
  33              		.cfi_offset 14, -4
  34 0002 91B0     		sub	sp, sp, #68
  35              		.cfi_def_cfa_offset 72
  41:.\main.c      ****     CyGlobalIntEnable; /* Enable global interrupts. */
  36              		.loc 1 41 0
  37              	@ 41 ".\main.c" 1
  38 0004 62B6     		CPSIE   i
  39              	@ 0 "" 2
  42:.\main.c      **** 
  43:.\main.c      ****     /* Place your initialization/startup code here (e.g. MyInst_Start()) */
  44:.\main.c      ****     USBUART_Start(0, USBUART_5V_OPERATION);
  40              		.loc 1 44 0
  41              		.thumb
  42 0006 0020     		movs	r0, #0
  43 0008 0121     		movs	r1, #1
  44 000a FFF7FEFF 		bl	USBUART_Start
  45              	.LVL0:
  46              	.L2:
  45:.\main.c      ****     
  46:.\main.c      ****     while (USBUART_GetConfiguration() == 0) {}
  47              		.loc 1 46 0 discriminator 1
  48 000e FFF7FEFF 		bl	USBUART_GetConfiguration
  49              	.LVL1:
  50 0012 0028     		cmp	r0, #0
  51 0014 FBD0     		beq	.L2
  47:.\main.c      ****     USBUART_PutString("Init...");
  52              		.loc 1 47 0
  53 0016 0E48     		ldr	r0, .L5
  54 0018 FFF7FEFF 		bl	USBUART_PutString
  55              	.LVL2:
  48:.\main.c      ****     
  49:.\main.c      ****     init_milliseconds();
  56              		.loc 1 49 0
  57 001c FFF7FEFF 		bl	init_milliseconds
  58              	.LVL3:
  50:.\main.c      ****        
  51:.\main.c      ****     Motor_A_PWM_Start();
  59              		.loc 1 51 0
  60 0020 FFF7FEFF 		bl	Motor_A_PWM_Start
  61              	.LVL4:
  52:.\main.c      ****     
  53:.\main.c      ****     init_rc_channels();
ARM GAS  C:\Users\Michael\AppData\Local\Temp\ccuKFcvm.s 			page 3


  62              		.loc 1 53 0
  63 0024 FFF7FEFF 		bl	init_rc_channels
  64              	.LVL5:
  54:.\main.c      ****     
  55:.\main.c      ****     RC_CH rc_ch1;
  56:.\main.c      ****     construct_rc_ch(&rc_ch1, 1);
  65              		.loc 1 56 0
  66 0028 0CA8     		add	r0, sp, #48
  67 002a 0121     		movs	r1, #1
  68 002c FFF7FEFF 		bl	construct_rc_ch
  69              	.LVL6:
  57:.\main.c      ****     RC_CH rc_ch2;
  58:.\main.c      ****     construct_rc_ch(&rc_ch2, 2);
  70              		.loc 1 58 0
  71 0030 08A8     		add	r0, sp, #32
  72 0032 0221     		movs	r1, #2
  73 0034 FFF7FEFF 		bl	construct_rc_ch
  74              	.LVL7:
  59:.\main.c      ****     RC_CH rc_ch3;
  60:.\main.c      ****     construct_rc_ch(&rc_ch3, 3);
  75              		.loc 1 60 0
  76 0038 04A8     		add	r0, sp, #16
  77 003a 0321     		movs	r1, #3
  78 003c FFF7FEFF 		bl	construct_rc_ch
  79              	.LVL8:
  61:.\main.c      ****     RC_CH rc_ch4;
  62:.\main.c      ****     construct_rc_ch(&rc_ch4, 4);
  80              		.loc 1 62 0
  81 0040 6846     		mov	r0, sp
  82 0042 0421     		movs	r1, #4
  83 0044 FFF7FEFF 		bl	construct_rc_ch
  84              	.LVL9:
  85              	.L3:
  63:.\main.c      ****     
  64:.\main.c      ****     for(;;)
  65:.\main.c      ****     {
  66:.\main.c      ****         get_rc_ch_value(&rc_ch1);
  86              		.loc 1 66 0 discriminator 1
  87 0048 0CA8     		add	r0, sp, #48
  88 004a FFF7FEFF 		bl	get_rc_ch_value
  89              	.LVL10:
  67:.\main.c      ****         //get_rc_ch_value(&rc_ch2);
  68:.\main.c      ****         //get_rc_ch_value(&rc_ch3);
  69:.\main.c      ****         //get_rc_ch_value(&rc_ch4);
  70:.\main.c      ****         
  71:.\main.c      ****         /*if (rc_ch2.connected && rc_ch2.value != 0) {
  72:.\main.c      ****             run_motor(rc_ch2.value);
  73:.\main.c      ****         } else {
  74:.\main.c      ****             run_motor(0);
  75:.\main.c      ****         }*/
  76:.\main.c      ****     }
  90              		.loc 1 76 0 discriminator 1
  91 004e FBE7     		b	.L3
  92              	.L6:
  93              		.align	2
  94              	.L5:
  95 0050 00000000 		.word	.LC0
ARM GAS  C:\Users\Michael\AppData\Local\Temp\ccuKFcvm.s 			page 4


  96              		.cfi_endproc
  97              	.LFE63:
  98              		.size	main, .-main
  99              		.section	.text.run_motor,"ax",%progbits
 100              		.align	2
 101              		.global	run_motor
 102              		.thumb
 103              		.thumb_func
 104              		.type	run_motor, %function
 105              	run_motor:
 106              	.LFB64:
  77:.\main.c      **** }
  78:.\main.c      **** 
  79:.\main.c      **** void run_motor(motor_pwm) {
 107              		.loc 1 79 0
 108              		.cfi_startproc
 109              		@ args = 0, pretend = 0, frame = 0
 110              		@ frame_needed = 0, uses_anonymous_args = 0
 111              	.LVL11:
 112 0000 10B5     		push	{r4, lr}
 113              		.cfi_def_cfa_offset 8
 114              		.cfi_offset 4, -8
 115              		.cfi_offset 14, -4
  80:.\main.c      ****     if (motor_pwm < 0) {
 116              		.loc 1 80 0
 117 0002 041E     		subs	r4, r0, #0
 118 0004 0ADA     		bge	.L8
 119              	.LBB2:
  81:.\main.c      ****         Motor_A_PWM_WriteCompare1(abs(motor_pwm));
 120              		.loc 1 81 0
 121 0006 84EAE470 		eor	r0, r4, r4, asr #31
 122              	.LVL12:
 123 000a A0EBE470 		sub	r0, r0, r4, asr #31
 124 000e C0B2     		uxtb	r0, r0
 125 0010 FFF7FEFF 		bl	Motor_A_PWM_WriteCompare1
 126              	.LVL13:
  82:.\main.c      ****         Motor_A_PWM_WriteCompare2(0);
 127              		.loc 1 82 0
 128 0014 0020     		movs	r0, #0
 129 0016 FFF7FEFF 		bl	Motor_A_PWM_WriteCompare2
 130              	.LVL14:
 131              	.LBE2:
 132 001a 10BD     		pop	{r4, pc}
 133              	.LVL15:
 134              	.L8:
  83:.\main.c      ****     } else if (motor_pwm > 0) {
 135              		.loc 1 83 0
 136 001c 002C     		cmp	r4, #0
 137 001e 06DD     		ble	.L10
  84:.\main.c      ****         Motor_A_PWM_WriteCompare1(0);
 138              		.loc 1 84 0
 139 0020 0020     		movs	r0, #0
 140              	.LVL16:
 141 0022 FFF7FEFF 		bl	Motor_A_PWM_WriteCompare1
 142              	.LVL17:
  85:.\main.c      ****         Motor_A_PWM_WriteCompare2(motor_pwm);
 143              		.loc 1 85 0
ARM GAS  C:\Users\Michael\AppData\Local\Temp\ccuKFcvm.s 			page 5


 144 0026 E0B2     		uxtb	r0, r4
 145 0028 FFF7FEFF 		bl	Motor_A_PWM_WriteCompare2
 146              	.LVL18:
 147 002c 10BD     		pop	{r4, pc}
 148              	.LVL19:
 149              	.L10:
  86:.\main.c      ****     } else {
  87:.\main.c      ****         Motor_A_PWM_WriteCompare1(0);
 150              		.loc 1 87 0
 151 002e 0020     		movs	r0, #0
 152              	.LVL20:
 153 0030 FFF7FEFF 		bl	Motor_A_PWM_WriteCompare1
 154              	.LVL21:
  88:.\main.c      ****         Motor_A_PWM_WriteCompare2(0);
 155              		.loc 1 88 0
 156 0034 0020     		movs	r0, #0
 157 0036 FFF7FEFF 		bl	Motor_A_PWM_WriteCompare2
 158              	.LVL22:
 159 003a 10BD     		pop	{r4, pc}
 160              		.cfi_endproc
 161              	.LFE64:
 162              		.size	run_motor, .-run_motor
 163              		.global	debug_data_buf
 164              		.comm	RC_MIN_VALUE,4,4
 165              		.comm	RC_MAX_VALUE,4,4
 166              		.comm	RC_CONNECTION_TIMEOUT,4,4
 167              		.comm	RC_TIMER_MID_TOLERANCE,4,4
 168              		.comm	RC_TIMER_MIN_VALUE,4,4
 169              		.comm	RC_TIMER_MID_VALUE,4,4
 170              		.comm	RC_TIMER_MAX_VALUE,4,4
 171              		.comm	RC_TIMER_PERIOD,4,4
 172              		.section	.rodata.str1.4,"aMS",%progbits,1
 173              		.align	2
 174              	.LC0:
 175 0000 496E6974 		.ascii	"Init...\000"
 175      2E2E2E00 
 176              		.bss
 177              		.align	2
 178              		.type	debug_data_buf, %object
 179              		.size	debug_data_buf, 64
 180              	debug_data_buf:
 181 0000 00000000 		.space	64
 181      00000000 
 181      00000000 
 181      00000000 
 181      00000000 
 182              		.text
 183              	.Letext0:
 184              		.file 2 "c:\\program files (x86)\\cypress\\psoc creator\\3.3\\psoc creator\\import\\gnu\\arm\\4.9.
 185              		.file 3 "c:\\program files (x86)\\cypress\\psoc creator\\3.3\\psoc creator\\import\\gnu\\arm\\4.9.
 186              		.file 4 "Generated_Source\\PSoC5/cytypes.h"
 187              		.file 5 ".\\rc_ch.h"
 188              		.file 6 "Generated_Source\\PSoC5/core_cm3.h"
 189              		.file 7 "Generated_Source\\PSoC5/USBUART.h"
 190              		.file 8 "Generated_Source\\PSoC5/USBUART_cdc.h"
 191              		.file 9 ".\\milliseconds.h"
 192              		.file 10 "Generated_Source\\PSoC5/Motor_A_PWM.h"
ARM GAS  C:\Users\Michael\AppData\Local\Temp\ccuKFcvm.s 			page 6


 193              		.file 11 "<built-in>"