ARM GAS  C:\Users\Michael\AppData\Local\Temp\ccvFrowP.s 			page 1


   1              		.syntax unified
   2              		.cpu cortex-m3
   3              		.fpu softvfp
   4              		.eabi_attribute 20, 1
   5              		.eabi_attribute 21, 1
   6              		.eabi_attribute 23, 3
   7              		.eabi_attribute 24, 1
   8              		.eabi_attribute 25, 1
   9              		.eabi_attribute 26, 1
  10              		.eabi_attribute 30, 1
  11              		.eabi_attribute 34, 1
  12              		.eabi_attribute 18, 4
  13              		.thumb
  14              		.file	"mpu6050.c"
  15              		.text
  16              	.Ltext0:
  17              		.cfi_sections	.debug_frame
  18              		.section	.text.MPU6050_init,"ax",%progbits
  19              		.align	2
  20              		.global	MPU6050_init
  21              		.thumb
  22              		.thumb_func
  23              		.type	MPU6050_init, %function
  24              	MPU6050_init:
  25              	.LFB0:
  26              		.file 1 ".\\mpu6050.c"
   1:.\mpu6050.c   **** // I2Cdev library collection - MPU6050 I2C device class
   2:.\mpu6050.c   **** // Based on InvenSense MPU-6050 register map document rev. 2.0, 5/19/2011 (RM-MPU-6000A-00)
   3:.\mpu6050.c   **** // 8/24/2011 by Jeff Rowberg <jeff@rowberg.net>
   4:.\mpu6050.c   **** // Updates should (hopefully) always be available at https://github.com/jrowberg/i2cdevlib
   5:.\mpu6050.c   **** //
   6:.\mpu6050.c   **** // Changelog:
   7:.\mpu6050.c   **** // 26/May/2014: C version to be used on PSoC Creator (www.cypress.com) by Hernán Sánchez
   8:.\mpu6050.c   **** //     ... - ongoing debug release
   9:.\mpu6050.c   **** 
  10:.\mpu6050.c   **** // NOTE: THIS IS ONLY A PARIAL RELEASE. THIS DEVICE CLASS IS CURRENTLY UNDERGOING ACTIVE
  11:.\mpu6050.c   **** // DEVELOPMENT AND IS STILL MISSING SOME IMPORTANT FEATURES. PLEASE KEEP THIS IN MIND IF
  12:.\mpu6050.c   **** // YOU DECIDE TO USE THIS PARTICULAR CODE FOR ANYTHING.
  13:.\mpu6050.c   **** 
  14:.\mpu6050.c   **** /* ============================================
  15:.\mpu6050.c   **** I2Cdev device library code is placed under the MIT license
  16:.\mpu6050.c   **** Copyright (c) 2012 Jeff Rowberg
  17:.\mpu6050.c   **** 
  18:.\mpu6050.c   **** Permission is hereby granted, free of charge, to any person obtaining a copy
  19:.\mpu6050.c   **** of this software and associated documentation files (the "Software"), to deal
  20:.\mpu6050.c   **** in the Software without restriction, including without limitation the rights
  21:.\mpu6050.c   **** to use, copy, modify, merge, publish, distribute, sublicense, and/or sell
  22:.\mpu6050.c   **** copies of the Software, and to permit persons to whom the Software is
  23:.\mpu6050.c   **** furnished to do so, subject to the following conditions:
  24:.\mpu6050.c   **** 
  25:.\mpu6050.c   **** The above copyright notice and this permission notice shall be included in
  26:.\mpu6050.c   **** all copies or substantial portions of the Software.
  27:.\mpu6050.c   **** 
  28:.\mpu6050.c   **** THE SOFTWARE IS PROVIDED "AS IS", WITHOUT WARRANTY OF ANY KIND, EXPRESS OR
  29:.\mpu6050.c   **** IMPLIED, INCLUDING BUT NOT LIMITED TO THE WARRANTIES OF MERCHANTABILITY,
  30:.\mpu6050.c   **** FITNESS FOR A PARTICULAR PURPOSE AND NONINFRINGEMENT. IN NO EVENT SHALL THE
  31:.\mpu6050.c   **** AUTHORS OR COPYRIGHT HOLDERS BE LIABLE FOR ANY CLAIM, DAMAGES OR OTHER
ARM GAS  C:\Users\Michael\AppData\Local\Temp\ccvFrowP.s 			page 2


  32:.\mpu6050.c   **** LIABILITY, WHETHER IN AN ACTION OF CONTRACT, TORT OR OTHERWISE, ARISING FROM,
  33:.\mpu6050.c   **** OUT OF OR IN CONNECTION WITH THE SOFTWARE OR THE USE OR OTHER DEALINGS IN
  34:.\mpu6050.c   **** THE SOFTWARE.
  35:.\mpu6050.c   **** ===============================================
  36:.\mpu6050.c   **** */
  37:.\mpu6050.c   **** 
  38:.\mpu6050.c   **** 
  39:.\mpu6050.c   **** #include <stdint.h>
  40:.\mpu6050.c   **** #include "mpu6050.h"
  41:.\mpu6050.c   **** 
  42:.\mpu6050.c   **** /** Default constructor, uses default I2C address.
  43:.\mpu6050.c   ****  * @see MPU6050_DEFAULT_ADDRESS
  44:.\mpu6050.c   ****  */
  45:.\mpu6050.c   **** void MPU6050_init() {
  27              		.loc 1 45 0
  28              		.cfi_startproc
  29              		@ args = 0, pretend = 0, frame = 0
  30              		@ frame_needed = 0, uses_anonymous_args = 0
  31              		@ link register save eliminated.
  46:.\mpu6050.c   ****     devAddr = MPU6050_DEFAULT_ADDRESS;
  32              		.loc 1 46 0
  33 0000 6822     		movs	r2, #104
  34 0002 014B     		ldr	r3, .L2
  35 0004 1A70     		strb	r2, [r3]
  36 0006 7047     		bx	lr
  37              	.L3:
  38              		.align	2
  39              	.L2:
  40 0008 00000000 		.word	devAddr
  41              		.cfi_endproc
  42              	.LFE0:
  43              		.size	MPU6050_init, .-MPU6050_init
  44              		.section	.text.I2C_MPU6050_I2CAddress,"ax",%progbits
  45              		.align	2
  46              		.global	I2C_MPU6050_I2CAddress
  47              		.thumb
  48              		.thumb_func
  49              		.type	I2C_MPU6050_I2CAddress, %function
  50              	I2C_MPU6050_I2CAddress:
  51              	.LFB1:
  47:.\mpu6050.c   **** }
  48:.\mpu6050.c   **** 
  49:.\mpu6050.c   **** /** Specific address constructor.
  50:.\mpu6050.c   ****  * @param address I2C address
  51:.\mpu6050.c   ****  * @see MPU6050_DEFAULT_ADDRESS
  52:.\mpu6050.c   ****  * @see MPU6050_ADDRESS_AD0_LOW
  53:.\mpu6050.c   ****  * @see MPU6050_ADDRESS_AD0_HIGH
  54:.\mpu6050.c   ****  */
  55:.\mpu6050.c   **** void I2C_MPU6050_I2CAddress(uint8_t address) {
  52              		.loc 1 55 0
  53              		.cfi_startproc
  54              		@ args = 0, pretend = 0, frame = 0
  55              		@ frame_needed = 0, uses_anonymous_args = 0
  56              		@ link register save eliminated.
  57              	.LVL0:
  56:.\mpu6050.c   ****     devAddr = address;
  58              		.loc 1 56 0
ARM GAS  C:\Users\Michael\AppData\Local\Temp\ccvFrowP.s 			page 3


  59 0000 014B     		ldr	r3, .L5
  60 0002 1870     		strb	r0, [r3]
  61 0004 7047     		bx	lr
  62              	.L6:
  63 0006 00BF     		.align	2
  64              	.L5:
  65 0008 00000000 		.word	devAddr
  66              		.cfi_endproc
  67              	.LFE1:
  68              		.size	I2C_MPU6050_I2CAddress, .-I2C_MPU6050_I2CAddress
  69              		.section	.text.MPU6050_getAuxVDDIOLevel,"ax",%progbits
  70              		.align	2
  71              		.global	MPU6050_getAuxVDDIOLevel
  72              		.thumb
  73              		.thumb_func
  74              		.type	MPU6050_getAuxVDDIOLevel, %function
  75              	MPU6050_getAuxVDDIOLevel:
  76              	.LFB4:
  57:.\mpu6050.c   **** }
  58:.\mpu6050.c   **** 
  59:.\mpu6050.c   **** /** Power on and prepare for general usage.
  60:.\mpu6050.c   ****  * This will activate the device and take it out of sleep mode (which must be done
  61:.\mpu6050.c   ****  * after start-up). This function also sets both the accelerometer and the gyroscope
  62:.\mpu6050.c   ****  * to their most sensitive settings, namely +/- 2g and +/- 250 degrees/sec, and sets
  63:.\mpu6050.c   ****  * the clock source to use the X Gyro for reference, which is slightly better than
  64:.\mpu6050.c   ****  * the default internal clock source.
  65:.\mpu6050.c   ****  */
  66:.\mpu6050.c   **** void MPU6050_initialize() {
  67:.\mpu6050.c   ****     MPU6050_setClockSource(MPU6050_CLOCK_PLL_XGYRO);
  68:.\mpu6050.c   ****     MPU6050_setFullScaleGyroRange(MPU6050_GYRO_FS_250);
  69:.\mpu6050.c   ****     MPU6050_setFullScaleAccelRange(MPU6050_ACCEL_FS_2);
  70:.\mpu6050.c   ****     MPU6050_setSleepEnabled(false); // thanks to Jack Elston for pointing this one out!
  71:.\mpu6050.c   **** }
  72:.\mpu6050.c   **** 
  73:.\mpu6050.c   **** /** Verify the I2C connection.
  74:.\mpu6050.c   ****  * Make sure the device is connected and responds as expected.
  75:.\mpu6050.c   ****  * @return True if connection is valid, false otherwise
  76:.\mpu6050.c   ****  */
  77:.\mpu6050.c   **** bool MPU6050_testConnection() {
  78:.\mpu6050.c   ****     return MPU6050_getDeviceID() == 0x34;
  79:.\mpu6050.c   **** }
  80:.\mpu6050.c   **** 
  81:.\mpu6050.c   **** // AUX_VDDIO register (InvenSense demo code calls this RA_*G_OFFS_TC)
  82:.\mpu6050.c   **** 
  83:.\mpu6050.c   **** /** Get the auxiliary I2C supply voltage level.
  84:.\mpu6050.c   ****  * When set to 1, the auxiliary I2C bus high logic level is VDD. When cleared to
  85:.\mpu6050.c   ****  * 0, the auxiliary I2C bus high logic level is VLOGIC. This does not apply to
  86:.\mpu6050.c   ****  * the MPU-6000, which does not have a VLOGIC pin.
  87:.\mpu6050.c   ****  * @return I2C supply voltage level (0=VLOGIC, 1=VDD)
  88:.\mpu6050.c   ****  */
  89:.\mpu6050.c   **** uint8_t MPU6050_getAuxVDDIOLevel() {
  77              		.loc 1 89 0
  78              		.cfi_startproc
  79              		@ args = 0, pretend = 0, frame = 0
  80              		@ frame_needed = 0, uses_anonymous_args = 0
  81 0000 10B5     		push	{r4, lr}
  82              		.cfi_def_cfa_offset 8
ARM GAS  C:\Users\Michael\AppData\Local\Temp\ccvFrowP.s 			page 4


  83              		.cfi_offset 4, -8
  84              		.cfi_offset 14, -4
  90:.\mpu6050.c   ****     I2CReadBit(devAddr, MPU6050_RA_YG_OFFS_TC, MPU6050_TC_PWR_MODE_BIT, buffer);
  85              		.loc 1 90 0
  86 0002 054C     		ldr	r4, .L9
  87 0004 054B     		ldr	r3, .L9+4
  88 0006 1878     		ldrb	r0, [r3]	@ zero_extendqisi2
  89 0008 0121     		movs	r1, #1
  90 000a 0722     		movs	r2, #7
  91 000c 2346     		mov	r3, r4
  92 000e FFF7FEFF 		bl	I2CReadBit
  93              	.LVL1:
  91:.\mpu6050.c   ****     return buffer[0];
  92:.\mpu6050.c   **** }
  94              		.loc 1 92 0
  95 0012 2078     		ldrb	r0, [r4]	@ zero_extendqisi2
  96 0014 10BD     		pop	{r4, pc}
  97              	.L10:
  98 0016 00BF     		.align	2
  99              	.L9:
 100 0018 00000000 		.word	buffer
 101 001c 00000000 		.word	devAddr
 102              		.cfi_endproc
 103              	.LFE4:
 104              		.size	MPU6050_getAuxVDDIOLevel, .-MPU6050_getAuxVDDIOLevel
 105              		.section	.text.MPU6050_setAuxVDDIOLevel,"ax",%progbits
 106              		.align	2
 107              		.global	MPU6050_setAuxVDDIOLevel
 108              		.thumb
 109              		.thumb_func
 110              		.type	MPU6050_setAuxVDDIOLevel, %function
 111              	MPU6050_setAuxVDDIOLevel:
 112              	.LFB5:
  93:.\mpu6050.c   **** /** Set the auxiliary I2C supply voltage level.
  94:.\mpu6050.c   ****  * When set to 1, the auxiliary I2C bus high logic level is VDD. When cleared to
  95:.\mpu6050.c   ****  * 0, the auxiliary I2C bus high logic level is VLOGIC. This does not apply to
  96:.\mpu6050.c   ****  * the MPU-6000, which does not have a VLOGIC pin.
  97:.\mpu6050.c   ****  * @param level I2C supply voltage level (0=VLOGIC, 1=VDD)
  98:.\mpu6050.c   ****  */
  99:.\mpu6050.c   **** void MPU6050_setAuxVDDIOLevel(uint8_t level) {
 113              		.loc 1 99 0
 114              		.cfi_startproc
 115              		@ args = 0, pretend = 0, frame = 0
 116              		@ frame_needed = 0, uses_anonymous_args = 0
 117              	.LVL2:
 118 0000 08B5     		push	{r3, lr}
 119              		.cfi_def_cfa_offset 8
 120              		.cfi_offset 3, -8
 121              		.cfi_offset 14, -4
 122 0002 0346     		mov	r3, r0
 100:.\mpu6050.c   ****     I2CWriteBit(devAddr, MPU6050_RA_YG_OFFS_TC, MPU6050_TC_PWR_MODE_BIT, level);
 123              		.loc 1 100 0
 124 0004 034A     		ldr	r2, .L13
 125 0006 1078     		ldrb	r0, [r2]	@ zero_extendqisi2
 126              	.LVL3:
 127 0008 0121     		movs	r1, #1
 128 000a 0722     		movs	r2, #7
ARM GAS  C:\Users\Michael\AppData\Local\Temp\ccvFrowP.s 			page 5


 129 000c FFF7FEFF 		bl	I2CWriteBit
 130              	.LVL4:
 131 0010 08BD     		pop	{r3, pc}
 132              	.L14:
 133 0012 00BF     		.align	2
 134              	.L13:
 135 0014 00000000 		.word	devAddr
 136              		.cfi_endproc
 137              	.LFE5:
 138              		.size	MPU6050_setAuxVDDIOLevel, .-MPU6050_setAuxVDDIOLevel
 139              		.section	.text.MPU6050_getRate,"ax",%progbits
 140              		.align	2
 141              		.global	MPU6050_getRate
 142              		.thumb
 143              		.thumb_func
 144              		.type	MPU6050_getRate, %function
 145              	MPU6050_getRate:
 146              	.LFB6:
 101:.\mpu6050.c   **** }
 102:.\mpu6050.c   **** 
 103:.\mpu6050.c   **** // SMPLRT_DIV register
 104:.\mpu6050.c   **** 
 105:.\mpu6050.c   **** /** Get gyroscope output rate divider.
 106:.\mpu6050.c   ****  * The sensor register output, FIFO output, DMP sampling, Motion detection, Zero
 107:.\mpu6050.c   ****  * Motion detection, and Free Fall detection are all based on the Sample Rate.
 108:.\mpu6050.c   ****  * The Sample Rate is generated by dividing the gyroscope output rate by
 109:.\mpu6050.c   ****  * SMPLRT_DIV:
 110:.\mpu6050.c   ****  *
 111:.\mpu6050.c   ****  * Sample Rate = Gyroscope Output Rate / (1 + SMPLRT_DIV)
 112:.\mpu6050.c   ****  *
 113:.\mpu6050.c   ****  * where Gyroscope Output Rate = 8kHz when the DLPF is disabled (DLPF_CFG = 0 or
 114:.\mpu6050.c   ****  * 7), and 1kHz when the DLPF is enabled (see Register 26).
 115:.\mpu6050.c   ****  *
 116:.\mpu6050.c   ****  * Note: The accelerometer output rate is 1kHz. This means that for a Sample
 117:.\mpu6050.c   ****  * Rate greater than 1kHz, the same accelerometer sample may be output to the
 118:.\mpu6050.c   ****  * FIFO, DMP, and sensor registers more than once.
 119:.\mpu6050.c   ****  *
 120:.\mpu6050.c   ****  * For a diagram of the gyroscope and accelerometer signal paths, see Section 8
 121:.\mpu6050.c   ****  * of the MPU-6000/MPU-6050 Product Specification document.
 122:.\mpu6050.c   ****  *
 123:.\mpu6050.c   ****  * @return Current sample rate
 124:.\mpu6050.c   ****  * @see MPU6050_RA_SMPLRT_DIV
 125:.\mpu6050.c   ****  */
 126:.\mpu6050.c   **** uint8_t MPU6050_getRate() {
 147              		.loc 1 126 0
 148              		.cfi_startproc
 149              		@ args = 0, pretend = 0, frame = 0
 150              		@ frame_needed = 0, uses_anonymous_args = 0
 151 0000 10B5     		push	{r4, lr}
 152              		.cfi_def_cfa_offset 8
 153              		.cfi_offset 4, -8
 154              		.cfi_offset 14, -4
 127:.\mpu6050.c   ****     I2CReadByte(devAddr, MPU6050_RA_SMPLRT_DIV, buffer);
 155              		.loc 1 127 0
 156 0002 044C     		ldr	r4, .L17
 157 0004 044B     		ldr	r3, .L17+4
 158 0006 1878     		ldrb	r0, [r3]	@ zero_extendqisi2
ARM GAS  C:\Users\Michael\AppData\Local\Temp\ccvFrowP.s 			page 6


 159 0008 1921     		movs	r1, #25
 160 000a 2246     		mov	r2, r4
 161 000c FFF7FEFF 		bl	I2CReadByte
 162              	.LVL5:
 128:.\mpu6050.c   ****     return buffer[0];
 129:.\mpu6050.c   **** }
 163              		.loc 1 129 0
 164 0010 2078     		ldrb	r0, [r4]	@ zero_extendqisi2
 165 0012 10BD     		pop	{r4, pc}
 166              	.L18:
 167              		.align	2
 168              	.L17:
 169 0014 00000000 		.word	buffer
 170 0018 00000000 		.word	devAddr
 171              		.cfi_endproc
 172              	.LFE6:
 173              		.size	MPU6050_getRate, .-MPU6050_getRate
 174              		.section	.text.MPU6050_setRate,"ax",%progbits
 175              		.align	2
 176              		.global	MPU6050_setRate
 177              		.thumb
 178              		.thumb_func
 179              		.type	MPU6050_setRate, %function
 180              	MPU6050_setRate:
 181              	.LFB7:
 130:.\mpu6050.c   **** /** Set gyroscope sample rate divider.
 131:.\mpu6050.c   ****  * @param rate New sample rate divider
 132:.\mpu6050.c   ****  * @see getRate()
 133:.\mpu6050.c   ****  * @see MPU6050_RA_SMPLRT_DIV
 134:.\mpu6050.c   ****  */
 135:.\mpu6050.c   **** void MPU6050_setRate(uint8_t rate) {
 182              		.loc 1 135 0
 183              		.cfi_startproc
 184              		@ args = 0, pretend = 0, frame = 0
 185              		@ frame_needed = 0, uses_anonymous_args = 0
 186              	.LVL6:
 187 0000 08B5     		push	{r3, lr}
 188              		.cfi_def_cfa_offset 8
 189              		.cfi_offset 3, -8
 190              		.cfi_offset 14, -4
 191 0002 0246     		mov	r2, r0
 136:.\mpu6050.c   ****     I2CWriteByte(devAddr, MPU6050_RA_SMPLRT_DIV, rate);
 192              		.loc 1 136 0
 193 0004 024B     		ldr	r3, .L21
 194 0006 1878     		ldrb	r0, [r3]	@ zero_extendqisi2
 195              	.LVL7:
 196 0008 1921     		movs	r1, #25
 197 000a FFF7FEFF 		bl	I2CWriteByte
 198              	.LVL8:
 199 000e 08BD     		pop	{r3, pc}
 200              	.L22:
 201              		.align	2
 202              	.L21:
 203 0010 00000000 		.word	devAddr
 204              		.cfi_endproc
 205              	.LFE7:
 206              		.size	MPU6050_setRate, .-MPU6050_setRate
ARM GAS  C:\Users\Michael\AppData\Local\Temp\ccvFrowP.s 			page 7


 207              		.section	.text.MPU6050_getExternalFrameSync,"ax",%progbits
 208              		.align	2
 209              		.global	MPU6050_getExternalFrameSync
 210              		.thumb
 211              		.thumb_func
 212              		.type	MPU6050_getExternalFrameSync, %function
 213              	MPU6050_getExternalFrameSync:
 214              	.LFB8:
 137:.\mpu6050.c   **** }
 138:.\mpu6050.c   **** 
 139:.\mpu6050.c   **** // CONFIG register
 140:.\mpu6050.c   **** 
 141:.\mpu6050.c   **** /** Get external FSYNC configuration.
 142:.\mpu6050.c   ****  * Configures the external Frame Synchronization (FSYNC) pin sampling. An
 143:.\mpu6050.c   ****  * external signal connected to the FSYNC pin can be sampled by configuring
 144:.\mpu6050.c   ****  * EXT_SYNC_SET. Signal changes to the FSYNC pin are latched so that short
 145:.\mpu6050.c   ****  * strobes may be captured. The latched FSYNC signal will be sampled at the
 146:.\mpu6050.c   ****  * Sampling Rate, as defined in register 25. After sampling, the latch will
 147:.\mpu6050.c   ****  * reset to the current FSYNC signal state.
 148:.\mpu6050.c   ****  *
 149:.\mpu6050.c   ****  * The sampled value will be reported in place of the least significant bit in
 150:.\mpu6050.c   ****  * a sensor data register determined by the value of EXT_SYNC_SET according to
 151:.\mpu6050.c   ****  * the following table.
 152:.\mpu6050.c   ****  *
 153:.\mpu6050.c   ****  * <pre>
 154:.\mpu6050.c   ****  * EXT_SYNC_SET | FSYNC Bit Location
 155:.\mpu6050.c   ****  * -------------+-------------------
 156:.\mpu6050.c   ****  * 0            | Input disabled
 157:.\mpu6050.c   ****  * 1            | TEMP_OUT_L[0]
 158:.\mpu6050.c   ****  * 2            | GYRO_XOUT_L[0]
 159:.\mpu6050.c   ****  * 3            | GYRO_YOUT_L[0]
 160:.\mpu6050.c   ****  * 4            | GYRO_ZOUT_L[0]
 161:.\mpu6050.c   ****  * 5            | ACCEL_XOUT_L[0]
 162:.\mpu6050.c   ****  * 6            | ACCEL_YOUT_L[0]
 163:.\mpu6050.c   ****  * 7            | ACCEL_ZOUT_L[0]
 164:.\mpu6050.c   ****  * </pre>
 165:.\mpu6050.c   ****  *
 166:.\mpu6050.c   ****  * @return FSYNC configuration value
 167:.\mpu6050.c   ****  */
 168:.\mpu6050.c   **** uint8_t MPU6050_getExternalFrameSync() {
 215              		.loc 1 168 0
 216              		.cfi_startproc
 217              		@ args = 0, pretend = 0, frame = 0
 218              		@ frame_needed = 0, uses_anonymous_args = 0
 219 0000 10B5     		push	{r4, lr}
 220              		.cfi_def_cfa_offset 8
 221              		.cfi_offset 4, -8
 222              		.cfi_offset 14, -4
 223 0002 82B0     		sub	sp, sp, #8
 224              		.cfi_def_cfa_offset 16
 169:.\mpu6050.c   ****     I2CReadBits(devAddr, MPU6050_RA_CONFIG, MPU6050_CFG_EXT_SYNC_SET_BIT, MPU6050_CFG_EXT_SYNC_SET_
 225              		.loc 1 169 0
 226 0004 054B     		ldr	r3, .L25
 227 0006 1878     		ldrb	r0, [r3]	@ zero_extendqisi2
 228 0008 054C     		ldr	r4, .L25+4
 229 000a 0094     		str	r4, [sp]
 230 000c 1A21     		movs	r1, #26
ARM GAS  C:\Users\Michael\AppData\Local\Temp\ccvFrowP.s 			page 8


 231 000e 0522     		movs	r2, #5
 232 0010 0323     		movs	r3, #3
 233 0012 FFF7FEFF 		bl	I2CReadBits
 234              	.LVL9:
 170:.\mpu6050.c   ****     return buffer[0];
 171:.\mpu6050.c   **** }
 235              		.loc 1 171 0
 236 0016 2078     		ldrb	r0, [r4]	@ zero_extendqisi2
 237 0018 02B0     		add	sp, sp, #8
 238              		.cfi_def_cfa_offset 8
 239              		@ sp needed
 240 001a 10BD     		pop	{r4, pc}
 241              	.L26:
 242              		.align	2
 243              	.L25:
 244 001c 00000000 		.word	devAddr
 245 0020 00000000 		.word	buffer
 246              		.cfi_endproc
 247              	.LFE8:
 248              		.size	MPU6050_getExternalFrameSync, .-MPU6050_getExternalFrameSync
 249              		.section	.text.MPU6050_setExternalFrameSync,"ax",%progbits
 250              		.align	2
 251              		.global	MPU6050_setExternalFrameSync
 252              		.thumb
 253              		.thumb_func
 254              		.type	MPU6050_setExternalFrameSync, %function
 255              	MPU6050_setExternalFrameSync:
 256              	.LFB9:
 172:.\mpu6050.c   **** /** Set external FSYNC configuration.
 173:.\mpu6050.c   ****  * @see getExternalFrameSync()
 174:.\mpu6050.c   ****  * @see MPU6050_RA_CONFIG
 175:.\mpu6050.c   ****  * @param sync New FSYNC configuration value
 176:.\mpu6050.c   ****  */
 177:.\mpu6050.c   **** void MPU6050_setExternalFrameSync(uint8_t sync) {
 257              		.loc 1 177 0
 258              		.cfi_startproc
 259              		@ args = 0, pretend = 0, frame = 0
 260              		@ frame_needed = 0, uses_anonymous_args = 0
 261              	.LVL10:
 262 0000 00B5     		push	{lr}
 263              		.cfi_def_cfa_offset 4
 264              		.cfi_offset 14, -4
 265 0002 83B0     		sub	sp, sp, #12
 266              		.cfi_def_cfa_offset 16
 178:.\mpu6050.c   ****     I2CWriteBits(devAddr, MPU6050_RA_CONFIG, MPU6050_CFG_EXT_SYNC_SET_BIT, MPU6050_CFG_EXT_SYNC_SET
 267              		.loc 1 178 0
 268 0004 054B     		ldr	r3, .L29
 269 0006 1B78     		ldrb	r3, [r3]	@ zero_extendqisi2
 270 0008 0090     		str	r0, [sp]
 271 000a 1846     		mov	r0, r3
 272              	.LVL11:
 273 000c 1A21     		movs	r1, #26
 274 000e 0522     		movs	r2, #5
 275 0010 0323     		movs	r3, #3
 276 0012 FFF7FEFF 		bl	I2CWriteBits
 277              	.LVL12:
 179:.\mpu6050.c   **** }
ARM GAS  C:\Users\Michael\AppData\Local\Temp\ccvFrowP.s 			page 9


 278              		.loc 1 179 0
 279 0016 03B0     		add	sp, sp, #12
 280              		.cfi_def_cfa_offset 4
 281              		@ sp needed
 282 0018 5DF804FB 		ldr	pc, [sp], #4
 283              	.L30:
 284              		.align	2
 285              	.L29:
 286 001c 00000000 		.word	devAddr
 287              		.cfi_endproc
 288              	.LFE9:
 289              		.size	MPU6050_setExternalFrameSync, .-MPU6050_setExternalFrameSync
 290              		.section	.text.MPU6050_getDLPFMode,"ax",%progbits
 291              		.align	2
 292              		.global	MPU6050_getDLPFMode
 293              		.thumb
 294              		.thumb_func
 295              		.type	MPU6050_getDLPFMode, %function
 296              	MPU6050_getDLPFMode:
 297              	.LFB10:
 180:.\mpu6050.c   **** /** Get digital low-pass filter configuration.
 181:.\mpu6050.c   ****  * The DLPF_CFG parameter sets the digital low pass filter configuration. It
 182:.\mpu6050.c   ****  * also determines the internal sampling rate used by the device as shown in
 183:.\mpu6050.c   ****  * the table below.
 184:.\mpu6050.c   ****  *
 185:.\mpu6050.c   ****  * Note: The accelerometer output rate is 1kHz. This means that for a Sample
 186:.\mpu6050.c   ****  * Rate greater than 1kHz, the same accelerometer sample may be output to the
 187:.\mpu6050.c   ****  * FIFO, DMP, and sensor registers more than once.
 188:.\mpu6050.c   ****  *
 189:.\mpu6050.c   ****  * <pre>
 190:.\mpu6050.c   ****  *          |   ACCELEROMETER    |           GYROSCOPE
 191:.\mpu6050.c   ****  * DLPF_CFG | Bandwidth | Delay  | Bandwidth | Delay  | Sample Rate
 192:.\mpu6050.c   ****  * ---------+-----------+--------+-----------+--------+-------------
 193:.\mpu6050.c   ****  * 0        | 260Hz     | 0ms    | 256Hz     | 0.98ms | 8kHz
 194:.\mpu6050.c   ****  * 1        | 184Hz     | 2.0ms  | 188Hz     | 1.9ms  | 1kHz
 195:.\mpu6050.c   ****  * 2        | 94Hz      | 3.0ms  | 98Hz      | 2.8ms  | 1kHz
 196:.\mpu6050.c   ****  * 3        | 44Hz      | 4.9ms  | 42Hz      | 4.8ms  | 1kHz
 197:.\mpu6050.c   ****  * 4        | 21Hz      | 8.5ms  | 20Hz      | 8.3ms  | 1kHz
 198:.\mpu6050.c   ****  * 5        | 10Hz      | 13.8ms | 10Hz      | 13.4ms | 1kHz
 199:.\mpu6050.c   ****  * 6        | 5Hz       | 19.0ms | 5Hz       | 18.6ms | 1kHz
 200:.\mpu6050.c   ****  * 7        |   -- Reserved --   |   -- Reserved --   | Reserved
 201:.\mpu6050.c   ****  * </pre>
 202:.\mpu6050.c   ****  *
 203:.\mpu6050.c   ****  * @return DLFP configuration
 204:.\mpu6050.c   ****  * @see MPU6050_RA_CONFIG
 205:.\mpu6050.c   ****  * @see MPU6050_CFG_DLPF_CFG_BIT
 206:.\mpu6050.c   ****  * @see MPU6050_CFG_DLPF_CFG_LENGTH
 207:.\mpu6050.c   ****  */
 208:.\mpu6050.c   **** uint8_t MPU6050_getDLPFMode() {
 298              		.loc 1 208 0
 299              		.cfi_startproc
 300              		@ args = 0, pretend = 0, frame = 0
 301              		@ frame_needed = 0, uses_anonymous_args = 0
 302 0000 10B5     		push	{r4, lr}
 303              		.cfi_def_cfa_offset 8
 304              		.cfi_offset 4, -8
 305              		.cfi_offset 14, -4
ARM GAS  C:\Users\Michael\AppData\Local\Temp\ccvFrowP.s 			page 10


 306 0002 82B0     		sub	sp, sp, #8
 307              		.cfi_def_cfa_offset 16
 209:.\mpu6050.c   ****     I2CReadBits(devAddr, MPU6050_RA_CONFIG, MPU6050_CFG_DLPF_CFG_BIT, MPU6050_CFG_DLPF_CFG_LENGTH, 
 308              		.loc 1 209 0
 309 0004 054B     		ldr	r3, .L33
 310 0006 1878     		ldrb	r0, [r3]	@ zero_extendqisi2
 311 0008 054C     		ldr	r4, .L33+4
 312 000a 0094     		str	r4, [sp]
 313 000c 1A21     		movs	r1, #26
 314 000e 0222     		movs	r2, #2
 315 0010 0323     		movs	r3, #3
 316 0012 FFF7FEFF 		bl	I2CReadBits
 317              	.LVL13:
 210:.\mpu6050.c   ****     return buffer[0];
 211:.\mpu6050.c   **** }
 318              		.loc 1 211 0
 319 0016 2078     		ldrb	r0, [r4]	@ zero_extendqisi2
 320 0018 02B0     		add	sp, sp, #8
 321              		.cfi_def_cfa_offset 8
 322              		@ sp needed
 323 001a 10BD     		pop	{r4, pc}
 324              	.L34:
 325              		.align	2
 326              	.L33:
 327 001c 00000000 		.word	devAddr
 328 0020 00000000 		.word	buffer
 329              		.cfi_endproc
 330              	.LFE10:
 331              		.size	MPU6050_getDLPFMode, .-MPU6050_getDLPFMode
 332              		.section	.text.MPU6050_setDLPFMode,"ax",%progbits
 333              		.align	2
 334              		.global	MPU6050_setDLPFMode
 335              		.thumb
 336              		.thumb_func
 337              		.type	MPU6050_setDLPFMode, %function
 338              	MPU6050_setDLPFMode:
 339              	.LFB11:
 212:.\mpu6050.c   **** /** Set digital low-pass filter configuration.
 213:.\mpu6050.c   ****  * @param mode New DLFP configuration setting
 214:.\mpu6050.c   ****  * @see getDLPFBandwidth()
 215:.\mpu6050.c   ****  * @see MPU6050_DLPF_BW_256
 216:.\mpu6050.c   ****  * @see MPU6050_RA_CONFIG
 217:.\mpu6050.c   ****  * @see MPU6050_CFG_DLPF_CFG_BIT
 218:.\mpu6050.c   ****  * @see MPU6050_CFG_DLPF_CFG_LENGTH
 219:.\mpu6050.c   ****  */
 220:.\mpu6050.c   **** void MPU6050_setDLPFMode(uint8_t mode) {
 340              		.loc 1 220 0
 341              		.cfi_startproc
 342              		@ args = 0, pretend = 0, frame = 0
 343              		@ frame_needed = 0, uses_anonymous_args = 0
 344              	.LVL14:
 345 0000 00B5     		push	{lr}
 346              		.cfi_def_cfa_offset 4
 347              		.cfi_offset 14, -4
 348 0002 83B0     		sub	sp, sp, #12
 349              		.cfi_def_cfa_offset 16
 221:.\mpu6050.c   ****     I2CWriteBits(devAddr, MPU6050_RA_CONFIG, MPU6050_CFG_DLPF_CFG_BIT, MPU6050_CFG_DLPF_CFG_LENGTH,
ARM GAS  C:\Users\Michael\AppData\Local\Temp\ccvFrowP.s 			page 11


 350              		.loc 1 221 0
 351 0004 054B     		ldr	r3, .L37
 352 0006 1B78     		ldrb	r3, [r3]	@ zero_extendqisi2
 353 0008 0090     		str	r0, [sp]
 354 000a 1846     		mov	r0, r3
 355              	.LVL15:
 356 000c 1A21     		movs	r1, #26
 357 000e 0222     		movs	r2, #2
 358 0010 0323     		movs	r3, #3
 359 0012 FFF7FEFF 		bl	I2CWriteBits
 360              	.LVL16:
 222:.\mpu6050.c   **** }
 361              		.loc 1 222 0
 362 0016 03B0     		add	sp, sp, #12
 363              		.cfi_def_cfa_offset 4
 364              		@ sp needed
 365 0018 5DF804FB 		ldr	pc, [sp], #4
 366              	.L38:
 367              		.align	2
 368              	.L37:
 369 001c 00000000 		.word	devAddr
 370              		.cfi_endproc
 371              	.LFE11:
 372              		.size	MPU6050_setDLPFMode, .-MPU6050_setDLPFMode
 373              		.section	.text.MPU6050_getFullScaleGyroRange,"ax",%progbits
 374              		.align	2
 375              		.global	MPU6050_getFullScaleGyroRange
 376              		.thumb
 377              		.thumb_func
 378              		.type	MPU6050_getFullScaleGyroRange, %function
 379              	MPU6050_getFullScaleGyroRange:
 380              	.LFB12:
 223:.\mpu6050.c   **** 
 224:.\mpu6050.c   **** // GYRO_CONFIG register
 225:.\mpu6050.c   **** 
 226:.\mpu6050.c   **** /** Get full-scale gyroscope range.
 227:.\mpu6050.c   ****  * The FS_SEL parameter allows setting the full-scale range of the gyro sensors,
 228:.\mpu6050.c   ****  * as described in the table below.
 229:.\mpu6050.c   ****  *
 230:.\mpu6050.c   ****  * <pre>
 231:.\mpu6050.c   ****  * 0 = +/- 250 degrees/sec
 232:.\mpu6050.c   ****  * 1 = +/- 500 degrees/sec
 233:.\mpu6050.c   ****  * 2 = +/- 1000 degrees/sec
 234:.\mpu6050.c   ****  * 3 = +/- 2000 degrees/sec
 235:.\mpu6050.c   ****  * </pre>
 236:.\mpu6050.c   ****  *
 237:.\mpu6050.c   ****  * @return Current full-scale gyroscope range setting
 238:.\mpu6050.c   ****  * @see MPU6050_GYRO_FS_250
 239:.\mpu6050.c   ****  * @see MPU6050_RA_GYRO_CONFIG
 240:.\mpu6050.c   ****  * @see MPU6050_GCONFIG_FS_SEL_BIT
 241:.\mpu6050.c   ****  * @see MPU6050_GCONFIG_FS_SEL_LENGTH
 242:.\mpu6050.c   ****  */
 243:.\mpu6050.c   **** uint8_t MPU6050_getFullScaleGyroRange() {
 381              		.loc 1 243 0
 382              		.cfi_startproc
 383              		@ args = 0, pretend = 0, frame = 0
 384              		@ frame_needed = 0, uses_anonymous_args = 0
ARM GAS  C:\Users\Michael\AppData\Local\Temp\ccvFrowP.s 			page 12


 385 0000 10B5     		push	{r4, lr}
 386              		.cfi_def_cfa_offset 8
 387              		.cfi_offset 4, -8
 388              		.cfi_offset 14, -4
 389 0002 82B0     		sub	sp, sp, #8
 390              		.cfi_def_cfa_offset 16
 244:.\mpu6050.c   ****     I2CReadBits(devAddr, MPU6050_RA_GYRO_CONFIG, MPU6050_GCONFIG_FS_SEL_BIT, MPU6050_GCONFIG_FS_SEL
 391              		.loc 1 244 0
 392 0004 054B     		ldr	r3, .L41
 393 0006 1878     		ldrb	r0, [r3]	@ zero_extendqisi2
 394 0008 054C     		ldr	r4, .L41+4
 395 000a 0094     		str	r4, [sp]
 396 000c 1B21     		movs	r1, #27
 397 000e 0422     		movs	r2, #4
 398 0010 0223     		movs	r3, #2
 399 0012 FFF7FEFF 		bl	I2CReadBits
 400              	.LVL17:
 245:.\mpu6050.c   ****     return buffer[0];
 246:.\mpu6050.c   **** }
 401              		.loc 1 246 0
 402 0016 2078     		ldrb	r0, [r4]	@ zero_extendqisi2
 403 0018 02B0     		add	sp, sp, #8
 404              		.cfi_def_cfa_offset 8
 405              		@ sp needed
 406 001a 10BD     		pop	{r4, pc}
 407              	.L42:
 408              		.align	2
 409              	.L41:
 410 001c 00000000 		.word	devAddr
 411 0020 00000000 		.word	buffer
 412              		.cfi_endproc
 413              	.LFE12:
 414              		.size	MPU6050_getFullScaleGyroRange, .-MPU6050_getFullScaleGyroRange
 415              		.section	.text.MPU6050_setFullScaleGyroRange,"ax",%progbits
 416              		.align	2
 417              		.global	MPU6050_setFullScaleGyroRange
 418              		.thumb
 419              		.thumb_func
 420              		.type	MPU6050_setFullScaleGyroRange, %function
 421              	MPU6050_setFullScaleGyroRange:
 422              	.LFB13:
 247:.\mpu6050.c   **** /** Set full-scale gyroscope range.
 248:.\mpu6050.c   ****  * @param range New full-scale gyroscope range value
 249:.\mpu6050.c   ****  * @see getFullScaleRange()
 250:.\mpu6050.c   ****  * @see MPU6050_GYRO_FS_250
 251:.\mpu6050.c   ****  * @see MPU6050_RA_GYRO_CONFIG
 252:.\mpu6050.c   ****  * @see MPU6050_GCONFIG_FS_SEL_BIT
 253:.\mpu6050.c   ****  * @see MPU6050_GCONFIG_FS_SEL_LENGTH
 254:.\mpu6050.c   ****  */
 255:.\mpu6050.c   **** void MPU6050_setFullScaleGyroRange(uint8_t range) {
 423              		.loc 1 255 0
 424              		.cfi_startproc
 425              		@ args = 0, pretend = 0, frame = 0
 426              		@ frame_needed = 0, uses_anonymous_args = 0
 427              	.LVL18:
 428 0000 00B5     		push	{lr}
 429              		.cfi_def_cfa_offset 4
ARM GAS  C:\Users\Michael\AppData\Local\Temp\ccvFrowP.s 			page 13


 430              		.cfi_offset 14, -4
 431 0002 83B0     		sub	sp, sp, #12
 432              		.cfi_def_cfa_offset 16
 256:.\mpu6050.c   ****     I2CWriteBits(devAddr, MPU6050_RA_GYRO_CONFIG, MPU6050_GCONFIG_FS_SEL_BIT, MPU6050_GCONFIG_FS_SE
 433              		.loc 1 256 0
 434 0004 054B     		ldr	r3, .L45
 435 0006 1B78     		ldrb	r3, [r3]	@ zero_extendqisi2
 436 0008 0090     		str	r0, [sp]
 437 000a 1846     		mov	r0, r3
 438              	.LVL19:
 439 000c 1B21     		movs	r1, #27
 440 000e 0422     		movs	r2, #4
 441 0010 0223     		movs	r3, #2
 442 0012 FFF7FEFF 		bl	I2CWriteBits
 443              	.LVL20:
 257:.\mpu6050.c   **** }
 444              		.loc 1 257 0
 445 0016 03B0     		add	sp, sp, #12
 446              		.cfi_def_cfa_offset 4
 447              		@ sp needed
 448 0018 5DF804FB 		ldr	pc, [sp], #4
 449              	.L46:
 450              		.align	2
 451              	.L45:
 452 001c 00000000 		.word	devAddr
 453              		.cfi_endproc
 454              	.LFE13:
 455              		.size	MPU6050_setFullScaleGyroRange, .-MPU6050_setFullScaleGyroRange
 456              		.section	.text.MPU6050_getAccelXSelfTest,"ax",%progbits
 457              		.align	2
 458              		.global	MPU6050_getAccelXSelfTest
 459              		.thumb
 460              		.thumb_func
 461              		.type	MPU6050_getAccelXSelfTest, %function
 462              	MPU6050_getAccelXSelfTest:
 463              	.LFB14:
 258:.\mpu6050.c   **** 
 259:.\mpu6050.c   **** // ACCEL_CONFIG register
 260:.\mpu6050.c   **** 
 261:.\mpu6050.c   **** /** Get self-test enabled setting for accelerometer X axis.
 262:.\mpu6050.c   ****  * @return Self-test enabled value
 263:.\mpu6050.c   ****  * @see MPU6050_RA_ACCEL_CONFIG
 264:.\mpu6050.c   ****  */
 265:.\mpu6050.c   **** bool MPU6050_getAccelXSelfTest() {
 464              		.loc 1 265 0
 465              		.cfi_startproc
 466              		@ args = 0, pretend = 0, frame = 0
 467              		@ frame_needed = 0, uses_anonymous_args = 0
 468 0000 10B5     		push	{r4, lr}
 469              		.cfi_def_cfa_offset 8
 470              		.cfi_offset 4, -8
 471              		.cfi_offset 14, -4
 266:.\mpu6050.c   ****     I2CReadBit(devAddr, MPU6050_RA_ACCEL_CONFIG, MPU6050_ACONFIG_XA_ST_BIT, buffer);
 472              		.loc 1 266 0
 473 0002 064C     		ldr	r4, .L49
 474 0004 064B     		ldr	r3, .L49+4
 475 0006 1878     		ldrb	r0, [r3]	@ zero_extendqisi2
ARM GAS  C:\Users\Michael\AppData\Local\Temp\ccvFrowP.s 			page 14


 476 0008 1C21     		movs	r1, #28
 477 000a 0722     		movs	r2, #7
 478 000c 2346     		mov	r3, r4
 479 000e FFF7FEFF 		bl	I2CReadBit
 480              	.LVL21:
 267:.\mpu6050.c   ****     return buffer[0];
 481              		.loc 1 267 0
 482 0012 2078     		ldrb	r0, [r4]	@ zero_extendqisi2
 268:.\mpu6050.c   **** }
 483              		.loc 1 268 0
 484 0014 0030     		adds	r0, r0, #0
 485 0016 18BF     		it	ne
 486 0018 0120     		movne	r0, #1
 487 001a 10BD     		pop	{r4, pc}
 488              	.L50:
 489              		.align	2
 490              	.L49:
 491 001c 00000000 		.word	buffer
 492 0020 00000000 		.word	devAddr
 493              		.cfi_endproc
 494              	.LFE14:
 495              		.size	MPU6050_getAccelXSelfTest, .-MPU6050_getAccelXSelfTest
 496              		.section	.text.MPU6050_setAccelXSelfTest,"ax",%progbits
 497              		.align	2
 498              		.global	MPU6050_setAccelXSelfTest
 499              		.thumb
 500              		.thumb_func
 501              		.type	MPU6050_setAccelXSelfTest, %function
 502              	MPU6050_setAccelXSelfTest:
 503              	.LFB15:
 269:.\mpu6050.c   **** /** Set self-test enabled setting for accelerometer X axis.
 270:.\mpu6050.c   ****  * @param enabled Self-test enabled value
 271:.\mpu6050.c   ****  * @see MPU6050_RA_ACCEL_CONFIG
 272:.\mpu6050.c   ****  */
 273:.\mpu6050.c   **** void MPU6050_setAccelXSelfTest(bool enabled) {
 504              		.loc 1 273 0
 505              		.cfi_startproc
 506              		@ args = 0, pretend = 0, frame = 0
 507              		@ frame_needed = 0, uses_anonymous_args = 0
 508              	.LVL22:
 509 0000 08B5     		push	{r3, lr}
 510              		.cfi_def_cfa_offset 8
 511              		.cfi_offset 3, -8
 512              		.cfi_offset 14, -4
 513 0002 0346     		mov	r3, r0
 274:.\mpu6050.c   ****     I2CWriteBit(devAddr, MPU6050_RA_ACCEL_CONFIG, MPU6050_ACONFIG_XA_ST_BIT, enabled);
 514              		.loc 1 274 0
 515 0004 034A     		ldr	r2, .L53
 516 0006 1078     		ldrb	r0, [r2]	@ zero_extendqisi2
 517              	.LVL23:
 518 0008 1C21     		movs	r1, #28
 519 000a 0722     		movs	r2, #7
 520 000c FFF7FEFF 		bl	I2CWriteBit
 521              	.LVL24:
 522 0010 08BD     		pop	{r3, pc}
 523              	.L54:
 524 0012 00BF     		.align	2
ARM GAS  C:\Users\Michael\AppData\Local\Temp\ccvFrowP.s 			page 15


 525              	.L53:
 526 0014 00000000 		.word	devAddr
 527              		.cfi_endproc
 528              	.LFE15:
 529              		.size	MPU6050_setAccelXSelfTest, .-MPU6050_setAccelXSelfTest
 530              		.section	.text.MPU6050_getAccelYSelfTest,"ax",%progbits
 531              		.align	2
 532              		.global	MPU6050_getAccelYSelfTest
 533              		.thumb
 534              		.thumb_func
 535              		.type	MPU6050_getAccelYSelfTest, %function
 536              	MPU6050_getAccelYSelfTest:
 537              	.LFB16:
 275:.\mpu6050.c   **** }
 276:.\mpu6050.c   **** /** Get self-test enabled value for accelerometer Y axis.
 277:.\mpu6050.c   ****  * @return Self-test enabled value
 278:.\mpu6050.c   ****  * @see MPU6050_RA_ACCEL_CONFIG
 279:.\mpu6050.c   ****  */
 280:.\mpu6050.c   **** bool MPU6050_getAccelYSelfTest() {
 538              		.loc 1 280 0
 539              		.cfi_startproc
 540              		@ args = 0, pretend = 0, frame = 0
 541              		@ frame_needed = 0, uses_anonymous_args = 0
 542 0000 10B5     		push	{r4, lr}
 543              		.cfi_def_cfa_offset 8
 544              		.cfi_offset 4, -8
 545              		.cfi_offset 14, -4
 281:.\mpu6050.c   ****     I2CReadBit(devAddr, MPU6050_RA_ACCEL_CONFIG, MPU6050_ACONFIG_YA_ST_BIT, buffer);
 546              		.loc 1 281 0
 547 0002 064C     		ldr	r4, .L57
 548 0004 064B     		ldr	r3, .L57+4
 549 0006 1878     		ldrb	r0, [r3]	@ zero_extendqisi2
 550 0008 1C21     		movs	r1, #28
 551 000a 0622     		movs	r2, #6
 552 000c 2346     		mov	r3, r4
 553 000e FFF7FEFF 		bl	I2CReadBit
 554              	.LVL25:
 282:.\mpu6050.c   ****     return buffer[0];
 555              		.loc 1 282 0
 556 0012 2078     		ldrb	r0, [r4]	@ zero_extendqisi2
 283:.\mpu6050.c   **** }
 557              		.loc 1 283 0
 558 0014 0030     		adds	r0, r0, #0
 559 0016 18BF     		it	ne
 560 0018 0120     		movne	r0, #1
 561 001a 10BD     		pop	{r4, pc}
 562              	.L58:
 563              		.align	2
 564              	.L57:
 565 001c 00000000 		.word	buffer
 566 0020 00000000 		.word	devAddr
 567              		.cfi_endproc
 568              	.LFE16:
 569              		.size	MPU6050_getAccelYSelfTest, .-MPU6050_getAccelYSelfTest
 570              		.section	.text.MPU6050_setAccelYSelfTest,"ax",%progbits
 571              		.align	2
 572              		.global	MPU6050_setAccelYSelfTest
ARM GAS  C:\Users\Michael\AppData\Local\Temp\ccvFrowP.s 			page 16


 573              		.thumb
 574              		.thumb_func
 575              		.type	MPU6050_setAccelYSelfTest, %function
 576              	MPU6050_setAccelYSelfTest:
 577              	.LFB17:
 284:.\mpu6050.c   **** /** Set self-test enabled value for accelerometer Y axis.
 285:.\mpu6050.c   ****  * @param enabled Self-test enabled value
 286:.\mpu6050.c   ****  * @see MPU6050_RA_ACCEL_CONFIG
 287:.\mpu6050.c   ****  */
 288:.\mpu6050.c   **** void MPU6050_setAccelYSelfTest(bool enabled) {
 578              		.loc 1 288 0
 579              		.cfi_startproc
 580              		@ args = 0, pretend = 0, frame = 0
 581              		@ frame_needed = 0, uses_anonymous_args = 0
 582              	.LVL26:
 583 0000 08B5     		push	{r3, lr}
 584              		.cfi_def_cfa_offset 8
 585              		.cfi_offset 3, -8
 586              		.cfi_offset 14, -4
 587 0002 0346     		mov	r3, r0
 289:.\mpu6050.c   ****     I2CWriteBit(devAddr, MPU6050_RA_ACCEL_CONFIG, MPU6050_ACONFIG_YA_ST_BIT, enabled);
 588              		.loc 1 289 0
 589 0004 034A     		ldr	r2, .L61
 590 0006 1078     		ldrb	r0, [r2]	@ zero_extendqisi2
 591              	.LVL27:
 592 0008 1C21     		movs	r1, #28
 593 000a 0622     		movs	r2, #6
 594 000c FFF7FEFF 		bl	I2CWriteBit
 595              	.LVL28:
 596 0010 08BD     		pop	{r3, pc}
 597              	.L62:
 598 0012 00BF     		.align	2
 599              	.L61:
 600 0014 00000000 		.word	devAddr
 601              		.cfi_endproc
 602              	.LFE17:
 603              		.size	MPU6050_setAccelYSelfTest, .-MPU6050_setAccelYSelfTest
 604              		.section	.text.MPU6050_getAccelZSelfTest,"ax",%progbits
 605              		.align	2
 606              		.global	MPU6050_getAccelZSelfTest
 607              		.thumb
 608              		.thumb_func
 609              		.type	MPU6050_getAccelZSelfTest, %function
 610              	MPU6050_getAccelZSelfTest:
 611              	.LFB18:
 290:.\mpu6050.c   **** }
 291:.\mpu6050.c   **** /** Get self-test enabled value for accelerometer Z axis.
 292:.\mpu6050.c   ****  * @return Self-test enabled value
 293:.\mpu6050.c   ****  * @see MPU6050_RA_ACCEL_CONFIG
 294:.\mpu6050.c   ****  */
 295:.\mpu6050.c   **** bool MPU6050_getAccelZSelfTest() {
 612              		.loc 1 295 0
 613              		.cfi_startproc
 614              		@ args = 0, pretend = 0, frame = 0
 615              		@ frame_needed = 0, uses_anonymous_args = 0
 616 0000 10B5     		push	{r4, lr}
 617              		.cfi_def_cfa_offset 8
ARM GAS  C:\Users\Michael\AppData\Local\Temp\ccvFrowP.s 			page 17


 618              		.cfi_offset 4, -8
 619              		.cfi_offset 14, -4
 296:.\mpu6050.c   ****     I2CReadBit(devAddr, MPU6050_RA_ACCEL_CONFIG, MPU6050_ACONFIG_ZA_ST_BIT, buffer);
 620              		.loc 1 296 0
 621 0002 064C     		ldr	r4, .L65
 622 0004 064B     		ldr	r3, .L65+4
 623 0006 1878     		ldrb	r0, [r3]	@ zero_extendqisi2
 624 0008 1C21     		movs	r1, #28
 625 000a 0522     		movs	r2, #5
 626 000c 2346     		mov	r3, r4
 627 000e FFF7FEFF 		bl	I2CReadBit
 628              	.LVL29:
 297:.\mpu6050.c   ****     return buffer[0];
 629              		.loc 1 297 0
 630 0012 2078     		ldrb	r0, [r4]	@ zero_extendqisi2
 298:.\mpu6050.c   **** }
 631              		.loc 1 298 0
 632 0014 0030     		adds	r0, r0, #0
 633 0016 18BF     		it	ne
 634 0018 0120     		movne	r0, #1
 635 001a 10BD     		pop	{r4, pc}
 636              	.L66:
 637              		.align	2
 638              	.L65:
 639 001c 00000000 		.word	buffer
 640 0020 00000000 		.word	devAddr
 641              		.cfi_endproc
 642              	.LFE18:
 643              		.size	MPU6050_getAccelZSelfTest, .-MPU6050_getAccelZSelfTest
 644              		.section	.text.MPU6050_setAccelZSelfTest,"ax",%progbits
 645              		.align	2
 646              		.global	MPU6050_setAccelZSelfTest
 647              		.thumb
 648              		.thumb_func
 649              		.type	MPU6050_setAccelZSelfTest, %function
 650              	MPU6050_setAccelZSelfTest:
 651              	.LFB19:
 299:.\mpu6050.c   **** /** Set self-test enabled value for accelerometer Z axis.
 300:.\mpu6050.c   ****  * @param enabled Self-test enabled value
 301:.\mpu6050.c   ****  * @see MPU6050_RA_ACCEL_CONFIG
 302:.\mpu6050.c   ****  */
 303:.\mpu6050.c   **** void MPU6050_setAccelZSelfTest(bool enabled) {
 652              		.loc 1 303 0
 653              		.cfi_startproc
 654              		@ args = 0, pretend = 0, frame = 0
 655              		@ frame_needed = 0, uses_anonymous_args = 0
 656              	.LVL30:
 657 0000 08B5     		push	{r3, lr}
 658              		.cfi_def_cfa_offset 8
 659              		.cfi_offset 3, -8
 660              		.cfi_offset 14, -4
 661 0002 0346     		mov	r3, r0
 304:.\mpu6050.c   ****     I2CWriteBit(devAddr, MPU6050_RA_ACCEL_CONFIG, MPU6050_ACONFIG_ZA_ST_BIT, enabled);
 662              		.loc 1 304 0
 663 0004 034A     		ldr	r2, .L69
 664 0006 1078     		ldrb	r0, [r2]	@ zero_extendqisi2
 665              	.LVL31:
ARM GAS  C:\Users\Michael\AppData\Local\Temp\ccvFrowP.s 			page 18


 666 0008 1C21     		movs	r1, #28
 667 000a 0522     		movs	r2, #5
 668 000c FFF7FEFF 		bl	I2CWriteBit
 669              	.LVL32:
 670 0010 08BD     		pop	{r3, pc}
 671              	.L70:
 672 0012 00BF     		.align	2
 673              	.L69:
 674 0014 00000000 		.word	devAddr
 675              		.cfi_endproc
 676              	.LFE19:
 677              		.size	MPU6050_setAccelZSelfTest, .-MPU6050_setAccelZSelfTest
 678              		.section	.text.MPU6050_getFullScaleAccelRange,"ax",%progbits
 679              		.align	2
 680              		.global	MPU6050_getFullScaleAccelRange
 681              		.thumb
 682              		.thumb_func
 683              		.type	MPU6050_getFullScaleAccelRange, %function
 684              	MPU6050_getFullScaleAccelRange:
 685              	.LFB20:
 305:.\mpu6050.c   **** }
 306:.\mpu6050.c   **** /** Get full-scale accelerometer range.
 307:.\mpu6050.c   ****  * The FS_SEL parameter allows setting the full-scale range of the accelerometer
 308:.\mpu6050.c   ****  * sensors, as described in the table below.
 309:.\mpu6050.c   ****  *
 310:.\mpu6050.c   ****  * <pre>
 311:.\mpu6050.c   ****  * 0 = +/- 2g
 312:.\mpu6050.c   ****  * 1 = +/- 4g
 313:.\mpu6050.c   ****  * 2 = +/- 8g
 314:.\mpu6050.c   ****  * 3 = +/- 16g
 315:.\mpu6050.c   ****  * </pre>
 316:.\mpu6050.c   ****  *
 317:.\mpu6050.c   ****  * @return Current full-scale accelerometer range setting
 318:.\mpu6050.c   ****  * @see MPU6050_ACCEL_FS_2
 319:.\mpu6050.c   ****  * @see MPU6050_RA_ACCEL_CONFIG
 320:.\mpu6050.c   ****  * @see MPU6050_ACONFIG_AFS_SEL_BIT
 321:.\mpu6050.c   ****  * @see MPU6050_ACONFIG_AFS_SEL_LENGTH
 322:.\mpu6050.c   ****  */
 323:.\mpu6050.c   **** uint8_t MPU6050_getFullScaleAccelRange() {
 686              		.loc 1 323 0
 687              		.cfi_startproc
 688              		@ args = 0, pretend = 0, frame = 0
 689              		@ frame_needed = 0, uses_anonymous_args = 0
 690 0000 10B5     		push	{r4, lr}
 691              		.cfi_def_cfa_offset 8
 692              		.cfi_offset 4, -8
 693              		.cfi_offset 14, -4
 694 0002 82B0     		sub	sp, sp, #8
 695              		.cfi_def_cfa_offset 16
 324:.\mpu6050.c   ****     I2CReadBits(devAddr, MPU6050_RA_ACCEL_CONFIG, MPU6050_ACONFIG_AFS_SEL_BIT, MPU6050_ACONFIG_AFS_
 696              		.loc 1 324 0
 697 0004 054B     		ldr	r3, .L73
 698 0006 1878     		ldrb	r0, [r3]	@ zero_extendqisi2
 699 0008 054C     		ldr	r4, .L73+4
 700 000a 0094     		str	r4, [sp]
 701 000c 1C21     		movs	r1, #28
 702 000e 0422     		movs	r2, #4
ARM GAS  C:\Users\Michael\AppData\Local\Temp\ccvFrowP.s 			page 19


 703 0010 0223     		movs	r3, #2
 704 0012 FFF7FEFF 		bl	I2CReadBits
 705              	.LVL33:
 325:.\mpu6050.c   ****     return buffer[0];
 326:.\mpu6050.c   **** }
 706              		.loc 1 326 0
 707 0016 2078     		ldrb	r0, [r4]	@ zero_extendqisi2
 708 0018 02B0     		add	sp, sp, #8
 709              		.cfi_def_cfa_offset 8
 710              		@ sp needed
 711 001a 10BD     		pop	{r4, pc}
 712              	.L74:
 713              		.align	2
 714              	.L73:
 715 001c 00000000 		.word	devAddr
 716 0020 00000000 		.word	buffer
 717              		.cfi_endproc
 718              	.LFE20:
 719              		.size	MPU6050_getFullScaleAccelRange, .-MPU6050_getFullScaleAccelRange
 720              		.section	.text.MPU6050_setFullScaleAccelRange,"ax",%progbits
 721              		.align	2
 722              		.global	MPU6050_setFullScaleAccelRange
 723              		.thumb
 724              		.thumb_func
 725              		.type	MPU6050_setFullScaleAccelRange, %function
 726              	MPU6050_setFullScaleAccelRange:
 727              	.LFB21:
 327:.\mpu6050.c   **** /** Set full-scale accelerometer range.
 328:.\mpu6050.c   ****  * @param range New full-scale accelerometer range setting
 329:.\mpu6050.c   ****  * @see getFullScaleAccelRange()
 330:.\mpu6050.c   ****  */
 331:.\mpu6050.c   **** void MPU6050_setFullScaleAccelRange(uint8_t range) {
 728              		.loc 1 331 0
 729              		.cfi_startproc
 730              		@ args = 0, pretend = 0, frame = 0
 731              		@ frame_needed = 0, uses_anonymous_args = 0
 732              	.LVL34:
 733 0000 00B5     		push	{lr}
 734              		.cfi_def_cfa_offset 4
 735              		.cfi_offset 14, -4
 736 0002 83B0     		sub	sp, sp, #12
 737              		.cfi_def_cfa_offset 16
 332:.\mpu6050.c   ****     I2CWriteBits(devAddr, MPU6050_RA_ACCEL_CONFIG, MPU6050_ACONFIG_AFS_SEL_BIT, MPU6050_ACONFIG_AFS
 738              		.loc 1 332 0
 739 0004 054B     		ldr	r3, .L77
 740 0006 1B78     		ldrb	r3, [r3]	@ zero_extendqisi2
 741 0008 0090     		str	r0, [sp]
 742 000a 1846     		mov	r0, r3
 743              	.LVL35:
 744 000c 1C21     		movs	r1, #28
 745 000e 0422     		movs	r2, #4
 746 0010 0223     		movs	r3, #2
 747 0012 FFF7FEFF 		bl	I2CWriteBits
 748              	.LVL36:
 333:.\mpu6050.c   **** }
 749              		.loc 1 333 0
 750 0016 03B0     		add	sp, sp, #12
ARM GAS  C:\Users\Michael\AppData\Local\Temp\ccvFrowP.s 			page 20


 751              		.cfi_def_cfa_offset 4
 752              		@ sp needed
 753 0018 5DF804FB 		ldr	pc, [sp], #4
 754              	.L78:
 755              		.align	2
 756              	.L77:
 757 001c 00000000 		.word	devAddr
 758              		.cfi_endproc
 759              	.LFE21:
 760              		.size	MPU6050_setFullScaleAccelRange, .-MPU6050_setFullScaleAccelRange
 761              		.section	.text.MPU6050_getDHPFMode,"ax",%progbits
 762              		.align	2
 763              		.global	MPU6050_getDHPFMode
 764              		.thumb
 765              		.thumb_func
 766              		.type	MPU6050_getDHPFMode, %function
 767              	MPU6050_getDHPFMode:
 768              	.LFB22:
 334:.\mpu6050.c   **** /** Get the high-pass filter configuration.
 335:.\mpu6050.c   ****  * The DHPF is a filter module in the path leading to motion detectors (Free
 336:.\mpu6050.c   ****  * Fall, Motion threshold, and Zero Motion). The high pass filter output is not
 337:.\mpu6050.c   ****  * available to the data registers (see Figure in Section 8 of the MPU-6000/
 338:.\mpu6050.c   ****  * MPU-6050 Product Specification document).
 339:.\mpu6050.c   ****  *
 340:.\mpu6050.c   ****  * The high pass filter has three modes:
 341:.\mpu6050.c   ****  *
 342:.\mpu6050.c   ****  * <pre>
 343:.\mpu6050.c   ****  *    Reset: The filter output settles to zero within one sample. This
 344:.\mpu6050.c   ****  *           effectively disables the high pass filter. This mode may be toggled
 345:.\mpu6050.c   ****  *           to quickly settle the filter.
 346:.\mpu6050.c   ****  *
 347:.\mpu6050.c   ****  *    On:    The high pass filter will pass signals above the cut off frequency.
 348:.\mpu6050.c   ****  *
 349:.\mpu6050.c   ****  *    Hold:  When triggered, the filter holds the present sample. The filter
 350:.\mpu6050.c   ****  *           output will be the difference between the input sample and the held
 351:.\mpu6050.c   ****  *           sample.
 352:.\mpu6050.c   ****  * </pre>
 353:.\mpu6050.c   ****  *
 354:.\mpu6050.c   ****  * <pre>
 355:.\mpu6050.c   ****  * ACCEL_HPF | Filter Mode | Cut-off Frequency
 356:.\mpu6050.c   ****  * ----------+-------------+------------------
 357:.\mpu6050.c   ****  * 0         | Reset       | None
 358:.\mpu6050.c   ****  * 1         | On          | 5Hz
 359:.\mpu6050.c   ****  * 2         | On          | 2.5Hz
 360:.\mpu6050.c   ****  * 3         | On          | 1.25Hz
 361:.\mpu6050.c   ****  * 4         | On          | 0.63Hz
 362:.\mpu6050.c   ****  * 7         | Hold        | None
 363:.\mpu6050.c   ****  * </pre>
 364:.\mpu6050.c   ****  *
 365:.\mpu6050.c   ****  * @return Current high-pass filter configuration
 366:.\mpu6050.c   ****  * @see MPU6050_DHPF_RESET
 367:.\mpu6050.c   ****  * @see MPU6050_RA_ACCEL_CONFIG
 368:.\mpu6050.c   ****  */
 369:.\mpu6050.c   **** uint8_t MPU6050_getDHPFMode() {
 769              		.loc 1 369 0
 770              		.cfi_startproc
 771              		@ args = 0, pretend = 0, frame = 0
ARM GAS  C:\Users\Michael\AppData\Local\Temp\ccvFrowP.s 			page 21


 772              		@ frame_needed = 0, uses_anonymous_args = 0
 773 0000 10B5     		push	{r4, lr}
 774              		.cfi_def_cfa_offset 8
 775              		.cfi_offset 4, -8
 776              		.cfi_offset 14, -4
 777 0002 82B0     		sub	sp, sp, #8
 778              		.cfi_def_cfa_offset 16
 370:.\mpu6050.c   ****     I2CReadBits(devAddr, MPU6050_RA_ACCEL_CONFIG, MPU6050_ACONFIG_ACCEL_HPF_BIT, MPU6050_ACONFIG_AC
 779              		.loc 1 370 0
 780 0004 054B     		ldr	r3, .L81
 781 0006 1878     		ldrb	r0, [r3]	@ zero_extendqisi2
 782 0008 054C     		ldr	r4, .L81+4
 783 000a 0094     		str	r4, [sp]
 784 000c 1C21     		movs	r1, #28
 785 000e 0222     		movs	r2, #2
 786 0010 0323     		movs	r3, #3
 787 0012 FFF7FEFF 		bl	I2CReadBits
 788              	.LVL37:
 371:.\mpu6050.c   ****     return buffer[0];
 372:.\mpu6050.c   **** }
 789              		.loc 1 372 0
 790 0016 2078     		ldrb	r0, [r4]	@ zero_extendqisi2
 791 0018 02B0     		add	sp, sp, #8
 792              		.cfi_def_cfa_offset 8
 793              		@ sp needed
 794 001a 10BD     		pop	{r4, pc}
 795              	.L82:
 796              		.align	2
 797              	.L81:
 798 001c 00000000 		.word	devAddr
 799 0020 00000000 		.word	buffer
 800              		.cfi_endproc
 801              	.LFE22:
 802              		.size	MPU6050_getDHPFMode, .-MPU6050_getDHPFMode
 803              		.section	.text.MPU6050_setDHPFMode,"ax",%progbits
 804              		.align	2
 805              		.global	MPU6050_setDHPFMode
 806              		.thumb
 807              		.thumb_func
 808              		.type	MPU6050_setDHPFMode, %function
 809              	MPU6050_setDHPFMode:
 810              	.LFB23:
 373:.\mpu6050.c   **** /** Set the high-pass filter configuration.
 374:.\mpu6050.c   ****  * @param bandwidth New high-pass filter configuration
 375:.\mpu6050.c   ****  * @see setDHPFMode()
 376:.\mpu6050.c   ****  * @see MPU6050_DHPF_RESET
 377:.\mpu6050.c   ****  * @see MPU6050_RA_ACCEL_CONFIG
 378:.\mpu6050.c   ****  */
 379:.\mpu6050.c   **** void MPU6050_setDHPFMode(uint8_t bandwidth) {
 811              		.loc 1 379 0
 812              		.cfi_startproc
 813              		@ args = 0, pretend = 0, frame = 0
 814              		@ frame_needed = 0, uses_anonymous_args = 0
 815              	.LVL38:
 816 0000 00B5     		push	{lr}
 817              		.cfi_def_cfa_offset 4
 818              		.cfi_offset 14, -4
ARM GAS  C:\Users\Michael\AppData\Local\Temp\ccvFrowP.s 			page 22


 819 0002 83B0     		sub	sp, sp, #12
 820              		.cfi_def_cfa_offset 16
 380:.\mpu6050.c   ****     I2CWriteBits(devAddr, MPU6050_RA_ACCEL_CONFIG, MPU6050_ACONFIG_ACCEL_HPF_BIT, MPU6050_ACONFIG_A
 821              		.loc 1 380 0
 822 0004 054B     		ldr	r3, .L85
 823 0006 1B78     		ldrb	r3, [r3]	@ zero_extendqisi2
 824 0008 0090     		str	r0, [sp]
 825 000a 1846     		mov	r0, r3
 826              	.LVL39:
 827 000c 1C21     		movs	r1, #28
 828 000e 0222     		movs	r2, #2
 829 0010 0323     		movs	r3, #3
 830 0012 FFF7FEFF 		bl	I2CWriteBits
 831              	.LVL40:
 381:.\mpu6050.c   **** }
 832              		.loc 1 381 0
 833 0016 03B0     		add	sp, sp, #12
 834              		.cfi_def_cfa_offset 4
 835              		@ sp needed
 836 0018 5DF804FB 		ldr	pc, [sp], #4
 837              	.L86:
 838              		.align	2
 839              	.L85:
 840 001c 00000000 		.word	devAddr
 841              		.cfi_endproc
 842              	.LFE23:
 843              		.size	MPU6050_setDHPFMode, .-MPU6050_setDHPFMode
 844              		.section	.text.MPU6050_getFreefallDetectionThreshold,"ax",%progbits
 845              		.align	2
 846              		.global	MPU6050_getFreefallDetectionThreshold
 847              		.thumb
 848              		.thumb_func
 849              		.type	MPU6050_getFreefallDetectionThreshold, %function
 850              	MPU6050_getFreefallDetectionThreshold:
 851              	.LFB24:
 382:.\mpu6050.c   **** 
 383:.\mpu6050.c   **** // FF_THR register
 384:.\mpu6050.c   **** 
 385:.\mpu6050.c   **** /** Get free-fall event acceleration threshold.
 386:.\mpu6050.c   ****  * This register configures the detection threshold for Free Fall event
 387:.\mpu6050.c   ****  * detection. The unit of FF_THR is 1LSB = 2mg. Free Fall is detected when the
 388:.\mpu6050.c   ****  * absolute value of the accelerometer measurements for the three axes are each
 389:.\mpu6050.c   ****  * less than the detection threshold. This condition increments the Free Fall
 390:.\mpu6050.c   ****  * duration counter (Register 30). The Free Fall interrupt is triggered when the
 391:.\mpu6050.c   ****  * Free Fall duration counter reaches the time specified in FF_DUR.
 392:.\mpu6050.c   ****  *
 393:.\mpu6050.c   ****  * For more details on the Free Fall detection interrupt, see Section 8.2 of the
 394:.\mpu6050.c   ****  * MPU-6000/MPU-6050 Product Specification document as well as Registers 56 and
 395:.\mpu6050.c   ****  * 58 of this document.
 396:.\mpu6050.c   ****  *
 397:.\mpu6050.c   ****  * @return Current free-fall acceleration threshold value (LSB = 2mg)
 398:.\mpu6050.c   ****  * @see MPU6050_RA_FF_THR
 399:.\mpu6050.c   ****  */
 400:.\mpu6050.c   **** uint8_t MPU6050_getFreefallDetectionThreshold() {
 852              		.loc 1 400 0
 853              		.cfi_startproc
 854              		@ args = 0, pretend = 0, frame = 0
ARM GAS  C:\Users\Michael\AppData\Local\Temp\ccvFrowP.s 			page 23


 855              		@ frame_needed = 0, uses_anonymous_args = 0
 856 0000 10B5     		push	{r4, lr}
 857              		.cfi_def_cfa_offset 8
 858              		.cfi_offset 4, -8
 859              		.cfi_offset 14, -4
 401:.\mpu6050.c   ****     I2CReadByte(devAddr, MPU6050_RA_FF_THR, buffer);
 860              		.loc 1 401 0
 861 0002 044C     		ldr	r4, .L89
 862 0004 044B     		ldr	r3, .L89+4
 863 0006 1878     		ldrb	r0, [r3]	@ zero_extendqisi2
 864 0008 1D21     		movs	r1, #29
 865 000a 2246     		mov	r2, r4
 866 000c FFF7FEFF 		bl	I2CReadByte
 867              	.LVL41:
 402:.\mpu6050.c   ****     return buffer[0];
 403:.\mpu6050.c   **** }
 868              		.loc 1 403 0
 869 0010 2078     		ldrb	r0, [r4]	@ zero_extendqisi2
 870 0012 10BD     		pop	{r4, pc}
 871              	.L90:
 872              		.align	2
 873              	.L89:
 874 0014 00000000 		.word	buffer
 875 0018 00000000 		.word	devAddr
 876              		.cfi_endproc
 877              	.LFE24:
 878              		.size	MPU6050_getFreefallDetectionThreshold, .-MPU6050_getFreefallDetectionThreshold
 879              		.section	.text.MPU6050_setFreefallDetectionThreshold,"ax",%progbits
 880              		.align	2
 881              		.global	MPU6050_setFreefallDetectionThreshold
 882              		.thumb
 883              		.thumb_func
 884              		.type	MPU6050_setFreefallDetectionThreshold, %function
 885              	MPU6050_setFreefallDetectionThreshold:
 886              	.LFB25:
 404:.\mpu6050.c   **** /** Get free-fall event acceleration threshold.
 405:.\mpu6050.c   ****  * @param threshold New free-fall acceleration threshold value (LSB = 2mg)
 406:.\mpu6050.c   ****  * @see getFreefallDetectionThreshold()
 407:.\mpu6050.c   ****  * @see MPU6050_RA_FF_THR
 408:.\mpu6050.c   ****  */
 409:.\mpu6050.c   **** void MPU6050_setFreefallDetectionThreshold(uint8_t threshold) {
 887              		.loc 1 409 0
 888              		.cfi_startproc
 889              		@ args = 0, pretend = 0, frame = 0
 890              		@ frame_needed = 0, uses_anonymous_args = 0
 891              	.LVL42:
 892 0000 08B5     		push	{r3, lr}
 893              		.cfi_def_cfa_offset 8
 894              		.cfi_offset 3, -8
 895              		.cfi_offset 14, -4
 896 0002 0246     		mov	r2, r0
 410:.\mpu6050.c   ****     I2CWriteByte(devAddr, MPU6050_RA_FF_THR, threshold);
 897              		.loc 1 410 0
 898 0004 024B     		ldr	r3, .L93
 899 0006 1878     		ldrb	r0, [r3]	@ zero_extendqisi2
 900              	.LVL43:
 901 0008 1D21     		movs	r1, #29
ARM GAS  C:\Users\Michael\AppData\Local\Temp\ccvFrowP.s 			page 24


 902 000a FFF7FEFF 		bl	I2CWriteByte
 903              	.LVL44:
 904 000e 08BD     		pop	{r3, pc}
 905              	.L94:
 906              		.align	2
 907              	.L93:
 908 0010 00000000 		.word	devAddr
 909              		.cfi_endproc
 910              	.LFE25:
 911              		.size	MPU6050_setFreefallDetectionThreshold, .-MPU6050_setFreefallDetectionThreshold
 912              		.section	.text.MPU6050_getFreefallDetectionDuration,"ax",%progbits
 913              		.align	2
 914              		.global	MPU6050_getFreefallDetectionDuration
 915              		.thumb
 916              		.thumb_func
 917              		.type	MPU6050_getFreefallDetectionDuration, %function
 918              	MPU6050_getFreefallDetectionDuration:
 919              	.LFB26:
 411:.\mpu6050.c   **** }
 412:.\mpu6050.c   **** 
 413:.\mpu6050.c   **** // FF_DUR register
 414:.\mpu6050.c   **** 
 415:.\mpu6050.c   **** /** Get free-fall event duration threshold.
 416:.\mpu6050.c   ****  * This register configures the duration counter threshold for Free Fall event
 417:.\mpu6050.c   ****  * detection. The duration counter ticks at 1kHz, therefore FF_DUR has a unit
 418:.\mpu6050.c   ****  * of 1 LSB = 1 ms.
 419:.\mpu6050.c   ****  *
 420:.\mpu6050.c   ****  * The Free Fall duration counter increments while the absolute value of the
 421:.\mpu6050.c   ****  * accelerometer measurements are each less than the detection threshold
 422:.\mpu6050.c   ****  * (Register 29). The Free Fall interrupt is triggered when the Free Fall
 423:.\mpu6050.c   ****  * duration counter reaches the time specified in this register.
 424:.\mpu6050.c   ****  *
 425:.\mpu6050.c   ****  * For more details on the Free Fall detection interrupt, see Section 8.2 of
 426:.\mpu6050.c   ****  * the MPU-6000/MPU-6050 Product Specification document as well as Registers 56
 427:.\mpu6050.c   ****  * and 58 of this document.
 428:.\mpu6050.c   ****  *
 429:.\mpu6050.c   ****  * @return Current free-fall duration threshold value (LSB = 1ms)
 430:.\mpu6050.c   ****  * @see MPU6050_RA_FF_DUR
 431:.\mpu6050.c   ****  */
 432:.\mpu6050.c   **** uint8_t MPU6050_getFreefallDetectionDuration() {
 920              		.loc 1 432 0
 921              		.cfi_startproc
 922              		@ args = 0, pretend = 0, frame = 0
 923              		@ frame_needed = 0, uses_anonymous_args = 0
 924 0000 10B5     		push	{r4, lr}
 925              		.cfi_def_cfa_offset 8
 926              		.cfi_offset 4, -8
 927              		.cfi_offset 14, -4
 433:.\mpu6050.c   ****     I2CReadByte(devAddr, MPU6050_RA_FF_DUR, buffer);
 928              		.loc 1 433 0
 929 0002 044C     		ldr	r4, .L97
 930 0004 044B     		ldr	r3, .L97+4
 931 0006 1878     		ldrb	r0, [r3]	@ zero_extendqisi2
 932 0008 1E21     		movs	r1, #30
 933 000a 2246     		mov	r2, r4
 934 000c FFF7FEFF 		bl	I2CReadByte
 935              	.LVL45:
ARM GAS  C:\Users\Michael\AppData\Local\Temp\ccvFrowP.s 			page 25


 434:.\mpu6050.c   ****     return buffer[0];
 435:.\mpu6050.c   **** }
 936              		.loc 1 435 0
 937 0010 2078     		ldrb	r0, [r4]	@ zero_extendqisi2
 938 0012 10BD     		pop	{r4, pc}
 939              	.L98:
 940              		.align	2
 941              	.L97:
 942 0014 00000000 		.word	buffer
 943 0018 00000000 		.word	devAddr
 944              		.cfi_endproc
 945              	.LFE26:
 946              		.size	MPU6050_getFreefallDetectionDuration, .-MPU6050_getFreefallDetectionDuration
 947              		.section	.text.MPU6050_setFreefallDetectionDuration,"ax",%progbits
 948              		.align	2
 949              		.global	MPU6050_setFreefallDetectionDuration
 950              		.thumb
 951              		.thumb_func
 952              		.type	MPU6050_setFreefallDetectionDuration, %function
 953              	MPU6050_setFreefallDetectionDuration:
 954              	.LFB27:
 436:.\mpu6050.c   **** /** Get free-fall event duration threshold.
 437:.\mpu6050.c   ****  * @param duration New free-fall duration threshold value (LSB = 1ms)
 438:.\mpu6050.c   ****  * @see getFreefallDetectionDuration()
 439:.\mpu6050.c   ****  * @see MPU6050_RA_FF_DUR
 440:.\mpu6050.c   ****  */
 441:.\mpu6050.c   **** void MPU6050_setFreefallDetectionDuration(uint8_t duration) {
 955              		.loc 1 441 0
 956              		.cfi_startproc
 957              		@ args = 0, pretend = 0, frame = 0
 958              		@ frame_needed = 0, uses_anonymous_args = 0
 959              	.LVL46:
 960 0000 08B5     		push	{r3, lr}
 961              		.cfi_def_cfa_offset 8
 962              		.cfi_offset 3, -8
 963              		.cfi_offset 14, -4
 964 0002 0246     		mov	r2, r0
 442:.\mpu6050.c   ****     I2CWriteByte(devAddr, MPU6050_RA_FF_DUR, duration);
 965              		.loc 1 442 0
 966 0004 024B     		ldr	r3, .L101
 967 0006 1878     		ldrb	r0, [r3]	@ zero_extendqisi2
 968              	.LVL47:
 969 0008 1E21     		movs	r1, #30
 970 000a FFF7FEFF 		bl	I2CWriteByte
 971              	.LVL48:
 972 000e 08BD     		pop	{r3, pc}
 973              	.L102:
 974              		.align	2
 975              	.L101:
 976 0010 00000000 		.word	devAddr
 977              		.cfi_endproc
 978              	.LFE27:
 979              		.size	MPU6050_setFreefallDetectionDuration, .-MPU6050_setFreefallDetectionDuration
 980              		.section	.text.MPU6050_getMotionDetectionThreshold,"ax",%progbits
 981              		.align	2
 982              		.global	MPU6050_getMotionDetectionThreshold
 983              		.thumb
ARM GAS  C:\Users\Michael\AppData\Local\Temp\ccvFrowP.s 			page 26


 984              		.thumb_func
 985              		.type	MPU6050_getMotionDetectionThreshold, %function
 986              	MPU6050_getMotionDetectionThreshold:
 987              	.LFB28:
 443:.\mpu6050.c   **** }
 444:.\mpu6050.c   **** 
 445:.\mpu6050.c   **** // MOT_THR register
 446:.\mpu6050.c   **** 
 447:.\mpu6050.c   **** /** Get motion detection event acceleration threshold.
 448:.\mpu6050.c   ****  * This register configures the detection threshold for Motion interrupt
 449:.\mpu6050.c   ****  * generation. The unit of MOT_THR is 1LSB = 2mg. Motion is detected when the
 450:.\mpu6050.c   ****  * absolute value of any of the accelerometer measurements exceeds this Motion
 451:.\mpu6050.c   ****  * detection threshold. This condition increments the Motion detection duration
 452:.\mpu6050.c   ****  * counter (Register 32). The Motion detection interrupt is triggered when the
 453:.\mpu6050.c   ****  * Motion Detection counter reaches the time count specified in MOT_DUR
 454:.\mpu6050.c   ****  * (Register 32).
 455:.\mpu6050.c   ****  *
 456:.\mpu6050.c   ****  * The Motion interrupt will indicate the axis and polarity of detected motion
 457:.\mpu6050.c   ****  * in MOT_DETECT_STATUS (Register 97).
 458:.\mpu6050.c   ****  *
 459:.\mpu6050.c   ****  * For more details on the Motion detection interrupt, see Section 8.3 of the
 460:.\mpu6050.c   ****  * MPU-6000/MPU-6050 Product Specification document as well as Registers 56 and
 461:.\mpu6050.c   ****  * 58 of this document.
 462:.\mpu6050.c   ****  *
 463:.\mpu6050.c   ****  * @return Current motion detection acceleration threshold value (LSB = 2mg)
 464:.\mpu6050.c   ****  * @see MPU6050_RA_MOT_THR
 465:.\mpu6050.c   ****  */
 466:.\mpu6050.c   **** uint8_t MPU6050_getMotionDetectionThreshold() {
 988              		.loc 1 466 0
 989              		.cfi_startproc
 990              		@ args = 0, pretend = 0, frame = 0
 991              		@ frame_needed = 0, uses_anonymous_args = 0
 992 0000 10B5     		push	{r4, lr}
 993              		.cfi_def_cfa_offset 8
 994              		.cfi_offset 4, -8
 995              		.cfi_offset 14, -4
 467:.\mpu6050.c   ****     I2CReadByte(devAddr, MPU6050_RA_MOT_THR, buffer);
 996              		.loc 1 467 0
 997 0002 044C     		ldr	r4, .L105
 998 0004 044B     		ldr	r3, .L105+4
 999 0006 1878     		ldrb	r0, [r3]	@ zero_extendqisi2
 1000 0008 1F21     		movs	r1, #31
 1001 000a 2246     		mov	r2, r4
 1002 000c FFF7FEFF 		bl	I2CReadByte
 1003              	.LVL49:
 468:.\mpu6050.c   ****     return buffer[0];
 469:.\mpu6050.c   **** }
 1004              		.loc 1 469 0
 1005 0010 2078     		ldrb	r0, [r4]	@ zero_extendqisi2
 1006 0012 10BD     		pop	{r4, pc}
 1007              	.L106:
 1008              		.align	2
 1009              	.L105:
 1010 0014 00000000 		.word	buffer
 1011 0018 00000000 		.word	devAddr
 1012              		.cfi_endproc
 1013              	.LFE28:
ARM GAS  C:\Users\Michael\AppData\Local\Temp\ccvFrowP.s 			page 27


 1014              		.size	MPU6050_getMotionDetectionThreshold, .-MPU6050_getMotionDetectionThreshold
 1015              		.section	.text.MPU6050_setMotionDetectionThreshold,"ax",%progbits
 1016              		.align	2
 1017              		.global	MPU6050_setMotionDetectionThreshold
 1018              		.thumb
 1019              		.thumb_func
 1020              		.type	MPU6050_setMotionDetectionThreshold, %function
 1021              	MPU6050_setMotionDetectionThreshold:
 1022              	.LFB29:
 470:.\mpu6050.c   **** /** Set free-fall event acceleration threshold.
 471:.\mpu6050.c   ****  * @param threshold New motion detection acceleration threshold value (LSB = 2mg)
 472:.\mpu6050.c   ****  * @see getMotionDetectionThreshold()
 473:.\mpu6050.c   ****  * @see MPU6050_RA_MOT_THR
 474:.\mpu6050.c   ****  */
 475:.\mpu6050.c   **** void MPU6050_setMotionDetectionThreshold(uint8_t threshold) {
 1023              		.loc 1 475 0
 1024              		.cfi_startproc
 1025              		@ args = 0, pretend = 0, frame = 0
 1026              		@ frame_needed = 0, uses_anonymous_args = 0
 1027              	.LVL50:
 1028 0000 08B5     		push	{r3, lr}
 1029              		.cfi_def_cfa_offset 8
 1030              		.cfi_offset 3, -8
 1031              		.cfi_offset 14, -4
 1032 0002 0246     		mov	r2, r0
 476:.\mpu6050.c   ****     I2CWriteByte(devAddr, MPU6050_RA_MOT_THR, threshold);
 1033              		.loc 1 476 0
 1034 0004 024B     		ldr	r3, .L109
 1035 0006 1878     		ldrb	r0, [r3]	@ zero_extendqisi2
 1036              	.LVL51:
 1037 0008 1F21     		movs	r1, #31
 1038 000a FFF7FEFF 		bl	I2CWriteByte
 1039              	.LVL52:
 1040 000e 08BD     		pop	{r3, pc}
 1041              	.L110:
 1042              		.align	2
 1043              	.L109:
 1044 0010 00000000 		.word	devAddr
 1045              		.cfi_endproc
 1046              	.LFE29:
 1047              		.size	MPU6050_setMotionDetectionThreshold, .-MPU6050_setMotionDetectionThreshold
 1048              		.section	.text.MPU6050_getMotionDetectionDuration,"ax",%progbits
 1049              		.align	2
 1050              		.global	MPU6050_getMotionDetectionDuration
 1051              		.thumb
 1052              		.thumb_func
 1053              		.type	MPU6050_getMotionDetectionDuration, %function
 1054              	MPU6050_getMotionDetectionDuration:
 1055              	.LFB30:
 477:.\mpu6050.c   **** }
 478:.\mpu6050.c   **** 
 479:.\mpu6050.c   **** // MOT_DUR register
 480:.\mpu6050.c   **** 
 481:.\mpu6050.c   **** /** Get motion detection event duration threshold.
 482:.\mpu6050.c   ****  * This register configures the duration counter threshold for Motion interrupt
 483:.\mpu6050.c   ****  * generation. The duration counter ticks at 1 kHz, therefore MOT_DUR has a unit
 484:.\mpu6050.c   ****  * of 1LSB = 1ms. The Motion detection duration counter increments when the
ARM GAS  C:\Users\Michael\AppData\Local\Temp\ccvFrowP.s 			page 28


 485:.\mpu6050.c   ****  * absolute value of any of the accelerometer measurements exceeds the Motion
 486:.\mpu6050.c   ****  * detection threshold (Register 31). The Motion detection interrupt is
 487:.\mpu6050.c   ****  * triggered when the Motion detection counter reaches the time count specified
 488:.\mpu6050.c   ****  * in this register.
 489:.\mpu6050.c   ****  *
 490:.\mpu6050.c   ****  * For more details on the Motion detection interrupt, see Section 8.3 of the
 491:.\mpu6050.c   ****  * MPU-6000/MPU-6050 Product Specification document.
 492:.\mpu6050.c   ****  *
 493:.\mpu6050.c   ****  * @return Current motion detection duration threshold value (LSB = 1ms)
 494:.\mpu6050.c   ****  * @see MPU6050_RA_MOT_DUR
 495:.\mpu6050.c   ****  */
 496:.\mpu6050.c   **** uint8_t MPU6050_getMotionDetectionDuration() {
 1056              		.loc 1 496 0
 1057              		.cfi_startproc
 1058              		@ args = 0, pretend = 0, frame = 0
 1059              		@ frame_needed = 0, uses_anonymous_args = 0
 1060 0000 10B5     		push	{r4, lr}
 1061              		.cfi_def_cfa_offset 8
 1062              		.cfi_offset 4, -8
 1063              		.cfi_offset 14, -4
 497:.\mpu6050.c   ****     I2CReadByte(devAddr, MPU6050_RA_MOT_DUR, buffer);
 1064              		.loc 1 497 0
 1065 0002 044C     		ldr	r4, .L113
 1066 0004 044B     		ldr	r3, .L113+4
 1067 0006 1878     		ldrb	r0, [r3]	@ zero_extendqisi2
 1068 0008 2021     		movs	r1, #32
 1069 000a 2246     		mov	r2, r4
 1070 000c FFF7FEFF 		bl	I2CReadByte
 1071              	.LVL53:
 498:.\mpu6050.c   ****     return buffer[0];
 499:.\mpu6050.c   **** }
 1072              		.loc 1 499 0
 1073 0010 2078     		ldrb	r0, [r4]	@ zero_extendqisi2
 1074 0012 10BD     		pop	{r4, pc}
 1075              	.L114:
 1076              		.align	2
 1077              	.L113:
 1078 0014 00000000 		.word	buffer
 1079 0018 00000000 		.word	devAddr
 1080              		.cfi_endproc
 1081              	.LFE30:
 1082              		.size	MPU6050_getMotionDetectionDuration, .-MPU6050_getMotionDetectionDuration
 1083              		.section	.text.MPU6050_setMotionDetectionDuration,"ax",%progbits
 1084              		.align	2
 1085              		.global	MPU6050_setMotionDetectionDuration
 1086              		.thumb
 1087              		.thumb_func
 1088              		.type	MPU6050_setMotionDetectionDuration, %function
 1089              	MPU6050_setMotionDetectionDuration:
 1090              	.LFB31:
 500:.\mpu6050.c   **** /** Set motion detection event duration threshold.
 501:.\mpu6050.c   ****  * @param duration New motion detection duration threshold value (LSB = 1ms)
 502:.\mpu6050.c   ****  * @see getMotionDetectionDuration()
 503:.\mpu6050.c   ****  * @see MPU6050_RA_MOT_DUR
 504:.\mpu6050.c   ****  */
 505:.\mpu6050.c   **** void MPU6050_setMotionDetectionDuration(uint8_t duration) {
 1091              		.loc 1 505 0
ARM GAS  C:\Users\Michael\AppData\Local\Temp\ccvFrowP.s 			page 29


 1092              		.cfi_startproc
 1093              		@ args = 0, pretend = 0, frame = 0
 1094              		@ frame_needed = 0, uses_anonymous_args = 0
 1095              	.LVL54:
 1096 0000 08B5     		push	{r3, lr}
 1097              		.cfi_def_cfa_offset 8
 1098              		.cfi_offset 3, -8
 1099              		.cfi_offset 14, -4
 1100 0002 0246     		mov	r2, r0
 506:.\mpu6050.c   ****     I2CWriteByte(devAddr, MPU6050_RA_MOT_DUR, duration);
 1101              		.loc 1 506 0
 1102 0004 024B     		ldr	r3, .L117
 1103 0006 1878     		ldrb	r0, [r3]	@ zero_extendqisi2
 1104              	.LVL55:
 1105 0008 2021     		movs	r1, #32
 1106 000a FFF7FEFF 		bl	I2CWriteByte
 1107              	.LVL56:
 1108 000e 08BD     		pop	{r3, pc}
 1109              	.L118:
 1110              		.align	2
 1111              	.L117:
 1112 0010 00000000 		.word	devAddr
 1113              		.cfi_endproc
 1114              	.LFE31:
 1115              		.size	MPU6050_setMotionDetectionDuration, .-MPU6050_setMotionDetectionDuration
 1116              		.section	.text.MPU6050_getZeroMotionDetectionThreshold,"ax",%progbits
 1117              		.align	2
 1118              		.global	MPU6050_getZeroMotionDetectionThreshold
 1119              		.thumb
 1120              		.thumb_func
 1121              		.type	MPU6050_getZeroMotionDetectionThreshold, %function
 1122              	MPU6050_getZeroMotionDetectionThreshold:
 1123              	.LFB32:
 507:.\mpu6050.c   **** }
 508:.\mpu6050.c   **** 
 509:.\mpu6050.c   **** // ZRMOT_THR register
 510:.\mpu6050.c   **** 
 511:.\mpu6050.c   **** /** Get zero motion detection event acceleration threshold.
 512:.\mpu6050.c   ****  * This register configures the detection threshold for Zero Motion interrupt
 513:.\mpu6050.c   ****  * generation. The unit of ZRMOT_THR is 1LSB = 2mg. Zero Motion is detected when
 514:.\mpu6050.c   ****  * the absolute value of the accelerometer measurements for the 3 axes are each
 515:.\mpu6050.c   ****  * less than the detection threshold. This condition increments the Zero Motion
 516:.\mpu6050.c   ****  * duration counter (Register 34). The Zero Motion interrupt is triggered when
 517:.\mpu6050.c   ****  * the Zero Motion duration counter reaches the time count specified in
 518:.\mpu6050.c   ****  * ZRMOT_DUR (Register 34).
 519:.\mpu6050.c   ****  *
 520:.\mpu6050.c   ****  * Unlike Free Fall or Motion detection, Zero Motion detection triggers an
 521:.\mpu6050.c   ****  * interrupt both when Zero Motion is first detected and when Zero Motion is no
 522:.\mpu6050.c   ****  * longer detected.
 523:.\mpu6050.c   ****  *
 524:.\mpu6050.c   ****  * When a zero motion event is detected, a Zero Motion Status will be indicated
 525:.\mpu6050.c   ****  * in the MOT_DETECT_STATUS register (Register 97). When a motion-to-zero-motion
 526:.\mpu6050.c   ****  * condition is detected, the status bit is set to 1. When a zero-motion-to-
 527:.\mpu6050.c   ****  * motion condition is detected, the status bit is set to 0.
 528:.\mpu6050.c   ****  *
 529:.\mpu6050.c   ****  * For more details on the Zero Motion detection interrupt, see Section 8.4 of
 530:.\mpu6050.c   ****  * the MPU-6000/MPU-6050 Product Specification document as well as Registers 56
ARM GAS  C:\Users\Michael\AppData\Local\Temp\ccvFrowP.s 			page 30


 531:.\mpu6050.c   ****  * and 58 of this document.
 532:.\mpu6050.c   ****  *
 533:.\mpu6050.c   ****  * @return Current zero motion detection acceleration threshold value (LSB = 2mg)
 534:.\mpu6050.c   ****  * @see MPU6050_RA_ZRMOT_THR
 535:.\mpu6050.c   ****  */
 536:.\mpu6050.c   **** uint8_t MPU6050_getZeroMotionDetectionThreshold() {
 1124              		.loc 1 536 0
 1125              		.cfi_startproc
 1126              		@ args = 0, pretend = 0, frame = 0
 1127              		@ frame_needed = 0, uses_anonymous_args = 0
 1128 0000 10B5     		push	{r4, lr}
 1129              		.cfi_def_cfa_offset 8
 1130              		.cfi_offset 4, -8
 1131              		.cfi_offset 14, -4
 537:.\mpu6050.c   ****     I2CReadByte(devAddr, MPU6050_RA_ZRMOT_THR, buffer);
 1132              		.loc 1 537 0
 1133 0002 044C     		ldr	r4, .L121
 1134 0004 044B     		ldr	r3, .L121+4
 1135 0006 1878     		ldrb	r0, [r3]	@ zero_extendqisi2
 1136 0008 2121     		movs	r1, #33
 1137 000a 2246     		mov	r2, r4
 1138 000c FFF7FEFF 		bl	I2CReadByte
 1139              	.LVL57:
 538:.\mpu6050.c   ****     return buffer[0];
 539:.\mpu6050.c   **** }
 1140              		.loc 1 539 0
 1141 0010 2078     		ldrb	r0, [r4]	@ zero_extendqisi2
 1142 0012 10BD     		pop	{r4, pc}
 1143              	.L122:
 1144              		.align	2
 1145              	.L121:
 1146 0014 00000000 		.word	buffer
 1147 0018 00000000 		.word	devAddr
 1148              		.cfi_endproc
 1149              	.LFE32:
 1150              		.size	MPU6050_getZeroMotionDetectionThreshold, .-MPU6050_getZeroMotionDetectionThreshold
 1151              		.section	.text.MPU6050_setZeroMotionDetectionThreshold,"ax",%progbits
 1152              		.align	2
 1153              		.global	MPU6050_setZeroMotionDetectionThreshold
 1154              		.thumb
 1155              		.thumb_func
 1156              		.type	MPU6050_setZeroMotionDetectionThreshold, %function
 1157              	MPU6050_setZeroMotionDetectionThreshold:
 1158              	.LFB33:
 540:.\mpu6050.c   **** /** Set zero motion detection event acceleration threshold.
 541:.\mpu6050.c   ****  * @param threshold New zero motion detection acceleration threshold value (LSB = 2mg)
 542:.\mpu6050.c   ****  * @see getZeroMotionDetectionThreshold()
 543:.\mpu6050.c   ****  * @see MPU6050_RA_ZRMOT_THR
 544:.\mpu6050.c   ****  */
 545:.\mpu6050.c   **** void MPU6050_setZeroMotionDetectionThreshold(uint8_t threshold) {
 1159              		.loc 1 545 0
 1160              		.cfi_startproc
 1161              		@ args = 0, pretend = 0, frame = 0
 1162              		@ frame_needed = 0, uses_anonymous_args = 0
 1163              	.LVL58:
 1164 0000 08B5     		push	{r3, lr}
 1165              		.cfi_def_cfa_offset 8
ARM GAS  C:\Users\Michael\AppData\Local\Temp\ccvFrowP.s 			page 31


 1166              		.cfi_offset 3, -8
 1167              		.cfi_offset 14, -4
 1168 0002 0246     		mov	r2, r0
 546:.\mpu6050.c   ****     I2CWriteByte(devAddr, MPU6050_RA_ZRMOT_THR, threshold);
 1169              		.loc 1 546 0
 1170 0004 024B     		ldr	r3, .L125
 1171 0006 1878     		ldrb	r0, [r3]	@ zero_extendqisi2
 1172              	.LVL59:
 1173 0008 2121     		movs	r1, #33
 1174 000a FFF7FEFF 		bl	I2CWriteByte
 1175              	.LVL60:
 1176 000e 08BD     		pop	{r3, pc}
 1177              	.L126:
 1178              		.align	2
 1179              	.L125:
 1180 0010 00000000 		.word	devAddr
 1181              		.cfi_endproc
 1182              	.LFE33:
 1183              		.size	MPU6050_setZeroMotionDetectionThreshold, .-MPU6050_setZeroMotionDetectionThreshold
 1184              		.section	.text.MPU6050_getZeroMotionDetectionDuration,"ax",%progbits
 1185              		.align	2
 1186              		.global	MPU6050_getZeroMotionDetectionDuration
 1187              		.thumb
 1188              		.thumb_func
 1189              		.type	MPU6050_getZeroMotionDetectionDuration, %function
 1190              	MPU6050_getZeroMotionDetectionDuration:
 1191              	.LFB34:
 547:.\mpu6050.c   **** }
 548:.\mpu6050.c   **** 
 549:.\mpu6050.c   **** // ZRMOT_DUR register
 550:.\mpu6050.c   **** 
 551:.\mpu6050.c   **** /** Get zero motion detection event duration threshold.
 552:.\mpu6050.c   ****  * This register configures the duration counter threshold for Zero Motion
 553:.\mpu6050.c   ****  * interrupt generation. The duration counter ticks at 16 Hz, therefore
 554:.\mpu6050.c   ****  * ZRMOT_DUR has a unit of 1 LSB = 64 ms. The Zero Motion duration counter
 555:.\mpu6050.c   ****  * increments while the absolute value of the accelerometer measurements are
 556:.\mpu6050.c   ****  * each less than the detection threshold (Register 33). The Zero Motion
 557:.\mpu6050.c   ****  * interrupt is triggered when the Zero Motion duration counter reaches the time
 558:.\mpu6050.c   ****  * count specified in this register.
 559:.\mpu6050.c   ****  *
 560:.\mpu6050.c   ****  * For more details on the Zero Motion detection interrupt, see Section 8.4 of
 561:.\mpu6050.c   ****  * the MPU-6000/MPU-6050 Product Specification document, as well as Registers 56
 562:.\mpu6050.c   ****  * and 58 of this document.
 563:.\mpu6050.c   ****  *
 564:.\mpu6050.c   ****  * @return Current zero motion detection duration threshold value (LSB = 64ms)
 565:.\mpu6050.c   ****  * @see MPU6050_RA_ZRMOT_DUR
 566:.\mpu6050.c   ****  */
 567:.\mpu6050.c   **** uint8_t MPU6050_getZeroMotionDetectionDuration() {
 1192              		.loc 1 567 0
 1193              		.cfi_startproc
 1194              		@ args = 0, pretend = 0, frame = 0
 1195              		@ frame_needed = 0, uses_anonymous_args = 0
 1196 0000 10B5     		push	{r4, lr}
 1197              		.cfi_def_cfa_offset 8
 1198              		.cfi_offset 4, -8
 1199              		.cfi_offset 14, -4
 568:.\mpu6050.c   ****     I2CReadByte(devAddr, MPU6050_RA_ZRMOT_DUR, buffer);
ARM GAS  C:\Users\Michael\AppData\Local\Temp\ccvFrowP.s 			page 32


 1200              		.loc 1 568 0
 1201 0002 044C     		ldr	r4, .L129
 1202 0004 044B     		ldr	r3, .L129+4
 1203 0006 1878     		ldrb	r0, [r3]	@ zero_extendqisi2
 1204 0008 2221     		movs	r1, #34
 1205 000a 2246     		mov	r2, r4
 1206 000c FFF7FEFF 		bl	I2CReadByte
 1207              	.LVL61:
 569:.\mpu6050.c   ****     return buffer[0];
 570:.\mpu6050.c   **** }
 1208              		.loc 1 570 0
 1209 0010 2078     		ldrb	r0, [r4]	@ zero_extendqisi2
 1210 0012 10BD     		pop	{r4, pc}
 1211              	.L130:
 1212              		.align	2
 1213              	.L129:
 1214 0014 00000000 		.word	buffer
 1215 0018 00000000 		.word	devAddr
 1216              		.cfi_endproc
 1217              	.LFE34:
 1218              		.size	MPU6050_getZeroMotionDetectionDuration, .-MPU6050_getZeroMotionDetectionDuration
 1219              		.section	.text.MPU6050_setZeroMotionDetectionDuration,"ax",%progbits
 1220              		.align	2
 1221              		.global	MPU6050_setZeroMotionDetectionDuration
 1222              		.thumb
 1223              		.thumb_func
 1224              		.type	MPU6050_setZeroMotionDetectionDuration, %function
 1225              	MPU6050_setZeroMotionDetectionDuration:
 1226              	.LFB35:
 571:.\mpu6050.c   **** /** Set zero motion detection event duration threshold.
 572:.\mpu6050.c   ****  * @param duration New zero motion detection duration threshold value (LSB = 1ms)
 573:.\mpu6050.c   ****  * @see getZeroMotionDetectionDuration()
 574:.\mpu6050.c   ****  * @see MPU6050_RA_ZRMOT_DUR
 575:.\mpu6050.c   ****  */
 576:.\mpu6050.c   **** void MPU6050_setZeroMotionDetectionDuration(uint8_t duration) {
 1227              		.loc 1 576 0
 1228              		.cfi_startproc
 1229              		@ args = 0, pretend = 0, frame = 0
 1230              		@ frame_needed = 0, uses_anonymous_args = 0
 1231              	.LVL62:
 1232 0000 08B5     		push	{r3, lr}
 1233              		.cfi_def_cfa_offset 8
 1234              		.cfi_offset 3, -8
 1235              		.cfi_offset 14, -4
 1236 0002 0246     		mov	r2, r0
 577:.\mpu6050.c   ****     I2CWriteByte(devAddr, MPU6050_RA_ZRMOT_DUR, duration);
 1237              		.loc 1 577 0
 1238 0004 024B     		ldr	r3, .L133
 1239 0006 1878     		ldrb	r0, [r3]	@ zero_extendqisi2
 1240              	.LVL63:
 1241 0008 2221     		movs	r1, #34
 1242 000a FFF7FEFF 		bl	I2CWriteByte
 1243              	.LVL64:
 1244 000e 08BD     		pop	{r3, pc}
 1245              	.L134:
 1246              		.align	2
 1247              	.L133:
ARM GAS  C:\Users\Michael\AppData\Local\Temp\ccvFrowP.s 			page 33


 1248 0010 00000000 		.word	devAddr
 1249              		.cfi_endproc
 1250              	.LFE35:
 1251              		.size	MPU6050_setZeroMotionDetectionDuration, .-MPU6050_setZeroMotionDetectionDuration
 1252              		.section	.text.MPU6050_getTempFIFOEnabled,"ax",%progbits
 1253              		.align	2
 1254              		.global	MPU6050_getTempFIFOEnabled
 1255              		.thumb
 1256              		.thumb_func
 1257              		.type	MPU6050_getTempFIFOEnabled, %function
 1258              	MPU6050_getTempFIFOEnabled:
 1259              	.LFB36:
 578:.\mpu6050.c   **** }
 579:.\mpu6050.c   **** 
 580:.\mpu6050.c   **** // FIFO_EN register
 581:.\mpu6050.c   **** 
 582:.\mpu6050.c   **** /** Get temperature FIFO enabled value.
 583:.\mpu6050.c   ****  * When set to 1, this bit enables TEMP_OUT_H and TEMP_OUT_L (Registers 65 and
 584:.\mpu6050.c   ****  * 66) to be written into the FIFO buffer.
 585:.\mpu6050.c   ****  * @return Current temperature FIFO enabled value
 586:.\mpu6050.c   ****  * @see MPU6050_RA_FIFO_EN
 587:.\mpu6050.c   ****  */
 588:.\mpu6050.c   **** bool MPU6050_getTempFIFOEnabled() {
 1260              		.loc 1 588 0
 1261              		.cfi_startproc
 1262              		@ args = 0, pretend = 0, frame = 0
 1263              		@ frame_needed = 0, uses_anonymous_args = 0
 1264 0000 10B5     		push	{r4, lr}
 1265              		.cfi_def_cfa_offset 8
 1266              		.cfi_offset 4, -8
 1267              		.cfi_offset 14, -4
 589:.\mpu6050.c   ****     I2CReadBit(devAddr, MPU6050_RA_FIFO_EN, MPU6050_TEMP_FIFO_EN_BIT, buffer);
 1268              		.loc 1 589 0
 1269 0002 064C     		ldr	r4, .L137
 1270 0004 064B     		ldr	r3, .L137+4
 1271 0006 1878     		ldrb	r0, [r3]	@ zero_extendqisi2
 1272 0008 2321     		movs	r1, #35
 1273 000a 0722     		movs	r2, #7
 1274 000c 2346     		mov	r3, r4
 1275 000e FFF7FEFF 		bl	I2CReadBit
 1276              	.LVL65:
 590:.\mpu6050.c   ****     return buffer[0];
 1277              		.loc 1 590 0
 1278 0012 2078     		ldrb	r0, [r4]	@ zero_extendqisi2
 591:.\mpu6050.c   **** }
 1279              		.loc 1 591 0
 1280 0014 0030     		adds	r0, r0, #0
 1281 0016 18BF     		it	ne
 1282 0018 0120     		movne	r0, #1
 1283 001a 10BD     		pop	{r4, pc}
 1284              	.L138:
 1285              		.align	2
 1286              	.L137:
 1287 001c 00000000 		.word	buffer
 1288 0020 00000000 		.word	devAddr
 1289              		.cfi_endproc
 1290              	.LFE36:
ARM GAS  C:\Users\Michael\AppData\Local\Temp\ccvFrowP.s 			page 34


 1291              		.size	MPU6050_getTempFIFOEnabled, .-MPU6050_getTempFIFOEnabled
 1292              		.section	.text.MPU6050_setTempFIFOEnabled,"ax",%progbits
 1293              		.align	2
 1294              		.global	MPU6050_setTempFIFOEnabled
 1295              		.thumb
 1296              		.thumb_func
 1297              		.type	MPU6050_setTempFIFOEnabled, %function
 1298              	MPU6050_setTempFIFOEnabled:
 1299              	.LFB37:
 592:.\mpu6050.c   **** /** Set temperature FIFO enabled value.
 593:.\mpu6050.c   ****  * @param enabled New temperature FIFO enabled value
 594:.\mpu6050.c   ****  * @see getTempFIFOEnabled()
 595:.\mpu6050.c   ****  * @see MPU6050_RA_FIFO_EN
 596:.\mpu6050.c   ****  */
 597:.\mpu6050.c   **** void MPU6050_setTempFIFOEnabled(bool enabled) {
 1300              		.loc 1 597 0
 1301              		.cfi_startproc
 1302              		@ args = 0, pretend = 0, frame = 0
 1303              		@ frame_needed = 0, uses_anonymous_args = 0
 1304              	.LVL66:
 1305 0000 08B5     		push	{r3, lr}
 1306              		.cfi_def_cfa_offset 8
 1307              		.cfi_offset 3, -8
 1308              		.cfi_offset 14, -4
 1309 0002 0346     		mov	r3, r0
 598:.\mpu6050.c   ****     I2CWriteBit(devAddr, MPU6050_RA_FIFO_EN, MPU6050_TEMP_FIFO_EN_BIT, enabled);
 1310              		.loc 1 598 0
 1311 0004 034A     		ldr	r2, .L141
 1312 0006 1078     		ldrb	r0, [r2]	@ zero_extendqisi2
 1313              	.LVL67:
 1314 0008 2321     		movs	r1, #35
 1315 000a 0722     		movs	r2, #7
 1316 000c FFF7FEFF 		bl	I2CWriteBit
 1317              	.LVL68:
 1318 0010 08BD     		pop	{r3, pc}
 1319              	.L142:
 1320 0012 00BF     		.align	2
 1321              	.L141:
 1322 0014 00000000 		.word	devAddr
 1323              		.cfi_endproc
 1324              	.LFE37:
 1325              		.size	MPU6050_setTempFIFOEnabled, .-MPU6050_setTempFIFOEnabled
 1326              		.section	.text.MPU6050_getXGyroFIFOEnabled,"ax",%progbits
 1327              		.align	2
 1328              		.global	MPU6050_getXGyroFIFOEnabled
 1329              		.thumb
 1330              		.thumb_func
 1331              		.type	MPU6050_getXGyroFIFOEnabled, %function
 1332              	MPU6050_getXGyroFIFOEnabled:
 1333              	.LFB38:
 599:.\mpu6050.c   **** }
 600:.\mpu6050.c   **** /** Get gyroscope X-axis FIFO enabled value.
 601:.\mpu6050.c   ****  * When set to 1, this bit enables GYRO_XOUT_H and GYRO_XOUT_L (Registers 67 and
 602:.\mpu6050.c   ****  * 68) to be written into the FIFO buffer.
 603:.\mpu6050.c   ****  * @return Current gyroscope X-axis FIFO enabled value
 604:.\mpu6050.c   ****  * @see MPU6050_RA_FIFO_EN
 605:.\mpu6050.c   ****  */
ARM GAS  C:\Users\Michael\AppData\Local\Temp\ccvFrowP.s 			page 35


 606:.\mpu6050.c   **** bool MPU6050_getXGyroFIFOEnabled() {
 1334              		.loc 1 606 0
 1335              		.cfi_startproc
 1336              		@ args = 0, pretend = 0, frame = 0
 1337              		@ frame_needed = 0, uses_anonymous_args = 0
 1338 0000 10B5     		push	{r4, lr}
 1339              		.cfi_def_cfa_offset 8
 1340              		.cfi_offset 4, -8
 1341              		.cfi_offset 14, -4
 607:.\mpu6050.c   ****     I2CReadBit(devAddr, MPU6050_RA_FIFO_EN, MPU6050_XG_FIFO_EN_BIT, buffer);
 1342              		.loc 1 607 0
 1343 0002 064C     		ldr	r4, .L145
 1344 0004 064B     		ldr	r3, .L145+4
 1345 0006 1878     		ldrb	r0, [r3]	@ zero_extendqisi2
 1346 0008 2321     		movs	r1, #35
 1347 000a 0622     		movs	r2, #6
 1348 000c 2346     		mov	r3, r4
 1349 000e FFF7FEFF 		bl	I2CReadBit
 1350              	.LVL69:
 608:.\mpu6050.c   ****     return buffer[0];
 1351              		.loc 1 608 0
 1352 0012 2078     		ldrb	r0, [r4]	@ zero_extendqisi2
 609:.\mpu6050.c   **** }
 1353              		.loc 1 609 0
 1354 0014 0030     		adds	r0, r0, #0
 1355 0016 18BF     		it	ne
 1356 0018 0120     		movne	r0, #1
 1357 001a 10BD     		pop	{r4, pc}
 1358              	.L146:
 1359              		.align	2
 1360              	.L145:
 1361 001c 00000000 		.word	buffer
 1362 0020 00000000 		.word	devAddr
 1363              		.cfi_endproc
 1364              	.LFE38:
 1365              		.size	MPU6050_getXGyroFIFOEnabled, .-MPU6050_getXGyroFIFOEnabled
 1366              		.section	.text.MPU6050_setXGyroFIFOEnabled,"ax",%progbits
 1367              		.align	2
 1368              		.global	MPU6050_setXGyroFIFOEnabled
 1369              		.thumb
 1370              		.thumb_func
 1371              		.type	MPU6050_setXGyroFIFOEnabled, %function
 1372              	MPU6050_setXGyroFIFOEnabled:
 1373              	.LFB39:
 610:.\mpu6050.c   **** /** Set gyroscope X-axis FIFO enabled value.
 611:.\mpu6050.c   ****  * @param enabled New gyroscope X-axis FIFO enabled value
 612:.\mpu6050.c   ****  * @see getXGyroFIFOEnabled()
 613:.\mpu6050.c   ****  * @see MPU6050_RA_FIFO_EN
 614:.\mpu6050.c   ****  */
 615:.\mpu6050.c   **** void MPU6050_setXGyroFIFOEnabled(bool enabled) {
 1374              		.loc 1 615 0
 1375              		.cfi_startproc
 1376              		@ args = 0, pretend = 0, frame = 0
 1377              		@ frame_needed = 0, uses_anonymous_args = 0
 1378              	.LVL70:
 1379 0000 08B5     		push	{r3, lr}
 1380              		.cfi_def_cfa_offset 8
ARM GAS  C:\Users\Michael\AppData\Local\Temp\ccvFrowP.s 			page 36


 1381              		.cfi_offset 3, -8
 1382              		.cfi_offset 14, -4
 1383 0002 0346     		mov	r3, r0
 616:.\mpu6050.c   ****     I2CWriteBit(devAddr, MPU6050_RA_FIFO_EN, MPU6050_XG_FIFO_EN_BIT, enabled);
 1384              		.loc 1 616 0
 1385 0004 034A     		ldr	r2, .L149
 1386 0006 1078     		ldrb	r0, [r2]	@ zero_extendqisi2
 1387              	.LVL71:
 1388 0008 2321     		movs	r1, #35
 1389 000a 0622     		movs	r2, #6
 1390 000c FFF7FEFF 		bl	I2CWriteBit
 1391              	.LVL72:
 1392 0010 08BD     		pop	{r3, pc}
 1393              	.L150:
 1394 0012 00BF     		.align	2
 1395              	.L149:
 1396 0014 00000000 		.word	devAddr
 1397              		.cfi_endproc
 1398              	.LFE39:
 1399              		.size	MPU6050_setXGyroFIFOEnabled, .-MPU6050_setXGyroFIFOEnabled
 1400              		.section	.text.MPU6050_getYGyroFIFOEnabled,"ax",%progbits
 1401              		.align	2
 1402              		.global	MPU6050_getYGyroFIFOEnabled
 1403              		.thumb
 1404              		.thumb_func
 1405              		.type	MPU6050_getYGyroFIFOEnabled, %function
 1406              	MPU6050_getYGyroFIFOEnabled:
 1407              	.LFB40:
 617:.\mpu6050.c   **** }
 618:.\mpu6050.c   **** /** Get gyroscope Y-axis FIFO enabled value.
 619:.\mpu6050.c   ****  * When set to 1, this bit enables GYRO_YOUT_H and GYRO_YOUT_L (Registers 69 and
 620:.\mpu6050.c   ****  * 70) to be written into the FIFO buffer.
 621:.\mpu6050.c   ****  * @return Current gyroscope Y-axis FIFO enabled value
 622:.\mpu6050.c   ****  * @see MPU6050_RA_FIFO_EN
 623:.\mpu6050.c   ****  */
 624:.\mpu6050.c   **** bool MPU6050_getYGyroFIFOEnabled() {
 1408              		.loc 1 624 0
 1409              		.cfi_startproc
 1410              		@ args = 0, pretend = 0, frame = 0
 1411              		@ frame_needed = 0, uses_anonymous_args = 0
 1412 0000 10B5     		push	{r4, lr}
 1413              		.cfi_def_cfa_offset 8
 1414              		.cfi_offset 4, -8
 1415              		.cfi_offset 14, -4
 625:.\mpu6050.c   ****     I2CReadBit(devAddr, MPU6050_RA_FIFO_EN, MPU6050_YG_FIFO_EN_BIT, buffer);
 1416              		.loc 1 625 0
 1417 0002 064C     		ldr	r4, .L153
 1418 0004 064B     		ldr	r3, .L153+4
 1419 0006 1878     		ldrb	r0, [r3]	@ zero_extendqisi2
 1420 0008 2321     		movs	r1, #35
 1421 000a 0522     		movs	r2, #5
 1422 000c 2346     		mov	r3, r4
 1423 000e FFF7FEFF 		bl	I2CReadBit
 1424              	.LVL73:
 626:.\mpu6050.c   ****     return buffer[0];
 1425              		.loc 1 626 0
 1426 0012 2078     		ldrb	r0, [r4]	@ zero_extendqisi2
ARM GAS  C:\Users\Michael\AppData\Local\Temp\ccvFrowP.s 			page 37


 627:.\mpu6050.c   **** }
 1427              		.loc 1 627 0
 1428 0014 0030     		adds	r0, r0, #0
 1429 0016 18BF     		it	ne
 1430 0018 0120     		movne	r0, #1
 1431 001a 10BD     		pop	{r4, pc}
 1432              	.L154:
 1433              		.align	2
 1434              	.L153:
 1435 001c 00000000 		.word	buffer
 1436 0020 00000000 		.word	devAddr
 1437              		.cfi_endproc
 1438              	.LFE40:
 1439              		.size	MPU6050_getYGyroFIFOEnabled, .-MPU6050_getYGyroFIFOEnabled
 1440              		.section	.text.MPU6050_setYGyroFIFOEnabled,"ax",%progbits
 1441              		.align	2
 1442              		.global	MPU6050_setYGyroFIFOEnabled
 1443              		.thumb
 1444              		.thumb_func
 1445              		.type	MPU6050_setYGyroFIFOEnabled, %function
 1446              	MPU6050_setYGyroFIFOEnabled:
 1447              	.LFB41:
 628:.\mpu6050.c   **** /** Set gyroscope Y-axis FIFO enabled value.
 629:.\mpu6050.c   ****  * @param enabled New gyroscope Y-axis FIFO enabled value
 630:.\mpu6050.c   ****  * @see getYGyroFIFOEnabled()
 631:.\mpu6050.c   ****  * @see MPU6050_RA_FIFO_EN
 632:.\mpu6050.c   ****  */
 633:.\mpu6050.c   **** void MPU6050_setYGyroFIFOEnabled(bool enabled) {
 1448              		.loc 1 633 0
 1449              		.cfi_startproc
 1450              		@ args = 0, pretend = 0, frame = 0
 1451              		@ frame_needed = 0, uses_anonymous_args = 0
 1452              	.LVL74:
 1453 0000 08B5     		push	{r3, lr}
 1454              		.cfi_def_cfa_offset 8
 1455              		.cfi_offset 3, -8
 1456              		.cfi_offset 14, -4
 1457 0002 0346     		mov	r3, r0
 634:.\mpu6050.c   ****     I2CWriteBit(devAddr, MPU6050_RA_FIFO_EN, MPU6050_YG_FIFO_EN_BIT, enabled);
 1458              		.loc 1 634 0
 1459 0004 034A     		ldr	r2, .L157
 1460 0006 1078     		ldrb	r0, [r2]	@ zero_extendqisi2
 1461              	.LVL75:
 1462 0008 2321     		movs	r1, #35
 1463 000a 0522     		movs	r2, #5
 1464 000c FFF7FEFF 		bl	I2CWriteBit
 1465              	.LVL76:
 1466 0010 08BD     		pop	{r3, pc}
 1467              	.L158:
 1468 0012 00BF     		.align	2
 1469              	.L157:
 1470 0014 00000000 		.word	devAddr
 1471              		.cfi_endproc
 1472              	.LFE41:
 1473              		.size	MPU6050_setYGyroFIFOEnabled, .-MPU6050_setYGyroFIFOEnabled
 1474              		.section	.text.MPU6050_getZGyroFIFOEnabled,"ax",%progbits
 1475              		.align	2
ARM GAS  C:\Users\Michael\AppData\Local\Temp\ccvFrowP.s 			page 38


 1476              		.global	MPU6050_getZGyroFIFOEnabled
 1477              		.thumb
 1478              		.thumb_func
 1479              		.type	MPU6050_getZGyroFIFOEnabled, %function
 1480              	MPU6050_getZGyroFIFOEnabled:
 1481              	.LFB42:
 635:.\mpu6050.c   **** }
 636:.\mpu6050.c   **** /** Get gyroscope Z-axis FIFO enabled value.
 637:.\mpu6050.c   ****  * When set to 1, this bit enables GYRO_ZOUT_H and GYRO_ZOUT_L (Registers 71 and
 638:.\mpu6050.c   ****  * 72) to be written into the FIFO buffer.
 639:.\mpu6050.c   ****  * @return Current gyroscope Z-axis FIFO enabled value
 640:.\mpu6050.c   ****  * @see MPU6050_RA_FIFO_EN
 641:.\mpu6050.c   ****  */
 642:.\mpu6050.c   **** bool MPU6050_getZGyroFIFOEnabled() {
 1482              		.loc 1 642 0
 1483              		.cfi_startproc
 1484              		@ args = 0, pretend = 0, frame = 0
 1485              		@ frame_needed = 0, uses_anonymous_args = 0
 1486 0000 10B5     		push	{r4, lr}
 1487              		.cfi_def_cfa_offset 8
 1488              		.cfi_offset 4, -8
 1489              		.cfi_offset 14, -4
 643:.\mpu6050.c   ****     I2CReadBit(devAddr, MPU6050_RA_FIFO_EN, MPU6050_ZG_FIFO_EN_BIT, buffer);
 1490              		.loc 1 643 0
 1491 0002 064C     		ldr	r4, .L161
 1492 0004 064B     		ldr	r3, .L161+4
 1493 0006 1878     		ldrb	r0, [r3]	@ zero_extendqisi2
 1494 0008 2321     		movs	r1, #35
 1495 000a 0422     		movs	r2, #4
 1496 000c 2346     		mov	r3, r4
 1497 000e FFF7FEFF 		bl	I2CReadBit
 1498              	.LVL77:
 644:.\mpu6050.c   ****     return buffer[0];
 1499              		.loc 1 644 0
 1500 0012 2078     		ldrb	r0, [r4]	@ zero_extendqisi2
 645:.\mpu6050.c   **** }
 1501              		.loc 1 645 0
 1502 0014 0030     		adds	r0, r0, #0
 1503 0016 18BF     		it	ne
 1504 0018 0120     		movne	r0, #1
 1505 001a 10BD     		pop	{r4, pc}
 1506              	.L162:
 1507              		.align	2
 1508              	.L161:
 1509 001c 00000000 		.word	buffer
 1510 0020 00000000 		.word	devAddr
 1511              		.cfi_endproc
 1512              	.LFE42:
 1513              		.size	MPU6050_getZGyroFIFOEnabled, .-MPU6050_getZGyroFIFOEnabled
 1514              		.section	.text.MPU6050_setZGyroFIFOEnabled,"ax",%progbits
 1515              		.align	2
 1516              		.global	MPU6050_setZGyroFIFOEnabled
 1517              		.thumb
 1518              		.thumb_func
 1519              		.type	MPU6050_setZGyroFIFOEnabled, %function
 1520              	MPU6050_setZGyroFIFOEnabled:
 1521              	.LFB43:
ARM GAS  C:\Users\Michael\AppData\Local\Temp\ccvFrowP.s 			page 39


 646:.\mpu6050.c   **** /** Set gyroscope Z-axis FIFO enabled value.
 647:.\mpu6050.c   ****  * @param enabled New gyroscope Z-axis FIFO enabled value
 648:.\mpu6050.c   ****  * @see getZGyroFIFOEnabled()
 649:.\mpu6050.c   ****  * @see MPU6050_RA_FIFO_EN
 650:.\mpu6050.c   ****  */
 651:.\mpu6050.c   **** void MPU6050_setZGyroFIFOEnabled(bool enabled) {
 1522              		.loc 1 651 0
 1523              		.cfi_startproc
 1524              		@ args = 0, pretend = 0, frame = 0
 1525              		@ frame_needed = 0, uses_anonymous_args = 0
 1526              	.LVL78:
 1527 0000 08B5     		push	{r3, lr}
 1528              		.cfi_def_cfa_offset 8
 1529              		.cfi_offset 3, -8
 1530              		.cfi_offset 14, -4
 1531 0002 0346     		mov	r3, r0
 652:.\mpu6050.c   ****     I2CWriteBit(devAddr, MPU6050_RA_FIFO_EN, MPU6050_ZG_FIFO_EN_BIT, enabled);
 1532              		.loc 1 652 0
 1533 0004 034A     		ldr	r2, .L165
 1534 0006 1078     		ldrb	r0, [r2]	@ zero_extendqisi2
 1535              	.LVL79:
 1536 0008 2321     		movs	r1, #35
 1537 000a 0422     		movs	r2, #4
 1538 000c FFF7FEFF 		bl	I2CWriteBit
 1539              	.LVL80:
 1540 0010 08BD     		pop	{r3, pc}
 1541              	.L166:
 1542 0012 00BF     		.align	2
 1543              	.L165:
 1544 0014 00000000 		.word	devAddr
 1545              		.cfi_endproc
 1546              	.LFE43:
 1547              		.size	MPU6050_setZGyroFIFOEnabled, .-MPU6050_setZGyroFIFOEnabled
 1548              		.section	.text.MPU6050_getAccelFIFOEnabled,"ax",%progbits
 1549              		.align	2
 1550              		.global	MPU6050_getAccelFIFOEnabled
 1551              		.thumb
 1552              		.thumb_func
 1553              		.type	MPU6050_getAccelFIFOEnabled, %function
 1554              	MPU6050_getAccelFIFOEnabled:
 1555              	.LFB44:
 653:.\mpu6050.c   **** }
 654:.\mpu6050.c   **** /** Get accelerometer FIFO enabled value.
 655:.\mpu6050.c   ****  * When set to 1, this bit enables ACCEL_XOUT_H, ACCEL_XOUT_L, ACCEL_YOUT_H,
 656:.\mpu6050.c   ****  * ACCEL_YOUT_L, ACCEL_ZOUT_H, and ACCEL_ZOUT_L (Registers 59 to 64) to be
 657:.\mpu6050.c   ****  * written into the FIFO buffer.
 658:.\mpu6050.c   ****  * @return Current accelerometer FIFO enabled value
 659:.\mpu6050.c   ****  * @see MPU6050_RA_FIFO_EN
 660:.\mpu6050.c   ****  */
 661:.\mpu6050.c   **** bool MPU6050_getAccelFIFOEnabled() {
 1556              		.loc 1 661 0
 1557              		.cfi_startproc
 1558              		@ args = 0, pretend = 0, frame = 0
 1559              		@ frame_needed = 0, uses_anonymous_args = 0
 1560 0000 10B5     		push	{r4, lr}
 1561              		.cfi_def_cfa_offset 8
 1562              		.cfi_offset 4, -8
ARM GAS  C:\Users\Michael\AppData\Local\Temp\ccvFrowP.s 			page 40


 1563              		.cfi_offset 14, -4
 662:.\mpu6050.c   ****     I2CReadBit(devAddr, MPU6050_RA_FIFO_EN, MPU6050_ACCEL_FIFO_EN_BIT, buffer);
 1564              		.loc 1 662 0
 1565 0002 064C     		ldr	r4, .L169
 1566 0004 064B     		ldr	r3, .L169+4
 1567 0006 1878     		ldrb	r0, [r3]	@ zero_extendqisi2
 1568 0008 2321     		movs	r1, #35
 1569 000a 0322     		movs	r2, #3
 1570 000c 2346     		mov	r3, r4
 1571 000e FFF7FEFF 		bl	I2CReadBit
 1572              	.LVL81:
 663:.\mpu6050.c   ****     return buffer[0];
 1573              		.loc 1 663 0
 1574 0012 2078     		ldrb	r0, [r4]	@ zero_extendqisi2
 664:.\mpu6050.c   **** }
 1575              		.loc 1 664 0
 1576 0014 0030     		adds	r0, r0, #0
 1577 0016 18BF     		it	ne
 1578 0018 0120     		movne	r0, #1
 1579 001a 10BD     		pop	{r4, pc}
 1580              	.L170:
 1581              		.align	2
 1582              	.L169:
 1583 001c 00000000 		.word	buffer
 1584 0020 00000000 		.word	devAddr
 1585              		.cfi_endproc
 1586              	.LFE44:
 1587              		.size	MPU6050_getAccelFIFOEnabled, .-MPU6050_getAccelFIFOEnabled
 1588              		.section	.text.MPU6050_setAccelFIFOEnabled,"ax",%progbits
 1589              		.align	2
 1590              		.global	MPU6050_setAccelFIFOEnabled
 1591              		.thumb
 1592              		.thumb_func
 1593              		.type	MPU6050_setAccelFIFOEnabled, %function
 1594              	MPU6050_setAccelFIFOEnabled:
 1595              	.LFB45:
 665:.\mpu6050.c   **** /** Set accelerometer FIFO enabled value.
 666:.\mpu6050.c   ****  * @param enabled New accelerometer FIFO enabled value
 667:.\mpu6050.c   ****  * @see getAccelFIFOEnabled()
 668:.\mpu6050.c   ****  * @see MPU6050_RA_FIFO_EN
 669:.\mpu6050.c   ****  */
 670:.\mpu6050.c   **** void MPU6050_setAccelFIFOEnabled(bool enabled) {
 1596              		.loc 1 670 0
 1597              		.cfi_startproc
 1598              		@ args = 0, pretend = 0, frame = 0
 1599              		@ frame_needed = 0, uses_anonymous_args = 0
 1600              	.LVL82:
 1601 0000 08B5     		push	{r3, lr}
 1602              		.cfi_def_cfa_offset 8
 1603              		.cfi_offset 3, -8
 1604              		.cfi_offset 14, -4
 1605 0002 0346     		mov	r3, r0
 671:.\mpu6050.c   ****     I2CWriteBit(devAddr, MPU6050_RA_FIFO_EN, MPU6050_ACCEL_FIFO_EN_BIT, enabled);
 1606              		.loc 1 671 0
 1607 0004 034A     		ldr	r2, .L173
 1608 0006 1078     		ldrb	r0, [r2]	@ zero_extendqisi2
 1609              	.LVL83:
ARM GAS  C:\Users\Michael\AppData\Local\Temp\ccvFrowP.s 			page 41


 1610 0008 2321     		movs	r1, #35
 1611 000a 0322     		movs	r2, #3
 1612 000c FFF7FEFF 		bl	I2CWriteBit
 1613              	.LVL84:
 1614 0010 08BD     		pop	{r3, pc}
 1615              	.L174:
 1616 0012 00BF     		.align	2
 1617              	.L173:
 1618 0014 00000000 		.word	devAddr
 1619              		.cfi_endproc
 1620              	.LFE45:
 1621              		.size	MPU6050_setAccelFIFOEnabled, .-MPU6050_setAccelFIFOEnabled
 1622              		.section	.text.MPU6050_getSlave2FIFOEnabled,"ax",%progbits
 1623              		.align	2
 1624              		.global	MPU6050_getSlave2FIFOEnabled
 1625              		.thumb
 1626              		.thumb_func
 1627              		.type	MPU6050_getSlave2FIFOEnabled, %function
 1628              	MPU6050_getSlave2FIFOEnabled:
 1629              	.LFB46:
 672:.\mpu6050.c   **** }
 673:.\mpu6050.c   **** /** Get Slave 2 FIFO enabled value.
 674:.\mpu6050.c   ****  * When set to 1, this bit enables EXT_SENS_DATA registers (Registers 73 to 96)
 675:.\mpu6050.c   ****  * associated with Slave 2 to be written into the FIFO buffer.
 676:.\mpu6050.c   ****  * @return Current Slave 2 FIFO enabled value
 677:.\mpu6050.c   ****  * @see MPU6050_RA_FIFO_EN
 678:.\mpu6050.c   ****  */
 679:.\mpu6050.c   **** bool MPU6050_getSlave2FIFOEnabled() {
 1630              		.loc 1 679 0
 1631              		.cfi_startproc
 1632              		@ args = 0, pretend = 0, frame = 0
 1633              		@ frame_needed = 0, uses_anonymous_args = 0
 1634 0000 10B5     		push	{r4, lr}
 1635              		.cfi_def_cfa_offset 8
 1636              		.cfi_offset 4, -8
 1637              		.cfi_offset 14, -4
 680:.\mpu6050.c   ****     I2CReadBit(devAddr, MPU6050_RA_FIFO_EN, MPU6050_SLV2_FIFO_EN_BIT, buffer);
 1638              		.loc 1 680 0
 1639 0002 064C     		ldr	r4, .L177
 1640 0004 064B     		ldr	r3, .L177+4
 1641 0006 1878     		ldrb	r0, [r3]	@ zero_extendqisi2
 1642 0008 2321     		movs	r1, #35
 1643 000a 0222     		movs	r2, #2
 1644 000c 2346     		mov	r3, r4
 1645 000e FFF7FEFF 		bl	I2CReadBit
 1646              	.LVL85:
 681:.\mpu6050.c   ****     return buffer[0];
 1647              		.loc 1 681 0
 1648 0012 2078     		ldrb	r0, [r4]	@ zero_extendqisi2
 682:.\mpu6050.c   **** }
 1649              		.loc 1 682 0
 1650 0014 0030     		adds	r0, r0, #0
 1651 0016 18BF     		it	ne
 1652 0018 0120     		movne	r0, #1
 1653 001a 10BD     		pop	{r4, pc}
 1654              	.L178:
 1655              		.align	2
ARM GAS  C:\Users\Michael\AppData\Local\Temp\ccvFrowP.s 			page 42


 1656              	.L177:
 1657 001c 00000000 		.word	buffer
 1658 0020 00000000 		.word	devAddr
 1659              		.cfi_endproc
 1660              	.LFE46:
 1661              		.size	MPU6050_getSlave2FIFOEnabled, .-MPU6050_getSlave2FIFOEnabled
 1662              		.section	.text.MPU6050_setSlave2FIFOEnabled,"ax",%progbits
 1663              		.align	2
 1664              		.global	MPU6050_setSlave2FIFOEnabled
 1665              		.thumb
 1666              		.thumb_func
 1667              		.type	MPU6050_setSlave2FIFOEnabled, %function
 1668              	MPU6050_setSlave2FIFOEnabled:
 1669              	.LFB47:
 683:.\mpu6050.c   **** /** Set Slave 2 FIFO enabled value.
 684:.\mpu6050.c   ****  * @param enabled New Slave 2 FIFO enabled value
 685:.\mpu6050.c   ****  * @see getSlave2FIFOEnabled()
 686:.\mpu6050.c   ****  * @see MPU6050_RA_FIFO_EN
 687:.\mpu6050.c   ****  */
 688:.\mpu6050.c   **** void MPU6050_setSlave2FIFOEnabled(bool enabled) {
 1670              		.loc 1 688 0
 1671              		.cfi_startproc
 1672              		@ args = 0, pretend = 0, frame = 0
 1673              		@ frame_needed = 0, uses_anonymous_args = 0
 1674              	.LVL86:
 1675 0000 08B5     		push	{r3, lr}
 1676              		.cfi_def_cfa_offset 8
 1677              		.cfi_offset 3, -8
 1678              		.cfi_offset 14, -4
 1679 0002 0346     		mov	r3, r0
 689:.\mpu6050.c   ****     I2CWriteBit(devAddr, MPU6050_RA_FIFO_EN, MPU6050_SLV2_FIFO_EN_BIT, enabled);
 1680              		.loc 1 689 0
 1681 0004 034A     		ldr	r2, .L181
 1682 0006 1078     		ldrb	r0, [r2]	@ zero_extendqisi2
 1683              	.LVL87:
 1684 0008 2321     		movs	r1, #35
 1685 000a 0222     		movs	r2, #2
 1686 000c FFF7FEFF 		bl	I2CWriteBit
 1687              	.LVL88:
 1688 0010 08BD     		pop	{r3, pc}
 1689              	.L182:
 1690 0012 00BF     		.align	2
 1691              	.L181:
 1692 0014 00000000 		.word	devAddr
 1693              		.cfi_endproc
 1694              	.LFE47:
 1695              		.size	MPU6050_setSlave2FIFOEnabled, .-MPU6050_setSlave2FIFOEnabled
 1696              		.section	.text.MPU6050_getSlave1FIFOEnabled,"ax",%progbits
 1697              		.align	2
 1698              		.global	MPU6050_getSlave1FIFOEnabled
 1699              		.thumb
 1700              		.thumb_func
 1701              		.type	MPU6050_getSlave1FIFOEnabled, %function
 1702              	MPU6050_getSlave1FIFOEnabled:
 1703              	.LFB48:
 690:.\mpu6050.c   **** }
 691:.\mpu6050.c   **** /** Get Slave 1 FIFO enabled value.
ARM GAS  C:\Users\Michael\AppData\Local\Temp\ccvFrowP.s 			page 43


 692:.\mpu6050.c   ****  * When set to 1, this bit enables EXT_SENS_DATA registers (Registers 73 to 96)
 693:.\mpu6050.c   ****  * associated with Slave 1 to be written into the FIFO buffer.
 694:.\mpu6050.c   ****  * @return Current Slave 1 FIFO enabled value
 695:.\mpu6050.c   ****  * @see MPU6050_RA_FIFO_EN
 696:.\mpu6050.c   ****  */
 697:.\mpu6050.c   **** bool MPU6050_getSlave1FIFOEnabled() {
 1704              		.loc 1 697 0
 1705              		.cfi_startproc
 1706              		@ args = 0, pretend = 0, frame = 0
 1707              		@ frame_needed = 0, uses_anonymous_args = 0
 1708 0000 10B5     		push	{r4, lr}
 1709              		.cfi_def_cfa_offset 8
 1710              		.cfi_offset 4, -8
 1711              		.cfi_offset 14, -4
 698:.\mpu6050.c   ****     I2CReadBit(devAddr, MPU6050_RA_FIFO_EN, MPU6050_SLV1_FIFO_EN_BIT, buffer);
 1712              		.loc 1 698 0
 1713 0002 064C     		ldr	r4, .L185
 1714 0004 064B     		ldr	r3, .L185+4
 1715 0006 1878     		ldrb	r0, [r3]	@ zero_extendqisi2
 1716 0008 2321     		movs	r1, #35
 1717 000a 0122     		movs	r2, #1
 1718 000c 2346     		mov	r3, r4
 1719 000e FFF7FEFF 		bl	I2CReadBit
 1720              	.LVL89:
 699:.\mpu6050.c   ****     return buffer[0];
 1721              		.loc 1 699 0
 1722 0012 2078     		ldrb	r0, [r4]	@ zero_extendqisi2
 700:.\mpu6050.c   **** }
 1723              		.loc 1 700 0
 1724 0014 0030     		adds	r0, r0, #0
 1725 0016 18BF     		it	ne
 1726 0018 0120     		movne	r0, #1
 1727 001a 10BD     		pop	{r4, pc}
 1728              	.L186:
 1729              		.align	2
 1730              	.L185:
 1731 001c 00000000 		.word	buffer
 1732 0020 00000000 		.word	devAddr
 1733              		.cfi_endproc
 1734              	.LFE48:
 1735              		.size	MPU6050_getSlave1FIFOEnabled, .-MPU6050_getSlave1FIFOEnabled
 1736              		.section	.text.MPU6050_setSlave1FIFOEnabled,"ax",%progbits
 1737              		.align	2
 1738              		.global	MPU6050_setSlave1FIFOEnabled
 1739              		.thumb
 1740              		.thumb_func
 1741              		.type	MPU6050_setSlave1FIFOEnabled, %function
 1742              	MPU6050_setSlave1FIFOEnabled:
 1743              	.LFB49:
 701:.\mpu6050.c   **** /** Set Slave 1 FIFO enabled value.
 702:.\mpu6050.c   ****  * @param enabled New Slave 1 FIFO enabled value
 703:.\mpu6050.c   ****  * @see getSlave1FIFOEnabled()
 704:.\mpu6050.c   ****  * @see MPU6050_RA_FIFO_EN
 705:.\mpu6050.c   ****  */
 706:.\mpu6050.c   **** void MPU6050_setSlave1FIFOEnabled(bool enabled) {
 1744              		.loc 1 706 0
 1745              		.cfi_startproc
ARM GAS  C:\Users\Michael\AppData\Local\Temp\ccvFrowP.s 			page 44


 1746              		@ args = 0, pretend = 0, frame = 0
 1747              		@ frame_needed = 0, uses_anonymous_args = 0
 1748              	.LVL90:
 1749 0000 08B5     		push	{r3, lr}
 1750              		.cfi_def_cfa_offset 8
 1751              		.cfi_offset 3, -8
 1752              		.cfi_offset 14, -4
 1753 0002 0346     		mov	r3, r0
 707:.\mpu6050.c   ****     I2CWriteBit(devAddr, MPU6050_RA_FIFO_EN, MPU6050_SLV1_FIFO_EN_BIT, enabled);
 1754              		.loc 1 707 0
 1755 0004 034A     		ldr	r2, .L189
 1756 0006 1078     		ldrb	r0, [r2]	@ zero_extendqisi2
 1757              	.LVL91:
 1758 0008 2321     		movs	r1, #35
 1759 000a 0122     		movs	r2, #1
 1760 000c FFF7FEFF 		bl	I2CWriteBit
 1761              	.LVL92:
 1762 0010 08BD     		pop	{r3, pc}
 1763              	.L190:
 1764 0012 00BF     		.align	2
 1765              	.L189:
 1766 0014 00000000 		.word	devAddr
 1767              		.cfi_endproc
 1768              	.LFE49:
 1769              		.size	MPU6050_setSlave1FIFOEnabled, .-MPU6050_setSlave1FIFOEnabled
 1770              		.section	.text.MPU6050_getSlave0FIFOEnabled,"ax",%progbits
 1771              		.align	2
 1772              		.global	MPU6050_getSlave0FIFOEnabled
 1773              		.thumb
 1774              		.thumb_func
 1775              		.type	MPU6050_getSlave0FIFOEnabled, %function
 1776              	MPU6050_getSlave0FIFOEnabled:
 1777              	.LFB50:
 708:.\mpu6050.c   **** }
 709:.\mpu6050.c   **** /** Get Slave 0 FIFO enabled value.
 710:.\mpu6050.c   ****  * When set to 1, this bit enables EXT_SENS_DATA registers (Registers 73 to 96)
 711:.\mpu6050.c   ****  * associated with Slave 0 to be written into the FIFO buffer.
 712:.\mpu6050.c   ****  * @return Current Slave 0 FIFO enabled value
 713:.\mpu6050.c   ****  * @see MPU6050_RA_FIFO_EN
 714:.\mpu6050.c   ****  */
 715:.\mpu6050.c   **** bool MPU6050_getSlave0FIFOEnabled() {
 1778              		.loc 1 715 0
 1779              		.cfi_startproc
 1780              		@ args = 0, pretend = 0, frame = 0
 1781              		@ frame_needed = 0, uses_anonymous_args = 0
 1782 0000 10B5     		push	{r4, lr}
 1783              		.cfi_def_cfa_offset 8
 1784              		.cfi_offset 4, -8
 1785              		.cfi_offset 14, -4
 716:.\mpu6050.c   ****     I2CReadBit(devAddr, MPU6050_RA_FIFO_EN, MPU6050_SLV0_FIFO_EN_BIT, buffer);
 1786              		.loc 1 716 0
 1787 0002 064C     		ldr	r4, .L193
 1788 0004 064B     		ldr	r3, .L193+4
 1789 0006 1878     		ldrb	r0, [r3]	@ zero_extendqisi2
 1790 0008 2321     		movs	r1, #35
 1791 000a 0022     		movs	r2, #0
 1792 000c 2346     		mov	r3, r4
ARM GAS  C:\Users\Michael\AppData\Local\Temp\ccvFrowP.s 			page 45


 1793 000e FFF7FEFF 		bl	I2CReadBit
 1794              	.LVL93:
 717:.\mpu6050.c   ****     return buffer[0];
 1795              		.loc 1 717 0
 1796 0012 2078     		ldrb	r0, [r4]	@ zero_extendqisi2
 718:.\mpu6050.c   **** }
 1797              		.loc 1 718 0
 1798 0014 0030     		adds	r0, r0, #0
 1799 0016 18BF     		it	ne
 1800 0018 0120     		movne	r0, #1
 1801 001a 10BD     		pop	{r4, pc}
 1802              	.L194:
 1803              		.align	2
 1804              	.L193:
 1805 001c 00000000 		.word	buffer
 1806 0020 00000000 		.word	devAddr
 1807              		.cfi_endproc
 1808              	.LFE50:
 1809              		.size	MPU6050_getSlave0FIFOEnabled, .-MPU6050_getSlave0FIFOEnabled
 1810              		.section	.text.MPU6050_setSlave0FIFOEnabled,"ax",%progbits
 1811              		.align	2
 1812              		.global	MPU6050_setSlave0FIFOEnabled
 1813              		.thumb
 1814              		.thumb_func
 1815              		.type	MPU6050_setSlave0FIFOEnabled, %function
 1816              	MPU6050_setSlave0FIFOEnabled:
 1817              	.LFB51:
 719:.\mpu6050.c   **** /** Set Slave 0 FIFO enabled value.
 720:.\mpu6050.c   ****  * @param enabled New Slave 0 FIFO enabled value
 721:.\mpu6050.c   ****  * @see getSlave0FIFOEnabled()
 722:.\mpu6050.c   ****  * @see MPU6050_RA_FIFO_EN
 723:.\mpu6050.c   ****  */
 724:.\mpu6050.c   **** void MPU6050_setSlave0FIFOEnabled(bool enabled) {
 1818              		.loc 1 724 0
 1819              		.cfi_startproc
 1820              		@ args = 0, pretend = 0, frame = 0
 1821              		@ frame_needed = 0, uses_anonymous_args = 0
 1822              	.LVL94:
 1823 0000 08B5     		push	{r3, lr}
 1824              		.cfi_def_cfa_offset 8
 1825              		.cfi_offset 3, -8
 1826              		.cfi_offset 14, -4
 1827 0002 0346     		mov	r3, r0
 725:.\mpu6050.c   ****     I2CWriteBit(devAddr, MPU6050_RA_FIFO_EN, MPU6050_SLV0_FIFO_EN_BIT, enabled);
 1828              		.loc 1 725 0
 1829 0004 034A     		ldr	r2, .L197
 1830 0006 1078     		ldrb	r0, [r2]	@ zero_extendqisi2
 1831              	.LVL95:
 1832 0008 2321     		movs	r1, #35
 1833 000a 0022     		movs	r2, #0
 1834 000c FFF7FEFF 		bl	I2CWriteBit
 1835              	.LVL96:
 1836 0010 08BD     		pop	{r3, pc}
 1837              	.L198:
 1838 0012 00BF     		.align	2
 1839              	.L197:
 1840 0014 00000000 		.word	devAddr
ARM GAS  C:\Users\Michael\AppData\Local\Temp\ccvFrowP.s 			page 46


 1841              		.cfi_endproc
 1842              	.LFE51:
 1843              		.size	MPU6050_setSlave0FIFOEnabled, .-MPU6050_setSlave0FIFOEnabled
 1844              		.section	.text.MPU6050_getMultiMasterEnabled,"ax",%progbits
 1845              		.align	2
 1846              		.global	MPU6050_getMultiMasterEnabled
 1847              		.thumb
 1848              		.thumb_func
 1849              		.type	MPU6050_getMultiMasterEnabled, %function
 1850              	MPU6050_getMultiMasterEnabled:
 1851              	.LFB52:
 726:.\mpu6050.c   **** }
 727:.\mpu6050.c   **** 
 728:.\mpu6050.c   **** // I2C_MST_CTRL register
 729:.\mpu6050.c   **** 
 730:.\mpu6050.c   **** /** Get multi-master enabled value.
 731:.\mpu6050.c   ****  * Multi-master capability allows multiple I2C masters to operate on the same
 732:.\mpu6050.c   ****  * bus. In circuits where multi-master capability is required, set MULT_MST_EN
 733:.\mpu6050.c   ****  * to 1. This will increase current drawn by approximately 30uA.
 734:.\mpu6050.c   ****  *
 735:.\mpu6050.c   ****  * In circuits where multi-master capability is required, the state of the I2C
 736:.\mpu6050.c   ****  * bus must always be monitored by each separate I2C Master. Before an I2C
 737:.\mpu6050.c   ****  * Master can assume arbitration of the bus, it must first confirm that no other
 738:.\mpu6050.c   ****  * I2C Master has arbitration of the bus. When MULT_MST_EN is set to 1, the
 739:.\mpu6050.c   ****  * MPU-60X0's bus arbitration detection logic is turned on, enabling it to
 740:.\mpu6050.c   ****  * detect when the bus is available.
 741:.\mpu6050.c   ****  *
 742:.\mpu6050.c   ****  * @return Current multi-master enabled value
 743:.\mpu6050.c   ****  * @see MPU6050_RA_I2C_MST_CTRL
 744:.\mpu6050.c   ****  */
 745:.\mpu6050.c   **** bool MPU6050_getMultiMasterEnabled() {
 1852              		.loc 1 745 0
 1853              		.cfi_startproc
 1854              		@ args = 0, pretend = 0, frame = 0
 1855              		@ frame_needed = 0, uses_anonymous_args = 0
 1856 0000 10B5     		push	{r4, lr}
 1857              		.cfi_def_cfa_offset 8
 1858              		.cfi_offset 4, -8
 1859              		.cfi_offset 14, -4
 746:.\mpu6050.c   ****     I2CReadBit(devAddr, MPU6050_RA_I2C_MST_CTRL, MPU6050_MULT_MST_EN_BIT, buffer);
 1860              		.loc 1 746 0
 1861 0002 064C     		ldr	r4, .L201
 1862 0004 064B     		ldr	r3, .L201+4
 1863 0006 1878     		ldrb	r0, [r3]	@ zero_extendqisi2
 1864 0008 2421     		movs	r1, #36
 1865 000a 0722     		movs	r2, #7
 1866 000c 2346     		mov	r3, r4
 1867 000e FFF7FEFF 		bl	I2CReadBit
 1868              	.LVL97:
 747:.\mpu6050.c   ****     return buffer[0];
 1869              		.loc 1 747 0
 1870 0012 2078     		ldrb	r0, [r4]	@ zero_extendqisi2
 748:.\mpu6050.c   **** }
 1871              		.loc 1 748 0
 1872 0014 0030     		adds	r0, r0, #0
 1873 0016 18BF     		it	ne
 1874 0018 0120     		movne	r0, #1
ARM GAS  C:\Users\Michael\AppData\Local\Temp\ccvFrowP.s 			page 47


 1875 001a 10BD     		pop	{r4, pc}
 1876              	.L202:
 1877              		.align	2
 1878              	.L201:
 1879 001c 00000000 		.word	buffer
 1880 0020 00000000 		.word	devAddr
 1881              		.cfi_endproc
 1882              	.LFE52:
 1883              		.size	MPU6050_getMultiMasterEnabled, .-MPU6050_getMultiMasterEnabled
 1884              		.section	.text.MPU6050_setMultiMasterEnabled,"ax",%progbits
 1885              		.align	2
 1886              		.global	MPU6050_setMultiMasterEnabled
 1887              		.thumb
 1888              		.thumb_func
 1889              		.type	MPU6050_setMultiMasterEnabled, %function
 1890              	MPU6050_setMultiMasterEnabled:
 1891              	.LFB53:
 749:.\mpu6050.c   **** /** Set multi-master enabled value.
 750:.\mpu6050.c   ****  * @param enabled New multi-master enabled value
 751:.\mpu6050.c   ****  * @see getMultiMasterEnabled()
 752:.\mpu6050.c   ****  * @see MPU6050_RA_I2C_MST_CTRL
 753:.\mpu6050.c   ****  */
 754:.\mpu6050.c   **** void MPU6050_setMultiMasterEnabled(bool enabled) {
 1892              		.loc 1 754 0
 1893              		.cfi_startproc
 1894              		@ args = 0, pretend = 0, frame = 0
 1895              		@ frame_needed = 0, uses_anonymous_args = 0
 1896              	.LVL98:
 1897 0000 08B5     		push	{r3, lr}
 1898              		.cfi_def_cfa_offset 8
 1899              		.cfi_offset 3, -8
 1900              		.cfi_offset 14, -4
 1901 0002 0346     		mov	r3, r0
 755:.\mpu6050.c   ****     I2CWriteBit(devAddr, MPU6050_RA_I2C_MST_CTRL, MPU6050_MULT_MST_EN_BIT, enabled);
 1902              		.loc 1 755 0
 1903 0004 034A     		ldr	r2, .L205
 1904 0006 1078     		ldrb	r0, [r2]	@ zero_extendqisi2
 1905              	.LVL99:
 1906 0008 2421     		movs	r1, #36
 1907 000a 0722     		movs	r2, #7
 1908 000c FFF7FEFF 		bl	I2CWriteBit
 1909              	.LVL100:
 1910 0010 08BD     		pop	{r3, pc}
 1911              	.L206:
 1912 0012 00BF     		.align	2
 1913              	.L205:
 1914 0014 00000000 		.word	devAddr
 1915              		.cfi_endproc
 1916              	.LFE53:
 1917              		.size	MPU6050_setMultiMasterEnabled, .-MPU6050_setMultiMasterEnabled
 1918              		.section	.text.MPU6050_getWaitForExternalSensorEnabled,"ax",%progbits
 1919              		.align	2
 1920              		.global	MPU6050_getWaitForExternalSensorEnabled
 1921              		.thumb
 1922              		.thumb_func
 1923              		.type	MPU6050_getWaitForExternalSensorEnabled, %function
 1924              	MPU6050_getWaitForExternalSensorEnabled:
ARM GAS  C:\Users\Michael\AppData\Local\Temp\ccvFrowP.s 			page 48


 1925              	.LFB54:
 756:.\mpu6050.c   **** }
 757:.\mpu6050.c   **** /** Get wait-for-external-sensor-data enabled value.
 758:.\mpu6050.c   ****  * When the WAIT_FOR_ES bit is set to 1, the Data Ready interrupt will be
 759:.\mpu6050.c   ****  * delayed until External Sensor data from the Slave Devices are loaded into the
 760:.\mpu6050.c   ****  * EXT_SENS_DATA registers. This is used to ensure that both the internal sensor
 761:.\mpu6050.c   ****  * data (i.e. from gyro and accel) and external sensor data have been loaded to
 762:.\mpu6050.c   ****  * their respective data registers (i.e. the data is synced) when the Data Ready
 763:.\mpu6050.c   ****  * interrupt is triggered.
 764:.\mpu6050.c   ****  *
 765:.\mpu6050.c   ****  * @return Current wait-for-external-sensor-data enabled value
 766:.\mpu6050.c   ****  * @see MPU6050_RA_I2C_MST_CTRL
 767:.\mpu6050.c   ****  */
 768:.\mpu6050.c   **** bool MPU6050_getWaitForExternalSensorEnabled() {
 1926              		.loc 1 768 0
 1927              		.cfi_startproc
 1928              		@ args = 0, pretend = 0, frame = 0
 1929              		@ frame_needed = 0, uses_anonymous_args = 0
 1930 0000 10B5     		push	{r4, lr}
 1931              		.cfi_def_cfa_offset 8
 1932              		.cfi_offset 4, -8
 1933              		.cfi_offset 14, -4
 769:.\mpu6050.c   ****     I2CReadBit(devAddr, MPU6050_RA_I2C_MST_CTRL, MPU6050_WAIT_FOR_ES_BIT, buffer);
 1934              		.loc 1 769 0
 1935 0002 064C     		ldr	r4, .L209
 1936 0004 064B     		ldr	r3, .L209+4
 1937 0006 1878     		ldrb	r0, [r3]	@ zero_extendqisi2
 1938 0008 2421     		movs	r1, #36
 1939 000a 0622     		movs	r2, #6
 1940 000c 2346     		mov	r3, r4
 1941 000e FFF7FEFF 		bl	I2CReadBit
 1942              	.LVL101:
 770:.\mpu6050.c   ****     return buffer[0];
 1943              		.loc 1 770 0
 1944 0012 2078     		ldrb	r0, [r4]	@ zero_extendqisi2
 771:.\mpu6050.c   **** }
 1945              		.loc 1 771 0
 1946 0014 0030     		adds	r0, r0, #0
 1947 0016 18BF     		it	ne
 1948 0018 0120     		movne	r0, #1
 1949 001a 10BD     		pop	{r4, pc}
 1950              	.L210:
 1951              		.align	2
 1952              	.L209:
 1953 001c 00000000 		.word	buffer
 1954 0020 00000000 		.word	devAddr
 1955              		.cfi_endproc
 1956              	.LFE54:
 1957              		.size	MPU6050_getWaitForExternalSensorEnabled, .-MPU6050_getWaitForExternalSensorEnabled
 1958              		.section	.text.MPU6050_setWaitForExternalSensorEnabled,"ax",%progbits
 1959              		.align	2
 1960              		.global	MPU6050_setWaitForExternalSensorEnabled
 1961              		.thumb
 1962              		.thumb_func
 1963              		.type	MPU6050_setWaitForExternalSensorEnabled, %function
 1964              	MPU6050_setWaitForExternalSensorEnabled:
 1965              	.LFB55:
ARM GAS  C:\Users\Michael\AppData\Local\Temp\ccvFrowP.s 			page 49


 772:.\mpu6050.c   **** /** Set wait-for-external-sensor-data enabled value.
 773:.\mpu6050.c   ****  * @param enabled New wait-for-external-sensor-data enabled value
 774:.\mpu6050.c   ****  * @see getWaitForExternalSensorEnabled()
 775:.\mpu6050.c   ****  * @see MPU6050_RA_I2C_MST_CTRL
 776:.\mpu6050.c   ****  */
 777:.\mpu6050.c   **** void MPU6050_setWaitForExternalSensorEnabled(bool enabled) {
 1966              		.loc 1 777 0
 1967              		.cfi_startproc
 1968              		@ args = 0, pretend = 0, frame = 0
 1969              		@ frame_needed = 0, uses_anonymous_args = 0
 1970              	.LVL102:
 1971 0000 08B5     		push	{r3, lr}
 1972              		.cfi_def_cfa_offset 8
 1973              		.cfi_offset 3, -8
 1974              		.cfi_offset 14, -4
 1975 0002 0346     		mov	r3, r0
 778:.\mpu6050.c   ****     I2CWriteBit(devAddr, MPU6050_RA_I2C_MST_CTRL, MPU6050_WAIT_FOR_ES_BIT, enabled);
 1976              		.loc 1 778 0
 1977 0004 034A     		ldr	r2, .L213
 1978 0006 1078     		ldrb	r0, [r2]	@ zero_extendqisi2
 1979              	.LVL103:
 1980 0008 2421     		movs	r1, #36
 1981 000a 0622     		movs	r2, #6
 1982 000c FFF7FEFF 		bl	I2CWriteBit
 1983              	.LVL104:
 1984 0010 08BD     		pop	{r3, pc}
 1985              	.L214:
 1986 0012 00BF     		.align	2
 1987              	.L213:
 1988 0014 00000000 		.word	devAddr
 1989              		.cfi_endproc
 1990              	.LFE55:
 1991              		.size	MPU6050_setWaitForExternalSensorEnabled, .-MPU6050_setWaitForExternalSensorEnabled
 1992              		.section	.text.MPU6050_getSlave3FIFOEnabled,"ax",%progbits
 1993              		.align	2
 1994              		.global	MPU6050_getSlave3FIFOEnabled
 1995              		.thumb
 1996              		.thumb_func
 1997              		.type	MPU6050_getSlave3FIFOEnabled, %function
 1998              	MPU6050_getSlave3FIFOEnabled:
 1999              	.LFB56:
 779:.\mpu6050.c   **** }
 780:.\mpu6050.c   **** /** Get Slave 3 FIFO enabled value.
 781:.\mpu6050.c   ****  * When set to 1, this bit enables EXT_SENS_DATA registers (Registers 73 to 96)
 782:.\mpu6050.c   ****  * associated with Slave 3 to be written into the FIFO buffer.
 783:.\mpu6050.c   ****  * @return Current Slave 3 FIFO enabled value
 784:.\mpu6050.c   ****  * @see MPU6050_RA_MST_CTRL
 785:.\mpu6050.c   ****  */
 786:.\mpu6050.c   **** bool MPU6050_getSlave3FIFOEnabled() {
 2000              		.loc 1 786 0
 2001              		.cfi_startproc
 2002              		@ args = 0, pretend = 0, frame = 0
 2003              		@ frame_needed = 0, uses_anonymous_args = 0
 2004 0000 10B5     		push	{r4, lr}
 2005              		.cfi_def_cfa_offset 8
 2006              		.cfi_offset 4, -8
 2007              		.cfi_offset 14, -4
ARM GAS  C:\Users\Michael\AppData\Local\Temp\ccvFrowP.s 			page 50


 787:.\mpu6050.c   ****     I2CReadBit(devAddr, MPU6050_RA_I2C_MST_CTRL, MPU6050_SLV_3_FIFO_EN_BIT, buffer);
 2008              		.loc 1 787 0
 2009 0002 064C     		ldr	r4, .L217
 2010 0004 064B     		ldr	r3, .L217+4
 2011 0006 1878     		ldrb	r0, [r3]	@ zero_extendqisi2
 2012 0008 2421     		movs	r1, #36
 2013 000a 0522     		movs	r2, #5
 2014 000c 2346     		mov	r3, r4
 2015 000e FFF7FEFF 		bl	I2CReadBit
 2016              	.LVL105:
 788:.\mpu6050.c   ****     return buffer[0];
 2017              		.loc 1 788 0
 2018 0012 2078     		ldrb	r0, [r4]	@ zero_extendqisi2
 789:.\mpu6050.c   **** }
 2019              		.loc 1 789 0
 2020 0014 0030     		adds	r0, r0, #0
 2021 0016 18BF     		it	ne
 2022 0018 0120     		movne	r0, #1
 2023 001a 10BD     		pop	{r4, pc}
 2024              	.L218:
 2025              		.align	2
 2026              	.L217:
 2027 001c 00000000 		.word	buffer
 2028 0020 00000000 		.word	devAddr
 2029              		.cfi_endproc
 2030              	.LFE56:
 2031              		.size	MPU6050_getSlave3FIFOEnabled, .-MPU6050_getSlave3FIFOEnabled
 2032              		.section	.text.MPU6050_setSlave3FIFOEnabled,"ax",%progbits
 2033              		.align	2
 2034              		.global	MPU6050_setSlave3FIFOEnabled
 2035              		.thumb
 2036              		.thumb_func
 2037              		.type	MPU6050_setSlave3FIFOEnabled, %function
 2038              	MPU6050_setSlave3FIFOEnabled:
 2039              	.LFB57:
 790:.\mpu6050.c   **** /** Set Slave 3 FIFO enabled value.
 791:.\mpu6050.c   ****  * @param enabled New Slave 3 FIFO enabled value
 792:.\mpu6050.c   ****  * @see getSlave3FIFOEnabled()
 793:.\mpu6050.c   ****  * @see MPU6050_RA_MST_CTRL
 794:.\mpu6050.c   ****  */
 795:.\mpu6050.c   **** void MPU6050_setSlave3FIFOEnabled(bool enabled) {
 2040              		.loc 1 795 0
 2041              		.cfi_startproc
 2042              		@ args = 0, pretend = 0, frame = 0
 2043              		@ frame_needed = 0, uses_anonymous_args = 0
 2044              	.LVL106:
 2045 0000 08B5     		push	{r3, lr}
 2046              		.cfi_def_cfa_offset 8
 2047              		.cfi_offset 3, -8
 2048              		.cfi_offset 14, -4
 2049 0002 0346     		mov	r3, r0
 796:.\mpu6050.c   ****     I2CWriteBit(devAddr, MPU6050_RA_I2C_MST_CTRL, MPU6050_SLV_3_FIFO_EN_BIT, enabled);
 2050              		.loc 1 796 0
 2051 0004 034A     		ldr	r2, .L221
 2052 0006 1078     		ldrb	r0, [r2]	@ zero_extendqisi2
 2053              	.LVL107:
 2054 0008 2421     		movs	r1, #36
ARM GAS  C:\Users\Michael\AppData\Local\Temp\ccvFrowP.s 			page 51


 2055 000a 0522     		movs	r2, #5
 2056 000c FFF7FEFF 		bl	I2CWriteBit
 2057              	.LVL108:
 2058 0010 08BD     		pop	{r3, pc}
 2059              	.L222:
 2060 0012 00BF     		.align	2
 2061              	.L221:
 2062 0014 00000000 		.word	devAddr
 2063              		.cfi_endproc
 2064              	.LFE57:
 2065              		.size	MPU6050_setSlave3FIFOEnabled, .-MPU6050_setSlave3FIFOEnabled
 2066              		.section	.text.MPU6050_getSlaveReadWriteTransitionEnabled,"ax",%progbits
 2067              		.align	2
 2068              		.global	MPU6050_getSlaveReadWriteTransitionEnabled
 2069              		.thumb
 2070              		.thumb_func
 2071              		.type	MPU6050_getSlaveReadWriteTransitionEnabled, %function
 2072              	MPU6050_getSlaveReadWriteTransitionEnabled:
 2073              	.LFB58:
 797:.\mpu6050.c   **** }
 798:.\mpu6050.c   **** /** Get slave read/write transition enabled value.
 799:.\mpu6050.c   ****  * The I2C_MST_P_NSR bit configures the I2C Master's transition from one slave
 800:.\mpu6050.c   ****  * read to the next slave read. If the bit equals 0, there will be a restart
 801:.\mpu6050.c   ****  * between reads. If the bit equals 1, there will be a stop followed by a start
 802:.\mpu6050.c   ****  * of the following read. When a write transaction follows a read transaction,
 803:.\mpu6050.c   ****  * the stop followed by a start of the successive write will be always used.
 804:.\mpu6050.c   ****  *
 805:.\mpu6050.c   ****  * @return Current slave read/write transition enabled value
 806:.\mpu6050.c   ****  * @see MPU6050_RA_I2C_MST_CTRL
 807:.\mpu6050.c   ****  */
 808:.\mpu6050.c   **** bool MPU6050_getSlaveReadWriteTransitionEnabled() {
 2074              		.loc 1 808 0
 2075              		.cfi_startproc
 2076              		@ args = 0, pretend = 0, frame = 0
 2077              		@ frame_needed = 0, uses_anonymous_args = 0
 2078 0000 10B5     		push	{r4, lr}
 2079              		.cfi_def_cfa_offset 8
 2080              		.cfi_offset 4, -8
 2081              		.cfi_offset 14, -4
 809:.\mpu6050.c   ****     I2CReadBit(devAddr, MPU6050_RA_I2C_MST_CTRL, I2C_MPU6050_I2C_MST_P_NSR_BIT, buffer);
 2082              		.loc 1 809 0
 2083 0002 064C     		ldr	r4, .L225
 2084 0004 064B     		ldr	r3, .L225+4
 2085 0006 1878     		ldrb	r0, [r3]	@ zero_extendqisi2
 2086 0008 2421     		movs	r1, #36
 2087 000a 0422     		movs	r2, #4
 2088 000c 2346     		mov	r3, r4
 2089 000e FFF7FEFF 		bl	I2CReadBit
 2090              	.LVL109:
 810:.\mpu6050.c   ****     return buffer[0];
 2091              		.loc 1 810 0
 2092 0012 2078     		ldrb	r0, [r4]	@ zero_extendqisi2
 811:.\mpu6050.c   **** }
 2093              		.loc 1 811 0
 2094 0014 0030     		adds	r0, r0, #0
 2095 0016 18BF     		it	ne
 2096 0018 0120     		movne	r0, #1
ARM GAS  C:\Users\Michael\AppData\Local\Temp\ccvFrowP.s 			page 52


 2097 001a 10BD     		pop	{r4, pc}
 2098              	.L226:
 2099              		.align	2
 2100              	.L225:
 2101 001c 00000000 		.word	buffer
 2102 0020 00000000 		.word	devAddr
 2103              		.cfi_endproc
 2104              	.LFE58:
 2105              		.size	MPU6050_getSlaveReadWriteTransitionEnabled, .-MPU6050_getSlaveReadWriteTransitionEnabled
 2106              		.section	.text.MPU6050_setSlaveReadWriteTransitionEnabled,"ax",%progbits
 2107              		.align	2
 2108              		.global	MPU6050_setSlaveReadWriteTransitionEnabled
 2109              		.thumb
 2110              		.thumb_func
 2111              		.type	MPU6050_setSlaveReadWriteTransitionEnabled, %function
 2112              	MPU6050_setSlaveReadWriteTransitionEnabled:
 2113              	.LFB59:
 812:.\mpu6050.c   **** /** Set slave read/write transition enabled value.
 813:.\mpu6050.c   ****  * @param enabled New slave read/write transition enabled value
 814:.\mpu6050.c   ****  * @see getSlaveReadWriteTransitionEnabled()
 815:.\mpu6050.c   ****  * @see MPU6050_RA_I2C_MST_CTRL
 816:.\mpu6050.c   ****  */
 817:.\mpu6050.c   **** void MPU6050_setSlaveReadWriteTransitionEnabled(bool enabled) {
 2114              		.loc 1 817 0
 2115              		.cfi_startproc
 2116              		@ args = 0, pretend = 0, frame = 0
 2117              		@ frame_needed = 0, uses_anonymous_args = 0
 2118              	.LVL110:
 2119 0000 08B5     		push	{r3, lr}
 2120              		.cfi_def_cfa_offset 8
 2121              		.cfi_offset 3, -8
 2122              		.cfi_offset 14, -4
 2123 0002 0346     		mov	r3, r0
 818:.\mpu6050.c   ****     I2CWriteBit(devAddr, MPU6050_RA_I2C_MST_CTRL, I2C_MPU6050_I2C_MST_P_NSR_BIT, enabled);
 2124              		.loc 1 818 0
 2125 0004 034A     		ldr	r2, .L229
 2126 0006 1078     		ldrb	r0, [r2]	@ zero_extendqisi2
 2127              	.LVL111:
 2128 0008 2421     		movs	r1, #36
 2129 000a 0422     		movs	r2, #4
 2130 000c FFF7FEFF 		bl	I2CWriteBit
 2131              	.LVL112:
 2132 0010 08BD     		pop	{r3, pc}
 2133              	.L230:
 2134 0012 00BF     		.align	2
 2135              	.L229:
 2136 0014 00000000 		.word	devAddr
 2137              		.cfi_endproc
 2138              	.LFE59:
 2139              		.size	MPU6050_setSlaveReadWriteTransitionEnabled, .-MPU6050_setSlaveReadWriteTransitionEnabled
 2140              		.section	.text.MPU6050_getMasterClockSpeed,"ax",%progbits
 2141              		.align	2
 2142              		.global	MPU6050_getMasterClockSpeed
 2143              		.thumb
 2144              		.thumb_func
 2145              		.type	MPU6050_getMasterClockSpeed, %function
 2146              	MPU6050_getMasterClockSpeed:
ARM GAS  C:\Users\Michael\AppData\Local\Temp\ccvFrowP.s 			page 53


 2147              	.LFB60:
 819:.\mpu6050.c   **** }
 820:.\mpu6050.c   **** /** Get I2C master clock speed.
 821:.\mpu6050.c   ****  * I2C_MST_CLK is a 4 bit unsigned value which configures a divider on the
 822:.\mpu6050.c   ****  * MPU-60X0 internal 8MHz clock. It sets the I2C master clock speed according to
 823:.\mpu6050.c   ****  * the following table:
 824:.\mpu6050.c   ****  *
 825:.\mpu6050.c   ****  * <pre>
 826:.\mpu6050.c   ****  * I2C_MST_CLK | I2C Master Clock Speed | 8MHz Clock Divider
 827:.\mpu6050.c   ****  * ------------+------------------------+-------------------
 828:.\mpu6050.c   ****  * 0           | 348kHz                 | 23
 829:.\mpu6050.c   ****  * 1           | 333kHz                 | 24
 830:.\mpu6050.c   ****  * 2           | 320kHz                 | 25
 831:.\mpu6050.c   ****  * 3           | 308kHz                 | 26
 832:.\mpu6050.c   ****  * 4           | 296kHz                 | 27
 833:.\mpu6050.c   ****  * 5           | 286kHz                 | 28
 834:.\mpu6050.c   ****  * 6           | 276kHz                 | 29
 835:.\mpu6050.c   ****  * 7           | 267kHz                 | 30
 836:.\mpu6050.c   ****  * 8           | 258kHz                 | 31
 837:.\mpu6050.c   ****  * 9           | 500kHz                 | 16
 838:.\mpu6050.c   ****  * 10          | 471kHz                 | 17
 839:.\mpu6050.c   ****  * 11          | 444kHz                 | 18
 840:.\mpu6050.c   ****  * 12          | 421kHz                 | 19
 841:.\mpu6050.c   ****  * 13          | 400kHz                 | 20
 842:.\mpu6050.c   ****  * 14          | 381kHz                 | 21
 843:.\mpu6050.c   ****  * 15          | 364kHz                 | 22
 844:.\mpu6050.c   ****  * </pre>
 845:.\mpu6050.c   ****  *
 846:.\mpu6050.c   ****  * @return Current I2C master clock speed
 847:.\mpu6050.c   ****  * @see MPU6050_RA_I2C_MST_CTRL
 848:.\mpu6050.c   ****  */
 849:.\mpu6050.c   **** uint8_t MPU6050_getMasterClockSpeed() {
 2148              		.loc 1 849 0
 2149              		.cfi_startproc
 2150              		@ args = 0, pretend = 0, frame = 0
 2151              		@ frame_needed = 0, uses_anonymous_args = 0
 2152 0000 10B5     		push	{r4, lr}
 2153              		.cfi_def_cfa_offset 8
 2154              		.cfi_offset 4, -8
 2155              		.cfi_offset 14, -4
 2156 0002 82B0     		sub	sp, sp, #8
 2157              		.cfi_def_cfa_offset 16
 850:.\mpu6050.c   ****     I2CReadBits(devAddr, MPU6050_RA_I2C_MST_CTRL, I2C_MPU6050_I2C_MST_CLK_BIT, I2C_MPU6050_I2C_MST_
 2158              		.loc 1 850 0
 2159 0004 054B     		ldr	r3, .L233
 2160 0006 1878     		ldrb	r0, [r3]	@ zero_extendqisi2
 2161 0008 054C     		ldr	r4, .L233+4
 2162 000a 0094     		str	r4, [sp]
 2163 000c 2421     		movs	r1, #36
 2164 000e 0322     		movs	r2, #3
 2165 0010 0423     		movs	r3, #4
 2166 0012 FFF7FEFF 		bl	I2CReadBits
 2167              	.LVL113:
 851:.\mpu6050.c   ****     return buffer[0];
 852:.\mpu6050.c   **** }
 2168              		.loc 1 852 0
 2169 0016 2078     		ldrb	r0, [r4]	@ zero_extendqisi2
ARM GAS  C:\Users\Michael\AppData\Local\Temp\ccvFrowP.s 			page 54


 2170 0018 02B0     		add	sp, sp, #8
 2171              		.cfi_def_cfa_offset 8
 2172              		@ sp needed
 2173 001a 10BD     		pop	{r4, pc}
 2174              	.L234:
 2175              		.align	2
 2176              	.L233:
 2177 001c 00000000 		.word	devAddr
 2178 0020 00000000 		.word	buffer
 2179              		.cfi_endproc
 2180              	.LFE60:
 2181              		.size	MPU6050_getMasterClockSpeed, .-MPU6050_getMasterClockSpeed
 2182              		.section	.text.MPU6050_setMasterClockSpeed,"ax",%progbits
 2183              		.align	2
 2184              		.global	MPU6050_setMasterClockSpeed
 2185              		.thumb
 2186              		.thumb_func
 2187              		.type	MPU6050_setMasterClockSpeed, %function
 2188              	MPU6050_setMasterClockSpeed:
 2189              	.LFB61:
 853:.\mpu6050.c   **** /** Set I2C master clock speed.
 854:.\mpu6050.c   ****  * @reparam speed Current I2C master clock speed
 855:.\mpu6050.c   ****  * @see MPU6050_RA_I2C_MST_CTRL
 856:.\mpu6050.c   ****  */
 857:.\mpu6050.c   **** void MPU6050_setMasterClockSpeed(uint8_t speed) {
 2190              		.loc 1 857 0
 2191              		.cfi_startproc
 2192              		@ args = 0, pretend = 0, frame = 0
 2193              		@ frame_needed = 0, uses_anonymous_args = 0
 2194              	.LVL114:
 2195 0000 00B5     		push	{lr}
 2196              		.cfi_def_cfa_offset 4
 2197              		.cfi_offset 14, -4
 2198 0002 83B0     		sub	sp, sp, #12
 2199              		.cfi_def_cfa_offset 16
 858:.\mpu6050.c   ****     I2CWriteBits(devAddr, MPU6050_RA_I2C_MST_CTRL, I2C_MPU6050_I2C_MST_CLK_BIT, I2C_MPU6050_I2C_MST
 2200              		.loc 1 858 0
 2201 0004 054B     		ldr	r3, .L237
 2202 0006 1B78     		ldrb	r3, [r3]	@ zero_extendqisi2
 2203 0008 0090     		str	r0, [sp]
 2204 000a 1846     		mov	r0, r3
 2205              	.LVL115:
 2206 000c 2421     		movs	r1, #36
 2207 000e 0322     		movs	r2, #3
 2208 0010 0423     		movs	r3, #4
 2209 0012 FFF7FEFF 		bl	I2CWriteBits
 2210              	.LVL116:
 859:.\mpu6050.c   **** }
 2211              		.loc 1 859 0
 2212 0016 03B0     		add	sp, sp, #12
 2213              		.cfi_def_cfa_offset 4
 2214              		@ sp needed
 2215 0018 5DF804FB 		ldr	pc, [sp], #4
 2216              	.L238:
 2217              		.align	2
 2218              	.L237:
 2219 001c 00000000 		.word	devAddr
ARM GAS  C:\Users\Michael\AppData\Local\Temp\ccvFrowP.s 			page 55


 2220              		.cfi_endproc
 2221              	.LFE61:
 2222              		.size	MPU6050_setMasterClockSpeed, .-MPU6050_setMasterClockSpeed
 2223              		.section	.text.MPU6050_getSlaveAddress,"ax",%progbits
 2224              		.align	2
 2225              		.global	MPU6050_getSlaveAddress
 2226              		.thumb
 2227              		.thumb_func
 2228              		.type	MPU6050_getSlaveAddress, %function
 2229              	MPU6050_getSlaveAddress:
 2230              	.LFB62:
 860:.\mpu6050.c   **** 
 861:.\mpu6050.c   **** // I2C_SLV* registers (Slave 0-3)
 862:.\mpu6050.c   **** 
 863:.\mpu6050.c   **** /** Get the I2C address of the specified slave (0-3).
 864:.\mpu6050.c   ****  * Note that Bit 7 (MSB) controls read/write mode. If Bit 7 is set, it's a read
 865:.\mpu6050.c   ****  * operation, and if it is cleared, then it's a write operation. The remaining
 866:.\mpu6050.c   ****  * bits (6-0) are the 7-bit device address of the slave device.
 867:.\mpu6050.c   ****  *
 868:.\mpu6050.c   ****  * In read mode, the result of the read is placed in the lowest available 
 869:.\mpu6050.c   ****  * EXT_SENS_DATA register. For further information regarding the allocation of
 870:.\mpu6050.c   ****  * read results, please refer to the EXT_SENS_DATA register description
 871:.\mpu6050.c   ****  * (Registers 73 - 96).
 872:.\mpu6050.c   ****  *
 873:.\mpu6050.c   ****  * The MPU-6050 supports a total of five slaves, but Slave 4 has unique
 874:.\mpu6050.c   ****  * characteristics, and so it has its own functions (getSlave4* and setSlave4*).
 875:.\mpu6050.c   ****  *
 876:.\mpu6050.c   ****  * I2C data transactions are performed at the Sample Rate, as defined in
 877:.\mpu6050.c   ****  * Register 25. The user is responsible for ensuring that I2C data transactions
 878:.\mpu6050.c   ****  * to and from each enabled Slave can be completed within a single period of the
 879:.\mpu6050.c   ****  * Sample Rate.
 880:.\mpu6050.c   ****  *
 881:.\mpu6050.c   ****  * The I2C slave access rate can be reduced relative to the Sample Rate. This
 882:.\mpu6050.c   ****  * reduced access rate is determined by I2C_MST_DLY (Register 52). Whether a
 883:.\mpu6050.c   ****  * slave's access rate is reduced relative to the Sample Rate is determined by
 884:.\mpu6050.c   ****  * I2C_MST_DELAY_CTRL (Register 103).
 885:.\mpu6050.c   ****  *
 886:.\mpu6050.c   ****  * The processing order for the slaves is fixed. The sequence followed for
 887:.\mpu6050.c   ****  * processing the slaves is Slave 0, Slave 1, Slave 2, Slave 3 and Slave 4. If a
 888:.\mpu6050.c   ****  * particular Slave is disabled it will be skipped.
 889:.\mpu6050.c   ****  *
 890:.\mpu6050.c   ****  * Each slave can either be accessed at the sample rate or at a reduced sample
 891:.\mpu6050.c   ****  * rate. In a case where some slaves are accessed at the Sample Rate and some
 892:.\mpu6050.c   ****  * slaves are accessed at the reduced rate, the sequence of accessing the slaves
 893:.\mpu6050.c   ****  * (Slave 0 to Slave 4) is still followed. However, the reduced rate slaves will
 894:.\mpu6050.c   ****  * be skipped if their access rate dictates that they should not be accessed
 895:.\mpu6050.c   ****  * during that particular cycle. For further information regarding the reduced
 896:.\mpu6050.c   ****  * access rate, please refer to Register 52. Whether a slave is accessed at the
 897:.\mpu6050.c   ****  * Sample Rate or at the reduced rate is determined by the Delay Enable bits in
 898:.\mpu6050.c   ****  * Register 103.
 899:.\mpu6050.c   ****  *
 900:.\mpu6050.c   ****  * @param num Slave number (0-3)
 901:.\mpu6050.c   ****  * @return Current address for specified slave
 902:.\mpu6050.c   ****  * @see MPU6050_RA_I2C_SLV0_ADDR
 903:.\mpu6050.c   ****  */
 904:.\mpu6050.c   **** uint8_t MPU6050_getSlaveAddress(uint8_t num) {
 2231              		.loc 1 904 0
ARM GAS  C:\Users\Michael\AppData\Local\Temp\ccvFrowP.s 			page 56


 2232              		.cfi_startproc
 2233              		@ args = 0, pretend = 0, frame = 0
 2234              		@ frame_needed = 0, uses_anonymous_args = 0
 2235              	.LVL117:
 905:.\mpu6050.c   ****     if (num > 3) return 0;
 2236              		.loc 1 905 0
 2237 0000 0328     		cmp	r0, #3
 2238 0002 0DD8     		bhi	.L241
 904:.\mpu6050.c   ****     if (num > 3) return 0;
 2239              		.loc 1 904 0
 2240 0004 10B5     		push	{r4, lr}
 2241              		.cfi_def_cfa_offset 8
 2242              		.cfi_offset 4, -8
 2243              		.cfi_offset 14, -4
 906:.\mpu6050.c   ****     I2CReadByte(devAddr, MPU6050_RA_I2C_SLV0_ADDR + num*3, buffer);
 2244              		.loc 1 906 0
 2245 0006 00EB4000 		add	r0, r0, r0, lsl #1
 2246              	.LVL118:
 2247 000a 00F12501 		add	r1, r0, #37
 2248 000e 054C     		ldr	r4, .L244
 2249 0010 054B     		ldr	r3, .L244+4
 2250 0012 1878     		ldrb	r0, [r3]	@ zero_extendqisi2
 2251 0014 C9B2     		uxtb	r1, r1
 2252 0016 2246     		mov	r2, r4
 2253 0018 FFF7FEFF 		bl	I2CReadByte
 2254              	.LVL119:
 907:.\mpu6050.c   ****     return buffer[0];
 2255              		.loc 1 907 0
 2256 001c 2078     		ldrb	r0, [r4]	@ zero_extendqisi2
 2257 001e 10BD     		pop	{r4, pc}
 2258              	.LVL120:
 2259              	.L241:
 2260              		.cfi_def_cfa_offset 0
 2261              		.cfi_restore 4
 2262              		.cfi_restore 14
 905:.\mpu6050.c   ****     I2CReadByte(devAddr, MPU6050_RA_I2C_SLV0_ADDR + num*3, buffer);
 2263              		.loc 1 905 0
 2264 0020 0020     		movs	r0, #0
 2265              	.LVL121:
 2266 0022 7047     		bx	lr
 2267              	.L245:
 2268              		.align	2
 2269              	.L244:
 2270 0024 00000000 		.word	buffer
 2271 0028 00000000 		.word	devAddr
 2272              		.cfi_endproc
 2273              	.LFE62:
 2274              		.size	MPU6050_getSlaveAddress, .-MPU6050_getSlaveAddress
 2275              		.section	.text.MPU6050_setSlaveAddress,"ax",%progbits
 2276              		.align	2
 2277              		.global	MPU6050_setSlaveAddress
 2278              		.thumb
 2279              		.thumb_func
 2280              		.type	MPU6050_setSlaveAddress, %function
 2281              	MPU6050_setSlaveAddress:
 2282              	.LFB63:
 908:.\mpu6050.c   **** }
ARM GAS  C:\Users\Michael\AppData\Local\Temp\ccvFrowP.s 			page 57


 909:.\mpu6050.c   **** /** Set the I2C address of the specified slave (0-3).
 910:.\mpu6050.c   ****  * @param num Slave number (0-3)
 911:.\mpu6050.c   ****  * @param address New address for specified slave
 912:.\mpu6050.c   ****  * @see getSlaveAddress()
 913:.\mpu6050.c   ****  * @see MPU6050_RA_I2C_SLV0_ADDR
 914:.\mpu6050.c   ****  */
 915:.\mpu6050.c   **** void MPU6050_setSlaveAddress(uint8_t num, uint8_t address) {
 2283              		.loc 1 915 0
 2284              		.cfi_startproc
 2285              		@ args = 0, pretend = 0, frame = 0
 2286              		@ frame_needed = 0, uses_anonymous_args = 0
 2287              	.LVL122:
 916:.\mpu6050.c   ****     if (num > 3) return;
 2288              		.loc 1 916 0
 2289 0000 0328     		cmp	r0, #3
 2290 0002 0BD8     		bhi	.L249
 915:.\mpu6050.c   ****     if (num > 3) return;
 2291              		.loc 1 915 0
 2292 0004 08B5     		push	{r3, lr}
 2293              		.cfi_def_cfa_offset 8
 2294              		.cfi_offset 3, -8
 2295              		.cfi_offset 14, -4
 2296 0006 0A46     		mov	r2, r1
 917:.\mpu6050.c   ****     I2CWriteByte(devAddr, MPU6050_RA_I2C_SLV0_ADDR + num*3, address);
 2297              		.loc 1 917 0
 2298 0008 00EB4000 		add	r0, r0, r0, lsl #1
 2299              	.LVL123:
 2300 000c 00F12503 		add	r3, r0, #37
 2301 0010 0349     		ldr	r1, .L250
 2302              	.LVL124:
 2303 0012 0878     		ldrb	r0, [r1]	@ zero_extendqisi2
 2304 0014 D9B2     		uxtb	r1, r3
 2305 0016 FFF7FEFF 		bl	I2CWriteByte
 2306              	.LVL125:
 2307 001a 08BD     		pop	{r3, pc}
 2308              	.LVL126:
 2309              	.L249:
 2310              		.cfi_def_cfa_offset 0
 2311              		.cfi_restore 3
 2312              		.cfi_restore 14
 2313 001c 7047     		bx	lr
 2314              	.L251:
 2315 001e 00BF     		.align	2
 2316              	.L250:
 2317 0020 00000000 		.word	devAddr
 2318              		.cfi_endproc
 2319              	.LFE63:
 2320              		.size	MPU6050_setSlaveAddress, .-MPU6050_setSlaveAddress
 2321              		.section	.text.MPU6050_getSlaveRegister,"ax",%progbits
 2322              		.align	2
 2323              		.global	MPU6050_getSlaveRegister
 2324              		.thumb
 2325              		.thumb_func
 2326              		.type	MPU6050_getSlaveRegister, %function
 2327              	MPU6050_getSlaveRegister:
 2328              	.LFB64:
 918:.\mpu6050.c   **** }
ARM GAS  C:\Users\Michael\AppData\Local\Temp\ccvFrowP.s 			page 58


 919:.\mpu6050.c   **** /** Get the active internal register for the specified slave (0-3).
 920:.\mpu6050.c   ****  * Read/write operations for this slave will be done to whatever internal
 921:.\mpu6050.c   ****  * register address is stored in this MPU register.
 922:.\mpu6050.c   ****  *
 923:.\mpu6050.c   ****  * The MPU-6050 supports a total of five slaves, but Slave 4 has unique
 924:.\mpu6050.c   ****  * characteristics, and so it has its own functions.
 925:.\mpu6050.c   ****  *
 926:.\mpu6050.c   ****  * @param num Slave number (0-3)
 927:.\mpu6050.c   ****  * @return Current active register for specified slave
 928:.\mpu6050.c   ****  * @see MPU6050_RA_I2C_SLV0_REG
 929:.\mpu6050.c   ****  */
 930:.\mpu6050.c   **** uint8_t MPU6050_getSlaveRegister(uint8_t num) {
 2329              		.loc 1 930 0
 2330              		.cfi_startproc
 2331              		@ args = 0, pretend = 0, frame = 0
 2332              		@ frame_needed = 0, uses_anonymous_args = 0
 2333              	.LVL127:
 931:.\mpu6050.c   ****     if (num > 3) return 0;
 2334              		.loc 1 931 0
 2335 0000 0328     		cmp	r0, #3
 2336 0002 0DD8     		bhi	.L254
 930:.\mpu6050.c   ****     if (num > 3) return 0;
 2337              		.loc 1 930 0
 2338 0004 10B5     		push	{r4, lr}
 2339              		.cfi_def_cfa_offset 8
 2340              		.cfi_offset 4, -8
 2341              		.cfi_offset 14, -4
 932:.\mpu6050.c   ****     I2CReadByte(devAddr, MPU6050_RA_I2C_SLV0_REG + num*3, buffer);
 2342              		.loc 1 932 0
 2343 0006 00EB4000 		add	r0, r0, r0, lsl #1
 2344              	.LVL128:
 2345 000a 00F12601 		add	r1, r0, #38
 2346 000e 054C     		ldr	r4, .L257
 2347 0010 054B     		ldr	r3, .L257+4
 2348 0012 1878     		ldrb	r0, [r3]	@ zero_extendqisi2
 2349 0014 C9B2     		uxtb	r1, r1
 2350 0016 2246     		mov	r2, r4
 2351 0018 FFF7FEFF 		bl	I2CReadByte
 2352              	.LVL129:
 933:.\mpu6050.c   ****     return buffer[0];
 2353              		.loc 1 933 0
 2354 001c 2078     		ldrb	r0, [r4]	@ zero_extendqisi2
 2355 001e 10BD     		pop	{r4, pc}
 2356              	.LVL130:
 2357              	.L254:
 2358              		.cfi_def_cfa_offset 0
 2359              		.cfi_restore 4
 2360              		.cfi_restore 14
 931:.\mpu6050.c   ****     I2CReadByte(devAddr, MPU6050_RA_I2C_SLV0_REG + num*3, buffer);
 2361              		.loc 1 931 0
 2362 0020 0020     		movs	r0, #0
 2363              	.LVL131:
 2364 0022 7047     		bx	lr
 2365              	.L258:
 2366              		.align	2
 2367              	.L257:
 2368 0024 00000000 		.word	buffer
ARM GAS  C:\Users\Michael\AppData\Local\Temp\ccvFrowP.s 			page 59


 2369 0028 00000000 		.word	devAddr
 2370              		.cfi_endproc
 2371              	.LFE64:
 2372              		.size	MPU6050_getSlaveRegister, .-MPU6050_getSlaveRegister
 2373              		.section	.text.MPU6050_setSlaveRegister,"ax",%progbits
 2374              		.align	2
 2375              		.global	MPU6050_setSlaveRegister
 2376              		.thumb
 2377              		.thumb_func
 2378              		.type	MPU6050_setSlaveRegister, %function
 2379              	MPU6050_setSlaveRegister:
 2380              	.LFB65:
 934:.\mpu6050.c   **** }
 935:.\mpu6050.c   **** /** Set the active internal register for the specified slave (0-3).
 936:.\mpu6050.c   ****  * @param num Slave number (0-3)
 937:.\mpu6050.c   ****  * @param reg New active register for specified slave
 938:.\mpu6050.c   ****  * @see getSlaveRegister()
 939:.\mpu6050.c   ****  * @see MPU6050_RA_I2C_SLV0_REG
 940:.\mpu6050.c   ****  */
 941:.\mpu6050.c   **** void MPU6050_setSlaveRegister(uint8_t num, uint8_t reg) {
 2381              		.loc 1 941 0
 2382              		.cfi_startproc
 2383              		@ args = 0, pretend = 0, frame = 0
 2384              		@ frame_needed = 0, uses_anonymous_args = 0
 2385              	.LVL132:
 942:.\mpu6050.c   ****     if (num > 3) return;
 2386              		.loc 1 942 0
 2387 0000 0328     		cmp	r0, #3
 2388 0002 0BD8     		bhi	.L262
 941:.\mpu6050.c   ****     if (num > 3) return;
 2389              		.loc 1 941 0
 2390 0004 08B5     		push	{r3, lr}
 2391              		.cfi_def_cfa_offset 8
 2392              		.cfi_offset 3, -8
 2393              		.cfi_offset 14, -4
 2394 0006 0A46     		mov	r2, r1
 943:.\mpu6050.c   ****     I2CWriteByte(devAddr, MPU6050_RA_I2C_SLV0_REG + num*3, reg);
 2395              		.loc 1 943 0
 2396 0008 00EB4000 		add	r0, r0, r0, lsl #1
 2397              	.LVL133:
 2398 000c 00F12603 		add	r3, r0, #38
 2399 0010 0349     		ldr	r1, .L263
 2400              	.LVL134:
 2401 0012 0878     		ldrb	r0, [r1]	@ zero_extendqisi2
 2402 0014 D9B2     		uxtb	r1, r3
 2403 0016 FFF7FEFF 		bl	I2CWriteByte
 2404              	.LVL135:
 2405 001a 08BD     		pop	{r3, pc}
 2406              	.LVL136:
 2407              	.L262:
 2408              		.cfi_def_cfa_offset 0
 2409              		.cfi_restore 3
 2410              		.cfi_restore 14
 2411 001c 7047     		bx	lr
 2412              	.L264:
 2413 001e 00BF     		.align	2
 2414              	.L263:
ARM GAS  C:\Users\Michael\AppData\Local\Temp\ccvFrowP.s 			page 60


 2415 0020 00000000 		.word	devAddr
 2416              		.cfi_endproc
 2417              	.LFE65:
 2418              		.size	MPU6050_setSlaveRegister, .-MPU6050_setSlaveRegister
 2419              		.section	.text.MPU6050_getSlaveEnabled,"ax",%progbits
 2420              		.align	2
 2421              		.global	MPU6050_getSlaveEnabled
 2422              		.thumb
 2423              		.thumb_func
 2424              		.type	MPU6050_getSlaveEnabled, %function
 2425              	MPU6050_getSlaveEnabled:
 2426              	.LFB66:
 944:.\mpu6050.c   **** }
 945:.\mpu6050.c   **** /** Get the enabled value for the specified slave (0-3).
 946:.\mpu6050.c   ****  * When set to 1, this bit enables Slave 0 for data transfer operations. When
 947:.\mpu6050.c   ****  * cleared to 0, this bit disables Slave 0 from data transfer operations.
 948:.\mpu6050.c   ****  * @param num Slave number (0-3)
 949:.\mpu6050.c   ****  * @return Current enabled value for specified slave
 950:.\mpu6050.c   ****  * @see MPU6050_RA_I2C_SLV0_CTRL
 951:.\mpu6050.c   ****  */
 952:.\mpu6050.c   **** bool MPU6050_getSlaveEnabled(uint8_t num) {
 2427              		.loc 1 952 0
 2428              		.cfi_startproc
 2429              		@ args = 0, pretend = 0, frame = 0
 2430              		@ frame_needed = 0, uses_anonymous_args = 0
 2431              	.LVL137:
 953:.\mpu6050.c   ****     if (num > 3) return 0;
 2432              		.loc 1 953 0
 2433 0000 0328     		cmp	r0, #3
 2434 0002 11D8     		bhi	.L267
 952:.\mpu6050.c   ****     if (num > 3) return 0;
 2435              		.loc 1 952 0
 2436 0004 10B5     		push	{r4, lr}
 2437              		.cfi_def_cfa_offset 8
 2438              		.cfi_offset 4, -8
 2439              		.cfi_offset 14, -4
 954:.\mpu6050.c   ****     I2CReadBit(devAddr, MPU6050_RA_I2C_SLV0_CTRL + num*3, I2C_MPU6050_I2C_SLV_EN_BIT, buffer);
 2440              		.loc 1 954 0
 2441 0006 00EB4000 		add	r0, r0, r0, lsl #1
 2442              	.LVL138:
 2443 000a 00F12701 		add	r1, r0, #39
 2444 000e 074C     		ldr	r4, .L270
 2445 0010 074B     		ldr	r3, .L270+4
 2446 0012 1878     		ldrb	r0, [r3]	@ zero_extendqisi2
 2447 0014 C9B2     		uxtb	r1, r1
 2448 0016 0722     		movs	r2, #7
 2449 0018 2346     		mov	r3, r4
 2450 001a FFF7FEFF 		bl	I2CReadBit
 2451              	.LVL139:
 955:.\mpu6050.c   ****     return buffer[0];
 2452              		.loc 1 955 0
 2453 001e 2078     		ldrb	r0, [r4]	@ zero_extendqisi2
 2454 0020 0030     		adds	r0, r0, #0
 2455 0022 18BF     		it	ne
 2456 0024 0120     		movne	r0, #1
 2457 0026 10BD     		pop	{r4, pc}
 2458              	.LVL140:
ARM GAS  C:\Users\Michael\AppData\Local\Temp\ccvFrowP.s 			page 61


 2459              	.L267:
 2460              		.cfi_def_cfa_offset 0
 2461              		.cfi_restore 4
 2462              		.cfi_restore 14
 953:.\mpu6050.c   ****     I2CReadBit(devAddr, MPU6050_RA_I2C_SLV0_CTRL + num*3, I2C_MPU6050_I2C_SLV_EN_BIT, buffer);
 2463              		.loc 1 953 0
 2464 0028 0020     		movs	r0, #0
 2465              	.LVL141:
 2466 002a 7047     		bx	lr
 2467              	.L271:
 2468              		.align	2
 2469              	.L270:
 2470 002c 00000000 		.word	buffer
 2471 0030 00000000 		.word	devAddr
 2472              		.cfi_endproc
 2473              	.LFE66:
 2474              		.size	MPU6050_getSlaveEnabled, .-MPU6050_getSlaveEnabled
 2475              		.section	.text.MPU6050_setSlaveEnabled,"ax",%progbits
 2476              		.align	2
 2477              		.global	MPU6050_setSlaveEnabled
 2478              		.thumb
 2479              		.thumb_func
 2480              		.type	MPU6050_setSlaveEnabled, %function
 2481              	MPU6050_setSlaveEnabled:
 2482              	.LFB67:
 956:.\mpu6050.c   **** }
 957:.\mpu6050.c   **** /** Set the enabled value for the specified slave (0-3).
 958:.\mpu6050.c   ****  * @param num Slave number (0-3)
 959:.\mpu6050.c   ****  * @param enabled New enabled value for specified slave
 960:.\mpu6050.c   ****  * @see getSlaveEnabled()
 961:.\mpu6050.c   ****  * @see MPU6050_RA_I2C_SLV0_CTRL
 962:.\mpu6050.c   ****  */
 963:.\mpu6050.c   **** void MPU6050_setSlaveEnabled(uint8_t num, bool enabled) {
 2483              		.loc 1 963 0
 2484              		.cfi_startproc
 2485              		@ args = 0, pretend = 0, frame = 0
 2486              		@ frame_needed = 0, uses_anonymous_args = 0
 2487              	.LVL142:
 964:.\mpu6050.c   ****     if (num > 3) return;
 2488              		.loc 1 964 0
 2489 0000 0328     		cmp	r0, #3
 2490 0002 0CD8     		bhi	.L275
 963:.\mpu6050.c   ****     if (num > 3) return;
 2491              		.loc 1 963 0
 2492 0004 08B5     		push	{r3, lr}
 2493              		.cfi_def_cfa_offset 8
 2494              		.cfi_offset 3, -8
 2495              		.cfi_offset 14, -4
 2496 0006 0B46     		mov	r3, r1
 965:.\mpu6050.c   ****     I2CWriteBit(devAddr, MPU6050_RA_I2C_SLV0_CTRL + num*3, I2C_MPU6050_I2C_SLV_EN_BIT, enabled);
 2497              		.loc 1 965 0
 2498 0008 00EB4000 		add	r0, r0, r0, lsl #1
 2499              	.LVL143:
 2500 000c 00F12702 		add	r2, r0, #39
 2501 0010 0349     		ldr	r1, .L276
 2502              	.LVL144:
 2503 0012 0878     		ldrb	r0, [r1]	@ zero_extendqisi2
ARM GAS  C:\Users\Michael\AppData\Local\Temp\ccvFrowP.s 			page 62


 2504 0014 D1B2     		uxtb	r1, r2
 2505 0016 0722     		movs	r2, #7
 2506 0018 FFF7FEFF 		bl	I2CWriteBit
 2507              	.LVL145:
 2508 001c 08BD     		pop	{r3, pc}
 2509              	.LVL146:
 2510              	.L275:
 2511              		.cfi_def_cfa_offset 0
 2512              		.cfi_restore 3
 2513              		.cfi_restore 14
 2514 001e 7047     		bx	lr
 2515              	.L277:
 2516              		.align	2
 2517              	.L276:
 2518 0020 00000000 		.word	devAddr
 2519              		.cfi_endproc
 2520              	.LFE67:
 2521              		.size	MPU6050_setSlaveEnabled, .-MPU6050_setSlaveEnabled
 2522              		.section	.text.MPU6050_getSlaveWordByteSwap,"ax",%progbits
 2523              		.align	2
 2524              		.global	MPU6050_getSlaveWordByteSwap
 2525              		.thumb
 2526              		.thumb_func
 2527              		.type	MPU6050_getSlaveWordByteSwap, %function
 2528              	MPU6050_getSlaveWordByteSwap:
 2529              	.LFB68:
 966:.\mpu6050.c   **** }
 967:.\mpu6050.c   **** /** Get word pair byte-swapping enabled for the specified slave (0-3).
 968:.\mpu6050.c   ****  * When set to 1, this bit enables byte swapping. When byte swapping is enabled,
 969:.\mpu6050.c   ****  * the high and low bytes of a word pair are swapped. Please refer to
 970:.\mpu6050.c   ****  * I2C_SLV0_GRP for the pairing convention of the word pairs. When cleared to 0,
 971:.\mpu6050.c   ****  * bytes transferred to and from Slave 0 will be written to EXT_SENS_DATA
 972:.\mpu6050.c   ****  * registers in the order they were transferred.
 973:.\mpu6050.c   ****  *
 974:.\mpu6050.c   ****  * @param num Slave number (0-3)
 975:.\mpu6050.c   ****  * @return Current word pair byte-swapping enabled value for specified slave
 976:.\mpu6050.c   ****  * @see MPU6050_RA_I2C_SLV0_CTRL
 977:.\mpu6050.c   ****  */
 978:.\mpu6050.c   **** bool MPU6050_getSlaveWordByteSwap(uint8_t num) {
 2530              		.loc 1 978 0
 2531              		.cfi_startproc
 2532              		@ args = 0, pretend = 0, frame = 0
 2533              		@ frame_needed = 0, uses_anonymous_args = 0
 2534              	.LVL147:
 979:.\mpu6050.c   ****     if (num > 3) return 0;
 2535              		.loc 1 979 0
 2536 0000 0328     		cmp	r0, #3
 2537 0002 11D8     		bhi	.L280
 978:.\mpu6050.c   ****     if (num > 3) return 0;
 2538              		.loc 1 978 0
 2539 0004 10B5     		push	{r4, lr}
 2540              		.cfi_def_cfa_offset 8
 2541              		.cfi_offset 4, -8
 2542              		.cfi_offset 14, -4
 980:.\mpu6050.c   ****     I2CReadBit(devAddr, MPU6050_RA_I2C_SLV0_CTRL + num*3, I2C_MPU6050_I2C_SLV_BYTE_SW_BIT, buffer);
 2543              		.loc 1 980 0
 2544 0006 00EB4000 		add	r0, r0, r0, lsl #1
ARM GAS  C:\Users\Michael\AppData\Local\Temp\ccvFrowP.s 			page 63


 2545              	.LVL148:
 2546 000a 00F12701 		add	r1, r0, #39
 2547 000e 074C     		ldr	r4, .L283
 2548 0010 074B     		ldr	r3, .L283+4
 2549 0012 1878     		ldrb	r0, [r3]	@ zero_extendqisi2
 2550 0014 C9B2     		uxtb	r1, r1
 2551 0016 0622     		movs	r2, #6
 2552 0018 2346     		mov	r3, r4
 2553 001a FFF7FEFF 		bl	I2CReadBit
 2554              	.LVL149:
 981:.\mpu6050.c   ****     return buffer[0];
 2555              		.loc 1 981 0
 2556 001e 2078     		ldrb	r0, [r4]	@ zero_extendqisi2
 2557 0020 0030     		adds	r0, r0, #0
 2558 0022 18BF     		it	ne
 2559 0024 0120     		movne	r0, #1
 2560 0026 10BD     		pop	{r4, pc}
 2561              	.LVL150:
 2562              	.L280:
 2563              		.cfi_def_cfa_offset 0
 2564              		.cfi_restore 4
 2565              		.cfi_restore 14
 979:.\mpu6050.c   ****     I2CReadBit(devAddr, MPU6050_RA_I2C_SLV0_CTRL + num*3, I2C_MPU6050_I2C_SLV_BYTE_SW_BIT, buffer);
 2566              		.loc 1 979 0
 2567 0028 0020     		movs	r0, #0
 2568              	.LVL151:
 2569 002a 7047     		bx	lr
 2570              	.L284:
 2571              		.align	2
 2572              	.L283:
 2573 002c 00000000 		.word	buffer
 2574 0030 00000000 		.word	devAddr
 2575              		.cfi_endproc
 2576              	.LFE68:
 2577              		.size	MPU6050_getSlaveWordByteSwap, .-MPU6050_getSlaveWordByteSwap
 2578              		.section	.text.MPU6050_setSlaveWordByteSwap,"ax",%progbits
 2579              		.align	2
 2580              		.global	MPU6050_setSlaveWordByteSwap
 2581              		.thumb
 2582              		.thumb_func
 2583              		.type	MPU6050_setSlaveWordByteSwap, %function
 2584              	MPU6050_setSlaveWordByteSwap:
 2585              	.LFB69:
 982:.\mpu6050.c   **** }
 983:.\mpu6050.c   **** /** Set word pair byte-swapping enabled for the specified slave (0-3).
 984:.\mpu6050.c   ****  * @param num Slave number (0-3)
 985:.\mpu6050.c   ****  * @param enabled New word pair byte-swapping enabled value for specified slave
 986:.\mpu6050.c   ****  * @see getSlaveWordByteSwap()
 987:.\mpu6050.c   ****  * @see MPU6050_RA_I2C_SLV0_CTRL
 988:.\mpu6050.c   ****  */
 989:.\mpu6050.c   **** void MPU6050_setSlaveWordByteSwap(uint8_t num, bool enabled) {
 2586              		.loc 1 989 0
 2587              		.cfi_startproc
 2588              		@ args = 0, pretend = 0, frame = 0
 2589              		@ frame_needed = 0, uses_anonymous_args = 0
 2590              	.LVL152:
 990:.\mpu6050.c   ****     if (num > 3) return;
ARM GAS  C:\Users\Michael\AppData\Local\Temp\ccvFrowP.s 			page 64


 2591              		.loc 1 990 0
 2592 0000 0328     		cmp	r0, #3
 2593 0002 0CD8     		bhi	.L288
 989:.\mpu6050.c   ****     if (num > 3) return;
 2594              		.loc 1 989 0
 2595 0004 08B5     		push	{r3, lr}
 2596              		.cfi_def_cfa_offset 8
 2597              		.cfi_offset 3, -8
 2598              		.cfi_offset 14, -4
 2599 0006 0B46     		mov	r3, r1
 991:.\mpu6050.c   ****     I2CWriteBit(devAddr, MPU6050_RA_I2C_SLV0_CTRL + num*3, I2C_MPU6050_I2C_SLV_BYTE_SW_BIT, enabled
 2600              		.loc 1 991 0
 2601 0008 00EB4000 		add	r0, r0, r0, lsl #1
 2602              	.LVL153:
 2603 000c 00F12702 		add	r2, r0, #39
 2604 0010 0349     		ldr	r1, .L289
 2605              	.LVL154:
 2606 0012 0878     		ldrb	r0, [r1]	@ zero_extendqisi2
 2607 0014 D1B2     		uxtb	r1, r2
 2608 0016 0622     		movs	r2, #6
 2609 0018 FFF7FEFF 		bl	I2CWriteBit
 2610              	.LVL155:
 2611 001c 08BD     		pop	{r3, pc}
 2612              	.LVL156:
 2613              	.L288:
 2614              		.cfi_def_cfa_offset 0
 2615              		.cfi_restore 3
 2616              		.cfi_restore 14
 2617 001e 7047     		bx	lr
 2618              	.L290:
 2619              		.align	2
 2620              	.L289:
 2621 0020 00000000 		.word	devAddr
 2622              		.cfi_endproc
 2623              	.LFE69:
 2624              		.size	MPU6050_setSlaveWordByteSwap, .-MPU6050_setSlaveWordByteSwap
 2625              		.section	.text.MPU6050_getSlaveWriteMode,"ax",%progbits
 2626              		.align	2
 2627              		.global	MPU6050_getSlaveWriteMode
 2628              		.thumb
 2629              		.thumb_func
 2630              		.type	MPU6050_getSlaveWriteMode, %function
 2631              	MPU6050_getSlaveWriteMode:
 2632              	.LFB70:
 992:.\mpu6050.c   **** }
 993:.\mpu6050.c   **** /** Get write mode for the specified slave (0-3).
 994:.\mpu6050.c   ****  * When set to 1, the transaction will read or write data only. When cleared to
 995:.\mpu6050.c   ****  * 0, the transaction will write a register address prior to reading or writing
 996:.\mpu6050.c   ****  * data. This should equal 0 when specifying the register address within the
 997:.\mpu6050.c   ****  * Slave device to/from which the ensuing data transaction will take place.
 998:.\mpu6050.c   ****  *
 999:.\mpu6050.c   ****  * @param num Slave number (0-3)
1000:.\mpu6050.c   ****  * @return Current write mode for specified slave (0 = register address + data, 1 = data only)
1001:.\mpu6050.c   ****  * @see MPU6050_RA_I2C_SLV0_CTRL
1002:.\mpu6050.c   ****  */
1003:.\mpu6050.c   **** bool MPU6050_getSlaveWriteMode(uint8_t num) {
 2633              		.loc 1 1003 0
ARM GAS  C:\Users\Michael\AppData\Local\Temp\ccvFrowP.s 			page 65


 2634              		.cfi_startproc
 2635              		@ args = 0, pretend = 0, frame = 0
 2636              		@ frame_needed = 0, uses_anonymous_args = 0
 2637              	.LVL157:
1004:.\mpu6050.c   ****     if (num > 3) return 0;
 2638              		.loc 1 1004 0
 2639 0000 0328     		cmp	r0, #3
 2640 0002 11D8     		bhi	.L293
1003:.\mpu6050.c   ****     if (num > 3) return 0;
 2641              		.loc 1 1003 0
 2642 0004 10B5     		push	{r4, lr}
 2643              		.cfi_def_cfa_offset 8
 2644              		.cfi_offset 4, -8
 2645              		.cfi_offset 14, -4
1005:.\mpu6050.c   ****     I2CReadBit(devAddr, MPU6050_RA_I2C_SLV0_CTRL + num*3, I2C_MPU6050_I2C_SLV_REG_DIS_BIT, buffer);
 2646              		.loc 1 1005 0
 2647 0006 00EB4000 		add	r0, r0, r0, lsl #1
 2648              	.LVL158:
 2649 000a 00F12701 		add	r1, r0, #39
 2650 000e 074C     		ldr	r4, .L296
 2651 0010 074B     		ldr	r3, .L296+4
 2652 0012 1878     		ldrb	r0, [r3]	@ zero_extendqisi2
 2653 0014 C9B2     		uxtb	r1, r1
 2654 0016 0522     		movs	r2, #5
 2655 0018 2346     		mov	r3, r4
 2656 001a FFF7FEFF 		bl	I2CReadBit
 2657              	.LVL159:
1006:.\mpu6050.c   ****     return buffer[0];
 2658              		.loc 1 1006 0
 2659 001e 2078     		ldrb	r0, [r4]	@ zero_extendqisi2
 2660 0020 0030     		adds	r0, r0, #0
 2661 0022 18BF     		it	ne
 2662 0024 0120     		movne	r0, #1
 2663 0026 10BD     		pop	{r4, pc}
 2664              	.LVL160:
 2665              	.L293:
 2666              		.cfi_def_cfa_offset 0
 2667              		.cfi_restore 4
 2668              		.cfi_restore 14
1004:.\mpu6050.c   ****     I2CReadBit(devAddr, MPU6050_RA_I2C_SLV0_CTRL + num*3, I2C_MPU6050_I2C_SLV_REG_DIS_BIT, buffer);
 2669              		.loc 1 1004 0
 2670 0028 0020     		movs	r0, #0
 2671              	.LVL161:
 2672 002a 7047     		bx	lr
 2673              	.L297:
 2674              		.align	2
 2675              	.L296:
 2676 002c 00000000 		.word	buffer
 2677 0030 00000000 		.word	devAddr
 2678              		.cfi_endproc
 2679              	.LFE70:
 2680              		.size	MPU6050_getSlaveWriteMode, .-MPU6050_getSlaveWriteMode
 2681              		.section	.text.MPU6050_setSlaveWriteMode,"ax",%progbits
 2682              		.align	2
 2683              		.global	MPU6050_setSlaveWriteMode
 2684              		.thumb
 2685              		.thumb_func
ARM GAS  C:\Users\Michael\AppData\Local\Temp\ccvFrowP.s 			page 66


 2686              		.type	MPU6050_setSlaveWriteMode, %function
 2687              	MPU6050_setSlaveWriteMode:
 2688              	.LFB71:
1007:.\mpu6050.c   **** }
1008:.\mpu6050.c   **** /** Set write mode for the specified slave (0-3).
1009:.\mpu6050.c   ****  * @param num Slave number (0-3)
1010:.\mpu6050.c   ****  * @param mode New write mode for specified slave (0 = register address + data, 1 = data only)
1011:.\mpu6050.c   ****  * @see getSlaveWriteMode()
1012:.\mpu6050.c   ****  * @see MPU6050_RA_I2C_SLV0_CTRL
1013:.\mpu6050.c   ****  */
1014:.\mpu6050.c   **** void MPU6050_setSlaveWriteMode(uint8_t num, bool mode) {
 2689              		.loc 1 1014 0
 2690              		.cfi_startproc
 2691              		@ args = 0, pretend = 0, frame = 0
 2692              		@ frame_needed = 0, uses_anonymous_args = 0
 2693              	.LVL162:
1015:.\mpu6050.c   ****     if (num > 3) return;
 2694              		.loc 1 1015 0
 2695 0000 0328     		cmp	r0, #3
 2696 0002 0CD8     		bhi	.L301
1014:.\mpu6050.c   ****     if (num > 3) return;
 2697              		.loc 1 1014 0
 2698 0004 08B5     		push	{r3, lr}
 2699              		.cfi_def_cfa_offset 8
 2700              		.cfi_offset 3, -8
 2701              		.cfi_offset 14, -4
 2702 0006 0B46     		mov	r3, r1
1016:.\mpu6050.c   ****     I2CWriteBit(devAddr, MPU6050_RA_I2C_SLV0_CTRL + num*3, I2C_MPU6050_I2C_SLV_REG_DIS_BIT, mode);
 2703              		.loc 1 1016 0
 2704 0008 00EB4000 		add	r0, r0, r0, lsl #1
 2705              	.LVL163:
 2706 000c 00F12702 		add	r2, r0, #39
 2707 0010 0349     		ldr	r1, .L302
 2708              	.LVL164:
 2709 0012 0878     		ldrb	r0, [r1]	@ zero_extendqisi2
 2710 0014 D1B2     		uxtb	r1, r2
 2711 0016 0522     		movs	r2, #5
 2712 0018 FFF7FEFF 		bl	I2CWriteBit
 2713              	.LVL165:
 2714 001c 08BD     		pop	{r3, pc}
 2715              	.LVL166:
 2716              	.L301:
 2717              		.cfi_def_cfa_offset 0
 2718              		.cfi_restore 3
 2719              		.cfi_restore 14
 2720 001e 7047     		bx	lr
 2721              	.L303:
 2722              		.align	2
 2723              	.L302:
 2724 0020 00000000 		.word	devAddr
 2725              		.cfi_endproc
 2726              	.LFE71:
 2727              		.size	MPU6050_setSlaveWriteMode, .-MPU6050_setSlaveWriteMode
 2728              		.section	.text.MPU6050_getSlaveWordGroupOffset,"ax",%progbits
 2729              		.align	2
 2730              		.global	MPU6050_getSlaveWordGroupOffset
 2731              		.thumb
ARM GAS  C:\Users\Michael\AppData\Local\Temp\ccvFrowP.s 			page 67


 2732              		.thumb_func
 2733              		.type	MPU6050_getSlaveWordGroupOffset, %function
 2734              	MPU6050_getSlaveWordGroupOffset:
 2735              	.LFB72:
1017:.\mpu6050.c   **** }
1018:.\mpu6050.c   **** /** Get word pair grouping order offset for the specified slave (0-3).
1019:.\mpu6050.c   ****  * This sets specifies the grouping order of word pairs received from registers.
1020:.\mpu6050.c   ****  * When cleared to 0, bytes from register addresses 0 and 1, 2 and 3, etc (even,
1021:.\mpu6050.c   ****  * then odd register addresses) are paired to form a word. When set to 1, bytes
1022:.\mpu6050.c   ****  * from register addresses are paired 1 and 2, 3 and 4, etc. (odd, then even
1023:.\mpu6050.c   ****  * register addresses) are paired to form a word.
1024:.\mpu6050.c   ****  *
1025:.\mpu6050.c   ****  * @param num Slave number (0-3)
1026:.\mpu6050.c   ****  * @return Current word pair grouping order offset for specified slave
1027:.\mpu6050.c   ****  * @see MPU6050_RA_I2C_SLV0_CTRL
1028:.\mpu6050.c   ****  */
1029:.\mpu6050.c   **** bool MPU6050_getSlaveWordGroupOffset(uint8_t num) {
 2736              		.loc 1 1029 0
 2737              		.cfi_startproc
 2738              		@ args = 0, pretend = 0, frame = 0
 2739              		@ frame_needed = 0, uses_anonymous_args = 0
 2740              	.LVL167:
1030:.\mpu6050.c   ****     if (num > 3) return 0;
 2741              		.loc 1 1030 0
 2742 0000 0328     		cmp	r0, #3
 2743 0002 11D8     		bhi	.L306
1029:.\mpu6050.c   ****     if (num > 3) return 0;
 2744              		.loc 1 1029 0
 2745 0004 10B5     		push	{r4, lr}
 2746              		.cfi_def_cfa_offset 8
 2747              		.cfi_offset 4, -8
 2748              		.cfi_offset 14, -4
1031:.\mpu6050.c   ****     I2CReadBit(devAddr, MPU6050_RA_I2C_SLV0_CTRL + num*3, I2C_MPU6050_I2C_SLV_GRP_BIT, buffer);
 2749              		.loc 1 1031 0
 2750 0006 00EB4000 		add	r0, r0, r0, lsl #1
 2751              	.LVL168:
 2752 000a 00F12701 		add	r1, r0, #39
 2753 000e 074C     		ldr	r4, .L309
 2754 0010 074B     		ldr	r3, .L309+4
 2755 0012 1878     		ldrb	r0, [r3]	@ zero_extendqisi2
 2756 0014 C9B2     		uxtb	r1, r1
 2757 0016 0422     		movs	r2, #4
 2758 0018 2346     		mov	r3, r4
 2759 001a FFF7FEFF 		bl	I2CReadBit
 2760              	.LVL169:
1032:.\mpu6050.c   ****     return buffer[0];
 2761              		.loc 1 1032 0
 2762 001e 2078     		ldrb	r0, [r4]	@ zero_extendqisi2
 2763 0020 0030     		adds	r0, r0, #0
 2764 0022 18BF     		it	ne
 2765 0024 0120     		movne	r0, #1
 2766 0026 10BD     		pop	{r4, pc}
 2767              	.LVL170:
 2768              	.L306:
 2769              		.cfi_def_cfa_offset 0
 2770              		.cfi_restore 4
 2771              		.cfi_restore 14
ARM GAS  C:\Users\Michael\AppData\Local\Temp\ccvFrowP.s 			page 68


1030:.\mpu6050.c   ****     I2CReadBit(devAddr, MPU6050_RA_I2C_SLV0_CTRL + num*3, I2C_MPU6050_I2C_SLV_GRP_BIT, buffer);
 2772              		.loc 1 1030 0
 2773 0028 0020     		movs	r0, #0
 2774              	.LVL171:
 2775 002a 7047     		bx	lr
 2776              	.L310:
 2777              		.align	2
 2778              	.L309:
 2779 002c 00000000 		.word	buffer
 2780 0030 00000000 		.word	devAddr
 2781              		.cfi_endproc
 2782              	.LFE72:
 2783              		.size	MPU6050_getSlaveWordGroupOffset, .-MPU6050_getSlaveWordGroupOffset
 2784              		.section	.text.MPU6050_setSlaveWordGroupOffset,"ax",%progbits
 2785              		.align	2
 2786              		.global	MPU6050_setSlaveWordGroupOffset
 2787              		.thumb
 2788              		.thumb_func
 2789              		.type	MPU6050_setSlaveWordGroupOffset, %function
 2790              	MPU6050_setSlaveWordGroupOffset:
 2791              	.LFB73:
1033:.\mpu6050.c   **** }
1034:.\mpu6050.c   **** /** Set word pair grouping order offset for the specified slave (0-3).
1035:.\mpu6050.c   ****  * @param num Slave number (0-3)
1036:.\mpu6050.c   ****  * @param enabled New word pair grouping order offset for specified slave
1037:.\mpu6050.c   ****  * @see getSlaveWordGroupOffset()
1038:.\mpu6050.c   ****  * @see MPU6050_RA_I2C_SLV0_CTRL
1039:.\mpu6050.c   ****  */
1040:.\mpu6050.c   **** void MPU6050_setSlaveWordGroupOffset(uint8_t num, bool enabled) {
 2792              		.loc 1 1040 0
 2793              		.cfi_startproc
 2794              		@ args = 0, pretend = 0, frame = 0
 2795              		@ frame_needed = 0, uses_anonymous_args = 0
 2796              	.LVL172:
1041:.\mpu6050.c   ****     if (num > 3) return;
 2797              		.loc 1 1041 0
 2798 0000 0328     		cmp	r0, #3
 2799 0002 0CD8     		bhi	.L314
1040:.\mpu6050.c   ****     if (num > 3) return;
 2800              		.loc 1 1040 0
 2801 0004 08B5     		push	{r3, lr}
 2802              		.cfi_def_cfa_offset 8
 2803              		.cfi_offset 3, -8
 2804              		.cfi_offset 14, -4
 2805 0006 0B46     		mov	r3, r1
1042:.\mpu6050.c   ****     I2CWriteBit(devAddr, MPU6050_RA_I2C_SLV0_CTRL + num*3, I2C_MPU6050_I2C_SLV_GRP_BIT, enabled);
 2806              		.loc 1 1042 0
 2807 0008 00EB4000 		add	r0, r0, r0, lsl #1
 2808              	.LVL173:
 2809 000c 00F12702 		add	r2, r0, #39
 2810 0010 0349     		ldr	r1, .L315
 2811              	.LVL174:
 2812 0012 0878     		ldrb	r0, [r1]	@ zero_extendqisi2
 2813 0014 D1B2     		uxtb	r1, r2
 2814 0016 0422     		movs	r2, #4
 2815 0018 FFF7FEFF 		bl	I2CWriteBit
 2816              	.LVL175:
ARM GAS  C:\Users\Michael\AppData\Local\Temp\ccvFrowP.s 			page 69


 2817 001c 08BD     		pop	{r3, pc}
 2818              	.LVL176:
 2819              	.L314:
 2820              		.cfi_def_cfa_offset 0
 2821              		.cfi_restore 3
 2822              		.cfi_restore 14
 2823 001e 7047     		bx	lr
 2824              	.L316:
 2825              		.align	2
 2826              	.L315:
 2827 0020 00000000 		.word	devAddr
 2828              		.cfi_endproc
 2829              	.LFE73:
 2830              		.size	MPU6050_setSlaveWordGroupOffset, .-MPU6050_setSlaveWordGroupOffset
 2831              		.section	.text.MPU6050_getSlaveDataLength,"ax",%progbits
 2832              		.align	2
 2833              		.global	MPU6050_getSlaveDataLength
 2834              		.thumb
 2835              		.thumb_func
 2836              		.type	MPU6050_getSlaveDataLength, %function
 2837              	MPU6050_getSlaveDataLength:
 2838              	.LFB74:
1043:.\mpu6050.c   **** }
1044:.\mpu6050.c   **** /** Get number of bytes to read for the specified slave (0-3).
1045:.\mpu6050.c   ****  * Specifies the number of bytes transferred to and from Slave 0. Clearing this
1046:.\mpu6050.c   ****  * bit to 0 is equivalent to disabling the register by writing 0 to I2C_SLV0_EN.
1047:.\mpu6050.c   ****  * @param num Slave number (0-3)
1048:.\mpu6050.c   ****  * @return Number of bytes to read for specified slave
1049:.\mpu6050.c   ****  * @see MPU6050_RA_I2C_SLV0_CTRL
1050:.\mpu6050.c   ****  */
1051:.\mpu6050.c   **** uint8_t MPU6050_getSlaveDataLength(uint8_t num) {
 2839              		.loc 1 1051 0
 2840              		.cfi_startproc
 2841              		@ args = 0, pretend = 0, frame = 0
 2842              		@ frame_needed = 0, uses_anonymous_args = 0
 2843              	.LVL177:
1052:.\mpu6050.c   ****     if (num > 3) return 0;
 2844              		.loc 1 1052 0
 2845 0000 0328     		cmp	r0, #3
 2846 0002 10D8     		bhi	.L319
1051:.\mpu6050.c   ****     if (num > 3) return 0;
 2847              		.loc 1 1051 0
 2848 0004 10B5     		push	{r4, lr}
 2849              		.cfi_def_cfa_offset 8
 2850              		.cfi_offset 4, -8
 2851              		.cfi_offset 14, -4
 2852 0006 82B0     		sub	sp, sp, #8
 2853              		.cfi_def_cfa_offset 16
 2854 0008 0146     		mov	r1, r0
1053:.\mpu6050.c   ****     I2CReadBits(devAddr, MPU6050_RA_I2C_SLV0_CTRL + num*3, I2C_MPU6050_I2C_SLV_LEN_BIT, I2C_MPU6050
 2855              		.loc 1 1053 0
 2856 000a 094B     		ldr	r3, .L322
 2857 000c 1878     		ldrb	r0, [r3]	@ zero_extendqisi2
 2858              	.LVL178:
 2859 000e 01EB4101 		add	r1, r1, r1, lsl #1
 2860 0012 2731     		adds	r1, r1, #39
 2861 0014 074C     		ldr	r4, .L322+4
ARM GAS  C:\Users\Michael\AppData\Local\Temp\ccvFrowP.s 			page 70


 2862 0016 0094     		str	r4, [sp]
 2863 0018 C9B2     		uxtb	r1, r1
 2864 001a 0322     		movs	r2, #3
 2865 001c 0423     		movs	r3, #4
 2866 001e FFF7FEFF 		bl	I2CReadBits
 2867              	.LVL179:
1054:.\mpu6050.c   ****     return buffer[0];
 2868              		.loc 1 1054 0
 2869 0022 2078     		ldrb	r0, [r4]	@ zero_extendqisi2
 2870 0024 01E0     		b	.L318
 2871              	.LVL180:
 2872              	.L319:
 2873              		.cfi_def_cfa_offset 0
 2874              		.cfi_restore 4
 2875              		.cfi_restore 14
1052:.\mpu6050.c   ****     I2CReadBits(devAddr, MPU6050_RA_I2C_SLV0_CTRL + num*3, I2C_MPU6050_I2C_SLV_LEN_BIT, I2C_MPU6050
 2876              		.loc 1 1052 0
 2877 0026 0020     		movs	r0, #0
 2878              	.LVL181:
 2879 0028 7047     		bx	lr
 2880              	.L318:
 2881              		.cfi_def_cfa_offset 16
 2882              		.cfi_offset 4, -8
 2883              		.cfi_offset 14, -4
1055:.\mpu6050.c   **** }
 2884              		.loc 1 1055 0
 2885 002a 02B0     		add	sp, sp, #8
 2886              		.cfi_def_cfa_offset 8
 2887              		@ sp needed
 2888 002c 10BD     		pop	{r4, pc}
 2889              	.L323:
 2890 002e 00BF     		.align	2
 2891              	.L322:
 2892 0030 00000000 		.word	devAddr
 2893 0034 00000000 		.word	buffer
 2894              		.cfi_endproc
 2895              	.LFE74:
 2896              		.size	MPU6050_getSlaveDataLength, .-MPU6050_getSlaveDataLength
 2897              		.section	.text.MPU6050_setSlaveDataLength,"ax",%progbits
 2898              		.align	2
 2899              		.global	MPU6050_setSlaveDataLength
 2900              		.thumb
 2901              		.thumb_func
 2902              		.type	MPU6050_setSlaveDataLength, %function
 2903              	MPU6050_setSlaveDataLength:
 2904              	.LFB75:
1056:.\mpu6050.c   **** /** Set number of bytes to read for the specified slave (0-3).
1057:.\mpu6050.c   ****  * @param num Slave number (0-3)
1058:.\mpu6050.c   ****  * @param length Number of bytes to read for specified slave
1059:.\mpu6050.c   ****  * @see getSlaveDataLength()
1060:.\mpu6050.c   ****  * @see MPU6050_RA_I2C_SLV0_CTRL
1061:.\mpu6050.c   ****  */
1062:.\mpu6050.c   **** void MPU6050_setSlaveDataLength(uint8_t num, uint8_t length) {
 2905              		.loc 1 1062 0
 2906              		.cfi_startproc
 2907              		@ args = 0, pretend = 0, frame = 0
 2908              		@ frame_needed = 0, uses_anonymous_args = 0
ARM GAS  C:\Users\Michael\AppData\Local\Temp\ccvFrowP.s 			page 71


 2909              	.LVL182:
1063:.\mpu6050.c   ****     if (num > 3) return;
 2910              		.loc 1 1063 0
 2911 0000 0328     		cmp	r0, #3
 2912 0002 10D8     		bhi	.L327
1062:.\mpu6050.c   ****     if (num > 3) return;
 2913              		.loc 1 1062 0
 2914 0004 00B5     		push	{lr}
 2915              		.cfi_def_cfa_offset 4
 2916              		.cfi_offset 14, -4
 2917 0006 83B0     		sub	sp, sp, #12
 2918              		.cfi_def_cfa_offset 16
 2919 0008 0346     		mov	r3, r0
1064:.\mpu6050.c   ****     I2CWriteBits(devAddr, MPU6050_RA_I2C_SLV0_CTRL + num*3, I2C_MPU6050_I2C_SLV_LEN_BIT, I2C_MPU605
 2920              		.loc 1 1064 0
 2921 000a 074A     		ldr	r2, .L328
 2922 000c 1078     		ldrb	r0, [r2]	@ zero_extendqisi2
 2923              	.LVL183:
 2924 000e 03EB4303 		add	r3, r3, r3, lsl #1
 2925 0012 2733     		adds	r3, r3, #39
 2926 0014 0091     		str	r1, [sp]
 2927 0016 D9B2     		uxtb	r1, r3
 2928              	.LVL184:
 2929 0018 0322     		movs	r2, #3
 2930 001a 0423     		movs	r3, #4
 2931 001c FFF7FEFF 		bl	I2CWriteBits
 2932              	.LVL185:
1065:.\mpu6050.c   **** }
 2933              		.loc 1 1065 0
 2934 0020 03B0     		add	sp, sp, #12
 2935              		.cfi_def_cfa_offset 4
 2936              		@ sp needed
 2937 0022 5DF804FB 		ldr	pc, [sp], #4
 2938              	.LVL186:
 2939              	.L327:
 2940              		.cfi_def_cfa_offset 0
 2941              		.cfi_restore 14
 2942 0026 7047     		bx	lr
 2943              	.L329:
 2944              		.align	2
 2945              	.L328:
 2946 0028 00000000 		.word	devAddr
 2947              		.cfi_endproc
 2948              	.LFE75:
 2949              		.size	MPU6050_setSlaveDataLength, .-MPU6050_setSlaveDataLength
 2950              		.section	.text.MPU6050_getSlave4Address,"ax",%progbits
 2951              		.align	2
 2952              		.global	MPU6050_getSlave4Address
 2953              		.thumb
 2954              		.thumb_func
 2955              		.type	MPU6050_getSlave4Address, %function
 2956              	MPU6050_getSlave4Address:
 2957              	.LFB76:
1066:.\mpu6050.c   **** 
1067:.\mpu6050.c   **** // I2C_SLV* registers (Slave 4)
1068:.\mpu6050.c   **** 
1069:.\mpu6050.c   **** /** Get the I2C address of Slave 4.
ARM GAS  C:\Users\Michael\AppData\Local\Temp\ccvFrowP.s 			page 72


1070:.\mpu6050.c   ****  * Note that Bit 7 (MSB) controls read/write mode. If Bit 7 is set, it's a read
1071:.\mpu6050.c   ****  * operation, and if it is cleared, then it's a write operation. The remaining
1072:.\mpu6050.c   ****  * bits (6-0) are the 7-bit device address of the slave device.
1073:.\mpu6050.c   ****  *
1074:.\mpu6050.c   ****  * @return Current address for Slave 4
1075:.\mpu6050.c   ****  * @see getSlaveAddress()
1076:.\mpu6050.c   ****  * @see MPU6050_RA_I2C_SLV4_ADDR
1077:.\mpu6050.c   ****  */
1078:.\mpu6050.c   **** uint8_t MPU6050_getSlave4Address() {
 2958              		.loc 1 1078 0
 2959              		.cfi_startproc
 2960              		@ args = 0, pretend = 0, frame = 0
 2961              		@ frame_needed = 0, uses_anonymous_args = 0
 2962 0000 10B5     		push	{r4, lr}
 2963              		.cfi_def_cfa_offset 8
 2964              		.cfi_offset 4, -8
 2965              		.cfi_offset 14, -4
1079:.\mpu6050.c   ****     I2CReadByte(devAddr, MPU6050_RA_I2C_SLV4_ADDR, buffer);
 2966              		.loc 1 1079 0
 2967 0002 044C     		ldr	r4, .L332
 2968 0004 044B     		ldr	r3, .L332+4
 2969 0006 1878     		ldrb	r0, [r3]	@ zero_extendqisi2
 2970 0008 3121     		movs	r1, #49
 2971 000a 2246     		mov	r2, r4
 2972 000c FFF7FEFF 		bl	I2CReadByte
 2973              	.LVL187:
1080:.\mpu6050.c   ****     return buffer[0];
1081:.\mpu6050.c   **** }
 2974              		.loc 1 1081 0
 2975 0010 2078     		ldrb	r0, [r4]	@ zero_extendqisi2
 2976 0012 10BD     		pop	{r4, pc}
 2977              	.L333:
 2978              		.align	2
 2979              	.L332:
 2980 0014 00000000 		.word	buffer
 2981 0018 00000000 		.word	devAddr
 2982              		.cfi_endproc
 2983              	.LFE76:
 2984              		.size	MPU6050_getSlave4Address, .-MPU6050_getSlave4Address
 2985              		.section	.text.MPU6050_setSlave4Address,"ax",%progbits
 2986              		.align	2
 2987              		.global	MPU6050_setSlave4Address
 2988              		.thumb
 2989              		.thumb_func
 2990              		.type	MPU6050_setSlave4Address, %function
 2991              	MPU6050_setSlave4Address:
 2992              	.LFB77:
1082:.\mpu6050.c   **** /** Set the I2C address of Slave 4.
1083:.\mpu6050.c   ****  * @param address New address for Slave 4
1084:.\mpu6050.c   ****  * @see getSlave4Address()
1085:.\mpu6050.c   ****  * @see MPU6050_RA_I2C_SLV4_ADDR
1086:.\mpu6050.c   ****  */
1087:.\mpu6050.c   **** void MPU6050_setSlave4Address(uint8_t address) {
 2993              		.loc 1 1087 0
 2994              		.cfi_startproc
 2995              		@ args = 0, pretend = 0, frame = 0
 2996              		@ frame_needed = 0, uses_anonymous_args = 0
ARM GAS  C:\Users\Michael\AppData\Local\Temp\ccvFrowP.s 			page 73


 2997              	.LVL188:
 2998 0000 08B5     		push	{r3, lr}
 2999              		.cfi_def_cfa_offset 8
 3000              		.cfi_offset 3, -8
 3001              		.cfi_offset 14, -4
 3002 0002 0246     		mov	r2, r0
1088:.\mpu6050.c   ****     I2CWriteByte(devAddr, MPU6050_RA_I2C_SLV4_ADDR, address);
 3003              		.loc 1 1088 0
 3004 0004 024B     		ldr	r3, .L336
 3005 0006 1878     		ldrb	r0, [r3]	@ zero_extendqisi2
 3006              	.LVL189:
 3007 0008 3121     		movs	r1, #49
 3008 000a FFF7FEFF 		bl	I2CWriteByte
 3009              	.LVL190:
 3010 000e 08BD     		pop	{r3, pc}
 3011              	.L337:
 3012              		.align	2
 3013              	.L336:
 3014 0010 00000000 		.word	devAddr
 3015              		.cfi_endproc
 3016              	.LFE77:
 3017              		.size	MPU6050_setSlave4Address, .-MPU6050_setSlave4Address
 3018              		.section	.text.MPU6050_getSlave4Register,"ax",%progbits
 3019              		.align	2
 3020              		.global	MPU6050_getSlave4Register
 3021              		.thumb
 3022              		.thumb_func
 3023              		.type	MPU6050_getSlave4Register, %function
 3024              	MPU6050_getSlave4Register:
 3025              	.LFB78:
1089:.\mpu6050.c   **** }
1090:.\mpu6050.c   **** /** Get the active internal register for the Slave 4.
1091:.\mpu6050.c   ****  * Read/write operations for this slave will be done to whatever internal
1092:.\mpu6050.c   ****  * register address is stored in this MPU register.
1093:.\mpu6050.c   ****  *
1094:.\mpu6050.c   ****  * @return Current active register for Slave 4
1095:.\mpu6050.c   ****  * @see MPU6050_RA_I2C_SLV4_REG
1096:.\mpu6050.c   ****  */
1097:.\mpu6050.c   **** uint8_t MPU6050_getSlave4Register() {
 3026              		.loc 1 1097 0
 3027              		.cfi_startproc
 3028              		@ args = 0, pretend = 0, frame = 0
 3029              		@ frame_needed = 0, uses_anonymous_args = 0
 3030 0000 10B5     		push	{r4, lr}
 3031              		.cfi_def_cfa_offset 8
 3032              		.cfi_offset 4, -8
 3033              		.cfi_offset 14, -4
1098:.\mpu6050.c   ****     I2CReadByte(devAddr, MPU6050_RA_I2C_SLV4_REG, buffer);
 3034              		.loc 1 1098 0
 3035 0002 044C     		ldr	r4, .L340
 3036 0004 044B     		ldr	r3, .L340+4
 3037 0006 1878     		ldrb	r0, [r3]	@ zero_extendqisi2
 3038 0008 3221     		movs	r1, #50
 3039 000a 2246     		mov	r2, r4
 3040 000c FFF7FEFF 		bl	I2CReadByte
 3041              	.LVL191:
1099:.\mpu6050.c   ****     return buffer[0];
ARM GAS  C:\Users\Michael\AppData\Local\Temp\ccvFrowP.s 			page 74


1100:.\mpu6050.c   **** }
 3042              		.loc 1 1100 0
 3043 0010 2078     		ldrb	r0, [r4]	@ zero_extendqisi2
 3044 0012 10BD     		pop	{r4, pc}
 3045              	.L341:
 3046              		.align	2
 3047              	.L340:
 3048 0014 00000000 		.word	buffer
 3049 0018 00000000 		.word	devAddr
 3050              		.cfi_endproc
 3051              	.LFE78:
 3052              		.size	MPU6050_getSlave4Register, .-MPU6050_getSlave4Register
 3053              		.section	.text.MPU6050_setSlave4Register,"ax",%progbits
 3054              		.align	2
 3055              		.global	MPU6050_setSlave4Register
 3056              		.thumb
 3057              		.thumb_func
 3058              		.type	MPU6050_setSlave4Register, %function
 3059              	MPU6050_setSlave4Register:
 3060              	.LFB79:
1101:.\mpu6050.c   **** /** Set the active internal register for Slave 4.
1102:.\mpu6050.c   ****  * @param reg New active register for Slave 4
1103:.\mpu6050.c   ****  * @see getSlave4Register()
1104:.\mpu6050.c   ****  * @see MPU6050_RA_I2C_SLV4_REG
1105:.\mpu6050.c   ****  */
1106:.\mpu6050.c   **** void MPU6050_setSlave4Register(uint8_t reg) {
 3061              		.loc 1 1106 0
 3062              		.cfi_startproc
 3063              		@ args = 0, pretend = 0, frame = 0
 3064              		@ frame_needed = 0, uses_anonymous_args = 0
 3065              	.LVL192:
 3066 0000 08B5     		push	{r3, lr}
 3067              		.cfi_def_cfa_offset 8
 3068              		.cfi_offset 3, -8
 3069              		.cfi_offset 14, -4
 3070 0002 0246     		mov	r2, r0
1107:.\mpu6050.c   ****     I2CWriteByte(devAddr, MPU6050_RA_I2C_SLV4_REG, reg);
 3071              		.loc 1 1107 0
 3072 0004 024B     		ldr	r3, .L344
 3073 0006 1878     		ldrb	r0, [r3]	@ zero_extendqisi2
 3074              	.LVL193:
 3075 0008 3221     		movs	r1, #50
 3076 000a FFF7FEFF 		bl	I2CWriteByte
 3077              	.LVL194:
 3078 000e 08BD     		pop	{r3, pc}
 3079              	.L345:
 3080              		.align	2
 3081              	.L344:
 3082 0010 00000000 		.word	devAddr
 3083              		.cfi_endproc
 3084              	.LFE79:
 3085              		.size	MPU6050_setSlave4Register, .-MPU6050_setSlave4Register
 3086              		.section	.text.MPU6050_setSlave4OutputByte,"ax",%progbits
 3087              		.align	2
 3088              		.global	MPU6050_setSlave4OutputByte
 3089              		.thumb
 3090              		.thumb_func
ARM GAS  C:\Users\Michael\AppData\Local\Temp\ccvFrowP.s 			page 75


 3091              		.type	MPU6050_setSlave4OutputByte, %function
 3092              	MPU6050_setSlave4OutputByte:
 3093              	.LFB80:
1108:.\mpu6050.c   **** }
1109:.\mpu6050.c   **** /** Set new byte to write to Slave 4.
1110:.\mpu6050.c   ****  * This register stores the data to be written into the Slave 4. If I2C_SLV4_RW
1111:.\mpu6050.c   ****  * is set 1 (set to read), this register has no effect.
1112:.\mpu6050.c   ****  * @param data New byte to write to Slave 4
1113:.\mpu6050.c   ****  * @see MPU6050_RA_I2C_SLV4_DO
1114:.\mpu6050.c   ****  */
1115:.\mpu6050.c   **** void MPU6050_setSlave4OutputByte(uint8_t data) {
 3094              		.loc 1 1115 0
 3095              		.cfi_startproc
 3096              		@ args = 0, pretend = 0, frame = 0
 3097              		@ frame_needed = 0, uses_anonymous_args = 0
 3098              	.LVL195:
 3099 0000 08B5     		push	{r3, lr}
 3100              		.cfi_def_cfa_offset 8
 3101              		.cfi_offset 3, -8
 3102              		.cfi_offset 14, -4
 3103 0002 0246     		mov	r2, r0
1116:.\mpu6050.c   ****     I2CWriteByte(devAddr, MPU6050_RA_I2C_SLV4_DO, data);
 3104              		.loc 1 1116 0
 3105 0004 024B     		ldr	r3, .L348
 3106 0006 1878     		ldrb	r0, [r3]	@ zero_extendqisi2
 3107              	.LVL196:
 3108 0008 3321     		movs	r1, #51
 3109 000a FFF7FEFF 		bl	I2CWriteByte
 3110              	.LVL197:
 3111 000e 08BD     		pop	{r3, pc}
 3112              	.L349:
 3113              		.align	2
 3114              	.L348:
 3115 0010 00000000 		.word	devAddr
 3116              		.cfi_endproc
 3117              	.LFE80:
 3118              		.size	MPU6050_setSlave4OutputByte, .-MPU6050_setSlave4OutputByte
 3119              		.section	.text.MPU6050_getSlave4Enabled,"ax",%progbits
 3120              		.align	2
 3121              		.global	MPU6050_getSlave4Enabled
 3122              		.thumb
 3123              		.thumb_func
 3124              		.type	MPU6050_getSlave4Enabled, %function
 3125              	MPU6050_getSlave4Enabled:
 3126              	.LFB81:
1117:.\mpu6050.c   **** }
1118:.\mpu6050.c   **** /** Get the enabled value for the Slave 4.
1119:.\mpu6050.c   ****  * When set to 1, this bit enables Slave 4 for data transfer operations. When
1120:.\mpu6050.c   ****  * cleared to 0, this bit disables Slave 4 from data transfer operations.
1121:.\mpu6050.c   ****  * @return Current enabled value for Slave 4
1122:.\mpu6050.c   ****  * @see MPU6050_RA_I2C_SLV4_CTRL
1123:.\mpu6050.c   ****  */
1124:.\mpu6050.c   **** bool MPU6050_getSlave4Enabled() {
 3127              		.loc 1 1124 0
 3128              		.cfi_startproc
 3129              		@ args = 0, pretend = 0, frame = 0
 3130              		@ frame_needed = 0, uses_anonymous_args = 0
ARM GAS  C:\Users\Michael\AppData\Local\Temp\ccvFrowP.s 			page 76


 3131 0000 10B5     		push	{r4, lr}
 3132              		.cfi_def_cfa_offset 8
 3133              		.cfi_offset 4, -8
 3134              		.cfi_offset 14, -4
1125:.\mpu6050.c   ****     I2CReadBit(devAddr, MPU6050_RA_I2C_SLV4_CTRL, I2C_MPU6050_I2C_SLV4_EN_BIT, buffer);
 3135              		.loc 1 1125 0
 3136 0002 064C     		ldr	r4, .L352
 3137 0004 064B     		ldr	r3, .L352+4
 3138 0006 1878     		ldrb	r0, [r3]	@ zero_extendqisi2
 3139 0008 3421     		movs	r1, #52
 3140 000a 0722     		movs	r2, #7
 3141 000c 2346     		mov	r3, r4
 3142 000e FFF7FEFF 		bl	I2CReadBit
 3143              	.LVL198:
1126:.\mpu6050.c   ****     return buffer[0];
 3144              		.loc 1 1126 0
 3145 0012 2078     		ldrb	r0, [r4]	@ zero_extendqisi2
1127:.\mpu6050.c   **** }
 3146              		.loc 1 1127 0
 3147 0014 0030     		adds	r0, r0, #0
 3148 0016 18BF     		it	ne
 3149 0018 0120     		movne	r0, #1
 3150 001a 10BD     		pop	{r4, pc}
 3151              	.L353:
 3152              		.align	2
 3153              	.L352:
 3154 001c 00000000 		.word	buffer
 3155 0020 00000000 		.word	devAddr
 3156              		.cfi_endproc
 3157              	.LFE81:
 3158              		.size	MPU6050_getSlave4Enabled, .-MPU6050_getSlave4Enabled
 3159              		.section	.text.MPU6050_setSlave4Enabled,"ax",%progbits
 3160              		.align	2
 3161              		.global	MPU6050_setSlave4Enabled
 3162              		.thumb
 3163              		.thumb_func
 3164              		.type	MPU6050_setSlave4Enabled, %function
 3165              	MPU6050_setSlave4Enabled:
 3166              	.LFB82:
1128:.\mpu6050.c   **** /** Set the enabled value for Slave 4.
1129:.\mpu6050.c   ****  * @param enabled New enabled value for Slave 4
1130:.\mpu6050.c   ****  * @see getSlave4Enabled()
1131:.\mpu6050.c   ****  * @see MPU6050_RA_I2C_SLV4_CTRL
1132:.\mpu6050.c   ****  */
1133:.\mpu6050.c   **** void MPU6050_setSlave4Enabled(bool enabled) {
 3167              		.loc 1 1133 0
 3168              		.cfi_startproc
 3169              		@ args = 0, pretend = 0, frame = 0
 3170              		@ frame_needed = 0, uses_anonymous_args = 0
 3171              	.LVL199:
 3172 0000 08B5     		push	{r3, lr}
 3173              		.cfi_def_cfa_offset 8
 3174              		.cfi_offset 3, -8
 3175              		.cfi_offset 14, -4
 3176 0002 0346     		mov	r3, r0
1134:.\mpu6050.c   ****     I2CWriteBit(devAddr, MPU6050_RA_I2C_SLV4_CTRL, I2C_MPU6050_I2C_SLV4_EN_BIT, enabled);
 3177              		.loc 1 1134 0
ARM GAS  C:\Users\Michael\AppData\Local\Temp\ccvFrowP.s 			page 77


 3178 0004 034A     		ldr	r2, .L356
 3179 0006 1078     		ldrb	r0, [r2]	@ zero_extendqisi2
 3180              	.LVL200:
 3181 0008 3421     		movs	r1, #52
 3182 000a 0722     		movs	r2, #7
 3183 000c FFF7FEFF 		bl	I2CWriteBit
 3184              	.LVL201:
 3185 0010 08BD     		pop	{r3, pc}
 3186              	.L357:
 3187 0012 00BF     		.align	2
 3188              	.L356:
 3189 0014 00000000 		.word	devAddr
 3190              		.cfi_endproc
 3191              	.LFE82:
 3192              		.size	MPU6050_setSlave4Enabled, .-MPU6050_setSlave4Enabled
 3193              		.section	.text.MPU6050_getSlave4InterruptEnabled,"ax",%progbits
 3194              		.align	2
 3195              		.global	MPU6050_getSlave4InterruptEnabled
 3196              		.thumb
 3197              		.thumb_func
 3198              		.type	MPU6050_getSlave4InterruptEnabled, %function
 3199              	MPU6050_getSlave4InterruptEnabled:
 3200              	.LFB83:
1135:.\mpu6050.c   **** }
1136:.\mpu6050.c   **** /** Get the enabled value for Slave 4 transaction interrupts.
1137:.\mpu6050.c   ****  * When set to 1, this bit enables the generation of an interrupt signal upon
1138:.\mpu6050.c   ****  * completion of a Slave 4 transaction. When cleared to 0, this bit disables the
1139:.\mpu6050.c   ****  * generation of an interrupt signal upon completion of a Slave 4 transaction.
1140:.\mpu6050.c   ****  * The interrupt status can be observed in Register 54.
1141:.\mpu6050.c   ****  *
1142:.\mpu6050.c   ****  * @return Current enabled value for Slave 4 transaction interrupts.
1143:.\mpu6050.c   ****  * @see MPU6050_RA_I2C_SLV4_CTRL
1144:.\mpu6050.c   ****  */
1145:.\mpu6050.c   **** bool MPU6050_getSlave4InterruptEnabled() {
 3201              		.loc 1 1145 0
 3202              		.cfi_startproc
 3203              		@ args = 0, pretend = 0, frame = 0
 3204              		@ frame_needed = 0, uses_anonymous_args = 0
 3205 0000 10B5     		push	{r4, lr}
 3206              		.cfi_def_cfa_offset 8
 3207              		.cfi_offset 4, -8
 3208              		.cfi_offset 14, -4
1146:.\mpu6050.c   ****     I2CReadBit(devAddr, MPU6050_RA_I2C_SLV4_CTRL, I2C_MPU6050_I2C_SLV4_INT_EN_BIT, buffer);
 3209              		.loc 1 1146 0
 3210 0002 064C     		ldr	r4, .L360
 3211 0004 064B     		ldr	r3, .L360+4
 3212 0006 1878     		ldrb	r0, [r3]	@ zero_extendqisi2
 3213 0008 3421     		movs	r1, #52
 3214 000a 0622     		movs	r2, #6
 3215 000c 2346     		mov	r3, r4
 3216 000e FFF7FEFF 		bl	I2CReadBit
 3217              	.LVL202:
1147:.\mpu6050.c   ****     return buffer[0];
 3218              		.loc 1 1147 0
 3219 0012 2078     		ldrb	r0, [r4]	@ zero_extendqisi2
1148:.\mpu6050.c   **** }
 3220              		.loc 1 1148 0
ARM GAS  C:\Users\Michael\AppData\Local\Temp\ccvFrowP.s 			page 78


 3221 0014 0030     		adds	r0, r0, #0
 3222 0016 18BF     		it	ne
 3223 0018 0120     		movne	r0, #1
 3224 001a 10BD     		pop	{r4, pc}
 3225              	.L361:
 3226              		.align	2
 3227              	.L360:
 3228 001c 00000000 		.word	buffer
 3229 0020 00000000 		.word	devAddr
 3230              		.cfi_endproc
 3231              	.LFE83:
 3232              		.size	MPU6050_getSlave4InterruptEnabled, .-MPU6050_getSlave4InterruptEnabled
 3233              		.section	.text.MPU6050_setSlave4InterruptEnabled,"ax",%progbits
 3234              		.align	2
 3235              		.global	MPU6050_setSlave4InterruptEnabled
 3236              		.thumb
 3237              		.thumb_func
 3238              		.type	MPU6050_setSlave4InterruptEnabled, %function
 3239              	MPU6050_setSlave4InterruptEnabled:
 3240              	.LFB84:
1149:.\mpu6050.c   **** /** Set the enabled value for Slave 4 transaction interrupts.
1150:.\mpu6050.c   ****  * @param enabled New enabled value for Slave 4 transaction interrupts.
1151:.\mpu6050.c   ****  * @see getSlave4InterruptEnabled()
1152:.\mpu6050.c   ****  * @see MPU6050_RA_I2C_SLV4_CTRL
1153:.\mpu6050.c   ****  */
1154:.\mpu6050.c   **** void MPU6050_setSlave4InterruptEnabled(bool enabled) {
 3241              		.loc 1 1154 0
 3242              		.cfi_startproc
 3243              		@ args = 0, pretend = 0, frame = 0
 3244              		@ frame_needed = 0, uses_anonymous_args = 0
 3245              	.LVL203:
 3246 0000 08B5     		push	{r3, lr}
 3247              		.cfi_def_cfa_offset 8
 3248              		.cfi_offset 3, -8
 3249              		.cfi_offset 14, -4
 3250 0002 0346     		mov	r3, r0
1155:.\mpu6050.c   ****     I2CWriteBit(devAddr, MPU6050_RA_I2C_SLV4_CTRL, I2C_MPU6050_I2C_SLV4_INT_EN_BIT, enabled);
 3251              		.loc 1 1155 0
 3252 0004 034A     		ldr	r2, .L364
 3253 0006 1078     		ldrb	r0, [r2]	@ zero_extendqisi2
 3254              	.LVL204:
 3255 0008 3421     		movs	r1, #52
 3256 000a 0622     		movs	r2, #6
 3257 000c FFF7FEFF 		bl	I2CWriteBit
 3258              	.LVL205:
 3259 0010 08BD     		pop	{r3, pc}
 3260              	.L365:
 3261 0012 00BF     		.align	2
 3262              	.L364:
 3263 0014 00000000 		.word	devAddr
 3264              		.cfi_endproc
 3265              	.LFE84:
 3266              		.size	MPU6050_setSlave4InterruptEnabled, .-MPU6050_setSlave4InterruptEnabled
 3267              		.section	.text.MPU6050_getSlave4WriteMode,"ax",%progbits
 3268              		.align	2
 3269              		.global	MPU6050_getSlave4WriteMode
 3270              		.thumb
ARM GAS  C:\Users\Michael\AppData\Local\Temp\ccvFrowP.s 			page 79


 3271              		.thumb_func
 3272              		.type	MPU6050_getSlave4WriteMode, %function
 3273              	MPU6050_getSlave4WriteMode:
 3274              	.LFB85:
1156:.\mpu6050.c   **** }
1157:.\mpu6050.c   **** /** Get write mode for Slave 4.
1158:.\mpu6050.c   ****  * When set to 1, the transaction will read or write data only. When cleared to
1159:.\mpu6050.c   ****  * 0, the transaction will write a register address prior to reading or writing
1160:.\mpu6050.c   ****  * data. This should equal 0 when specifying the register address within the
1161:.\mpu6050.c   ****  * Slave device to/from which the ensuing data transaction will take place.
1162:.\mpu6050.c   ****  *
1163:.\mpu6050.c   ****  * @return Current write mode for Slave 4 (0 = register address + data, 1 = data only)
1164:.\mpu6050.c   ****  * @see MPU6050_RA_I2C_SLV4_CTRL
1165:.\mpu6050.c   ****  */
1166:.\mpu6050.c   **** bool MPU6050_getSlave4WriteMode() {
 3275              		.loc 1 1166 0
 3276              		.cfi_startproc
 3277              		@ args = 0, pretend = 0, frame = 0
 3278              		@ frame_needed = 0, uses_anonymous_args = 0
 3279 0000 10B5     		push	{r4, lr}
 3280              		.cfi_def_cfa_offset 8
 3281              		.cfi_offset 4, -8
 3282              		.cfi_offset 14, -4
1167:.\mpu6050.c   ****     I2CReadBit(devAddr, MPU6050_RA_I2C_SLV4_CTRL, I2C_MPU6050_I2C_SLV4_REG_DIS_BIT, buffer);
 3283              		.loc 1 1167 0
 3284 0002 064C     		ldr	r4, .L368
 3285 0004 064B     		ldr	r3, .L368+4
 3286 0006 1878     		ldrb	r0, [r3]	@ zero_extendqisi2
 3287 0008 3421     		movs	r1, #52
 3288 000a 0522     		movs	r2, #5
 3289 000c 2346     		mov	r3, r4
 3290 000e FFF7FEFF 		bl	I2CReadBit
 3291              	.LVL206:
1168:.\mpu6050.c   ****     return buffer[0];
 3292              		.loc 1 1168 0
 3293 0012 2078     		ldrb	r0, [r4]	@ zero_extendqisi2
1169:.\mpu6050.c   **** }
 3294              		.loc 1 1169 0
 3295 0014 0030     		adds	r0, r0, #0
 3296 0016 18BF     		it	ne
 3297 0018 0120     		movne	r0, #1
 3298 001a 10BD     		pop	{r4, pc}
 3299              	.L369:
 3300              		.align	2
 3301              	.L368:
 3302 001c 00000000 		.word	buffer
 3303 0020 00000000 		.word	devAddr
 3304              		.cfi_endproc
 3305              	.LFE85:
 3306              		.size	MPU6050_getSlave4WriteMode, .-MPU6050_getSlave4WriteMode
 3307              		.section	.text.MPU6050_setSlave4WriteMode,"ax",%progbits
 3308              		.align	2
 3309              		.global	MPU6050_setSlave4WriteMode
 3310              		.thumb
 3311              		.thumb_func
 3312              		.type	MPU6050_setSlave4WriteMode, %function
 3313              	MPU6050_setSlave4WriteMode:
ARM GAS  C:\Users\Michael\AppData\Local\Temp\ccvFrowP.s 			page 80


 3314              	.LFB86:
1170:.\mpu6050.c   **** /** Set write mode for the Slave 4.
1171:.\mpu6050.c   ****  * @param mode New write mode for Slave 4 (0 = register address + data, 1 = data only)
1172:.\mpu6050.c   ****  * @see getSlave4WriteMode()
1173:.\mpu6050.c   ****  * @see MPU6050_RA_I2C_SLV4_CTRL
1174:.\mpu6050.c   ****  */
1175:.\mpu6050.c   **** void MPU6050_setSlave4WriteMode(bool mode) {
 3315              		.loc 1 1175 0
 3316              		.cfi_startproc
 3317              		@ args = 0, pretend = 0, frame = 0
 3318              		@ frame_needed = 0, uses_anonymous_args = 0
 3319              	.LVL207:
 3320 0000 08B5     		push	{r3, lr}
 3321              		.cfi_def_cfa_offset 8
 3322              		.cfi_offset 3, -8
 3323              		.cfi_offset 14, -4
 3324 0002 0346     		mov	r3, r0
1176:.\mpu6050.c   ****     I2CWriteBit(devAddr, MPU6050_RA_I2C_SLV4_CTRL, I2C_MPU6050_I2C_SLV4_REG_DIS_BIT, mode);
 3325              		.loc 1 1176 0
 3326 0004 034A     		ldr	r2, .L372
 3327 0006 1078     		ldrb	r0, [r2]	@ zero_extendqisi2
 3328              	.LVL208:
 3329 0008 3421     		movs	r1, #52
 3330 000a 0522     		movs	r2, #5
 3331 000c FFF7FEFF 		bl	I2CWriteBit
 3332              	.LVL209:
 3333 0010 08BD     		pop	{r3, pc}
 3334              	.L373:
 3335 0012 00BF     		.align	2
 3336              	.L372:
 3337 0014 00000000 		.word	devAddr
 3338              		.cfi_endproc
 3339              	.LFE86:
 3340              		.size	MPU6050_setSlave4WriteMode, .-MPU6050_setSlave4WriteMode
 3341              		.section	.text.MPU6050_getSlave4MasterDelay,"ax",%progbits
 3342              		.align	2
 3343              		.global	MPU6050_getSlave4MasterDelay
 3344              		.thumb
 3345              		.thumb_func
 3346              		.type	MPU6050_getSlave4MasterDelay, %function
 3347              	MPU6050_getSlave4MasterDelay:
 3348              	.LFB87:
1177:.\mpu6050.c   **** }
1178:.\mpu6050.c   **** /** Get Slave 4 master delay value.
1179:.\mpu6050.c   ****  * This configures the reduced access rate of I2C slaves relative to the Sample
1180:.\mpu6050.c   ****  * Rate. When a slave's access rate is decreased relative to the Sample Rate,
1181:.\mpu6050.c   ****  * the slave is accessed every:
1182:.\mpu6050.c   ****  *
1183:.\mpu6050.c   ****  *     1 / (1 + I2C_MST_DLY) samples
1184:.\mpu6050.c   ****  *
1185:.\mpu6050.c   ****  * This base Sample Rate in turn is determined by SMPLRT_DIV (register 25) and
1186:.\mpu6050.c   ****  * DLPF_CFG (register 26). Whether a slave's access rate is reduced relative to
1187:.\mpu6050.c   ****  * the Sample Rate is determined by I2C_MST_DELAY_CTRL (register 103). For
1188:.\mpu6050.c   ****  * further information regarding the Sample Rate, please refer to register 25.
1189:.\mpu6050.c   ****  *
1190:.\mpu6050.c   ****  * @return Current Slave 4 master delay value
1191:.\mpu6050.c   ****  * @see MPU6050_RA_I2C_SLV4_CTRL
ARM GAS  C:\Users\Michael\AppData\Local\Temp\ccvFrowP.s 			page 81


1192:.\mpu6050.c   ****  */
1193:.\mpu6050.c   **** uint8_t MPU6050_getSlave4MasterDelay() {
 3349              		.loc 1 1193 0
 3350              		.cfi_startproc
 3351              		@ args = 0, pretend = 0, frame = 0
 3352              		@ frame_needed = 0, uses_anonymous_args = 0
 3353 0000 10B5     		push	{r4, lr}
 3354              		.cfi_def_cfa_offset 8
 3355              		.cfi_offset 4, -8
 3356              		.cfi_offset 14, -4
 3357 0002 82B0     		sub	sp, sp, #8
 3358              		.cfi_def_cfa_offset 16
1194:.\mpu6050.c   ****     I2CReadBits(devAddr, MPU6050_RA_I2C_SLV4_CTRL, I2C_MPU6050_I2C_SLV4_MST_DLY_BIT, I2C_MPU6050_I2
 3359              		.loc 1 1194 0
 3360 0004 054B     		ldr	r3, .L376
 3361 0006 1878     		ldrb	r0, [r3]	@ zero_extendqisi2
 3362 0008 054C     		ldr	r4, .L376+4
 3363 000a 0094     		str	r4, [sp]
 3364 000c 3421     		movs	r1, #52
 3365 000e 0422     		movs	r2, #4
 3366 0010 0523     		movs	r3, #5
 3367 0012 FFF7FEFF 		bl	I2CReadBits
 3368              	.LVL210:
1195:.\mpu6050.c   ****     return buffer[0];
1196:.\mpu6050.c   **** }
 3369              		.loc 1 1196 0
 3370 0016 2078     		ldrb	r0, [r4]	@ zero_extendqisi2
 3371 0018 02B0     		add	sp, sp, #8
 3372              		.cfi_def_cfa_offset 8
 3373              		@ sp needed
 3374 001a 10BD     		pop	{r4, pc}
 3375              	.L377:
 3376              		.align	2
 3377              	.L376:
 3378 001c 00000000 		.word	devAddr
 3379 0020 00000000 		.word	buffer
 3380              		.cfi_endproc
 3381              	.LFE87:
 3382              		.size	MPU6050_getSlave4MasterDelay, .-MPU6050_getSlave4MasterDelay
 3383              		.section	.text.MPU6050_setSlave4MasterDelay,"ax",%progbits
 3384              		.align	2
 3385              		.global	MPU6050_setSlave4MasterDelay
 3386              		.thumb
 3387              		.thumb_func
 3388              		.type	MPU6050_setSlave4MasterDelay, %function
 3389              	MPU6050_setSlave4MasterDelay:
 3390              	.LFB88:
1197:.\mpu6050.c   **** /** Set Slave 4 master delay value.
1198:.\mpu6050.c   ****  * @param delay New Slave 4 master delay value
1199:.\mpu6050.c   ****  * @see getSlave4MasterDelay()
1200:.\mpu6050.c   ****  * @see MPU6050_RA_I2C_SLV4_CTRL
1201:.\mpu6050.c   ****  */
1202:.\mpu6050.c   **** void MPU6050_setSlave4MasterDelay(uint8_t delay) {
 3391              		.loc 1 1202 0
 3392              		.cfi_startproc
 3393              		@ args = 0, pretend = 0, frame = 0
 3394              		@ frame_needed = 0, uses_anonymous_args = 0
ARM GAS  C:\Users\Michael\AppData\Local\Temp\ccvFrowP.s 			page 82


 3395              	.LVL211:
 3396 0000 00B5     		push	{lr}
 3397              		.cfi_def_cfa_offset 4
 3398              		.cfi_offset 14, -4
 3399 0002 83B0     		sub	sp, sp, #12
 3400              		.cfi_def_cfa_offset 16
1203:.\mpu6050.c   ****     I2CWriteBits(devAddr, MPU6050_RA_I2C_SLV4_CTRL, I2C_MPU6050_I2C_SLV4_MST_DLY_BIT, I2C_MPU6050_I
 3401              		.loc 1 1203 0
 3402 0004 054B     		ldr	r3, .L380
 3403 0006 1B78     		ldrb	r3, [r3]	@ zero_extendqisi2
 3404 0008 0090     		str	r0, [sp]
 3405 000a 1846     		mov	r0, r3
 3406              	.LVL212:
 3407 000c 3421     		movs	r1, #52
 3408 000e 0422     		movs	r2, #4
 3409 0010 0523     		movs	r3, #5
 3410 0012 FFF7FEFF 		bl	I2CWriteBits
 3411              	.LVL213:
1204:.\mpu6050.c   **** }
 3412              		.loc 1 1204 0
 3413 0016 03B0     		add	sp, sp, #12
 3414              		.cfi_def_cfa_offset 4
 3415              		@ sp needed
 3416 0018 5DF804FB 		ldr	pc, [sp], #4
 3417              	.L381:
 3418              		.align	2
 3419              	.L380:
 3420 001c 00000000 		.word	devAddr
 3421              		.cfi_endproc
 3422              	.LFE88:
 3423              		.size	MPU6050_setSlave4MasterDelay, .-MPU6050_setSlave4MasterDelay
 3424              		.section	.text.MPU6050_getSlate4InputByte,"ax",%progbits
 3425              		.align	2
 3426              		.global	MPU6050_getSlate4InputByte
 3427              		.thumb
 3428              		.thumb_func
 3429              		.type	MPU6050_getSlate4InputByte, %function
 3430              	MPU6050_getSlate4InputByte:
 3431              	.LFB89:
1205:.\mpu6050.c   **** /** Get last available byte read from Slave 4.
1206:.\mpu6050.c   ****  * This register stores the data read from Slave 4. This field is populated
1207:.\mpu6050.c   ****  * after a read transaction.
1208:.\mpu6050.c   ****  * @return Last available byte read from to Slave 4
1209:.\mpu6050.c   ****  * @see MPU6050_RA_I2C_SLV4_DI
1210:.\mpu6050.c   ****  */
1211:.\mpu6050.c   **** uint8_t MPU6050_getSlate4InputByte() {
 3432              		.loc 1 1211 0
 3433              		.cfi_startproc
 3434              		@ args = 0, pretend = 0, frame = 0
 3435              		@ frame_needed = 0, uses_anonymous_args = 0
 3436 0000 10B5     		push	{r4, lr}
 3437              		.cfi_def_cfa_offset 8
 3438              		.cfi_offset 4, -8
 3439              		.cfi_offset 14, -4
1212:.\mpu6050.c   ****     I2CReadByte(devAddr, MPU6050_RA_I2C_SLV4_DI, buffer);
 3440              		.loc 1 1212 0
 3441 0002 044C     		ldr	r4, .L384
ARM GAS  C:\Users\Michael\AppData\Local\Temp\ccvFrowP.s 			page 83


 3442 0004 044B     		ldr	r3, .L384+4
 3443 0006 1878     		ldrb	r0, [r3]	@ zero_extendqisi2
 3444 0008 3521     		movs	r1, #53
 3445 000a 2246     		mov	r2, r4
 3446 000c FFF7FEFF 		bl	I2CReadByte
 3447              	.LVL214:
1213:.\mpu6050.c   ****     return buffer[0];
1214:.\mpu6050.c   **** }
 3448              		.loc 1 1214 0
 3449 0010 2078     		ldrb	r0, [r4]	@ zero_extendqisi2
 3450 0012 10BD     		pop	{r4, pc}
 3451              	.L385:
 3452              		.align	2
 3453              	.L384:
 3454 0014 00000000 		.word	buffer
 3455 0018 00000000 		.word	devAddr
 3456              		.cfi_endproc
 3457              	.LFE89:
 3458              		.size	MPU6050_getSlate4InputByte, .-MPU6050_getSlate4InputByte
 3459              		.section	.text.MPU6050_getPassthroughStatus,"ax",%progbits
 3460              		.align	2
 3461              		.global	MPU6050_getPassthroughStatus
 3462              		.thumb
 3463              		.thumb_func
 3464              		.type	MPU6050_getPassthroughStatus, %function
 3465              	MPU6050_getPassthroughStatus:
 3466              	.LFB90:
1215:.\mpu6050.c   **** 
1216:.\mpu6050.c   **** // I2C_MST_STATUS register
1217:.\mpu6050.c   **** 
1218:.\mpu6050.c   **** /** Get FSYNC interrupt status.
1219:.\mpu6050.c   ****  * This bit reflects the status of the FSYNC interrupt from an external device
1220:.\mpu6050.c   ****  * into the MPU-60X0. This is used as a way to pass an external interrupt
1221:.\mpu6050.c   ****  * through the MPU-60X0 to the host application processor. When set to 1, this
1222:.\mpu6050.c   ****  * bit will cause an interrupt if FSYNC_INT_EN is asserted in INT_PIN_CFG
1223:.\mpu6050.c   ****  * (Register 55).
1224:.\mpu6050.c   ****  * @return FSYNC interrupt status
1225:.\mpu6050.c   ****  * @see MPU6050_RA_I2C_MST_STATUS
1226:.\mpu6050.c   ****  */
1227:.\mpu6050.c   **** bool MPU6050_getPassthroughStatus() {
 3467              		.loc 1 1227 0
 3468              		.cfi_startproc
 3469              		@ args = 0, pretend = 0, frame = 0
 3470              		@ frame_needed = 0, uses_anonymous_args = 0
 3471 0000 10B5     		push	{r4, lr}
 3472              		.cfi_def_cfa_offset 8
 3473              		.cfi_offset 4, -8
 3474              		.cfi_offset 14, -4
1228:.\mpu6050.c   ****     I2CReadBit(devAddr, MPU6050_RA_I2C_MST_STATUS, MPU6050_MST_PASS_THROUGH_BIT, buffer);
 3475              		.loc 1 1228 0
 3476 0002 064C     		ldr	r4, .L388
 3477 0004 064B     		ldr	r3, .L388+4
 3478 0006 1878     		ldrb	r0, [r3]	@ zero_extendqisi2
 3479 0008 3621     		movs	r1, #54
 3480 000a 0722     		movs	r2, #7
 3481 000c 2346     		mov	r3, r4
 3482 000e FFF7FEFF 		bl	I2CReadBit
ARM GAS  C:\Users\Michael\AppData\Local\Temp\ccvFrowP.s 			page 84


 3483              	.LVL215:
1229:.\mpu6050.c   ****     return buffer[0];
 3484              		.loc 1 1229 0
 3485 0012 2078     		ldrb	r0, [r4]	@ zero_extendqisi2
1230:.\mpu6050.c   **** }
 3486              		.loc 1 1230 0
 3487 0014 0030     		adds	r0, r0, #0
 3488 0016 18BF     		it	ne
 3489 0018 0120     		movne	r0, #1
 3490 001a 10BD     		pop	{r4, pc}
 3491              	.L389:
 3492              		.align	2
 3493              	.L388:
 3494 001c 00000000 		.word	buffer
 3495 0020 00000000 		.word	devAddr
 3496              		.cfi_endproc
 3497              	.LFE90:
 3498              		.size	MPU6050_getPassthroughStatus, .-MPU6050_getPassthroughStatus
 3499              		.section	.text.MPU6050_getSlave4IsDone,"ax",%progbits
 3500              		.align	2
 3501              		.global	MPU6050_getSlave4IsDone
 3502              		.thumb
 3503              		.thumb_func
 3504              		.type	MPU6050_getSlave4IsDone, %function
 3505              	MPU6050_getSlave4IsDone:
 3506              	.LFB91:
1231:.\mpu6050.c   **** /** Get Slave 4 transaction done status.
1232:.\mpu6050.c   ****  * Automatically sets to 1 when a Slave 4 transaction has completed. This
1233:.\mpu6050.c   ****  * triggers an interrupt if the I2C_MST_INT_EN bit in the INT_ENABLE register
1234:.\mpu6050.c   ****  * (Register 56) is asserted and if the SLV_4_DONE_INT bit is asserted in the
1235:.\mpu6050.c   ****  * I2C_SLV4_CTRL register (Register 52).
1236:.\mpu6050.c   ****  * @return Slave 4 transaction done status
1237:.\mpu6050.c   ****  * @see MPU6050_RA_I2C_MST_STATUS
1238:.\mpu6050.c   ****  */
1239:.\mpu6050.c   **** bool MPU6050_getSlave4IsDone() {
 3507              		.loc 1 1239 0
 3508              		.cfi_startproc
 3509              		@ args = 0, pretend = 0, frame = 0
 3510              		@ frame_needed = 0, uses_anonymous_args = 0
 3511 0000 10B5     		push	{r4, lr}
 3512              		.cfi_def_cfa_offset 8
 3513              		.cfi_offset 4, -8
 3514              		.cfi_offset 14, -4
1240:.\mpu6050.c   ****     I2CReadBit(devAddr, MPU6050_RA_I2C_MST_STATUS, MPU6050_MST_I2C_SLV4_DONE_BIT, buffer);
 3515              		.loc 1 1240 0
 3516 0002 064C     		ldr	r4, .L392
 3517 0004 064B     		ldr	r3, .L392+4
 3518 0006 1878     		ldrb	r0, [r3]	@ zero_extendqisi2
 3519 0008 3621     		movs	r1, #54
 3520 000a 0622     		movs	r2, #6
 3521 000c 2346     		mov	r3, r4
 3522 000e FFF7FEFF 		bl	I2CReadBit
 3523              	.LVL216:
1241:.\mpu6050.c   ****     return buffer[0];
 3524              		.loc 1 1241 0
 3525 0012 2078     		ldrb	r0, [r4]	@ zero_extendqisi2
1242:.\mpu6050.c   **** }
ARM GAS  C:\Users\Michael\AppData\Local\Temp\ccvFrowP.s 			page 85


 3526              		.loc 1 1242 0
 3527 0014 0030     		adds	r0, r0, #0
 3528 0016 18BF     		it	ne
 3529 0018 0120     		movne	r0, #1
 3530 001a 10BD     		pop	{r4, pc}
 3531              	.L393:
 3532              		.align	2
 3533              	.L392:
 3534 001c 00000000 		.word	buffer
 3535 0020 00000000 		.word	devAddr
 3536              		.cfi_endproc
 3537              	.LFE91:
 3538              		.size	MPU6050_getSlave4IsDone, .-MPU6050_getSlave4IsDone
 3539              		.section	.text.MPU6050_getLostArbitration,"ax",%progbits
 3540              		.align	2
 3541              		.global	MPU6050_getLostArbitration
 3542              		.thumb
 3543              		.thumb_func
 3544              		.type	MPU6050_getLostArbitration, %function
 3545              	MPU6050_getLostArbitration:
 3546              	.LFB92:
1243:.\mpu6050.c   **** /** Get master arbitration lost status.
1244:.\mpu6050.c   ****  * This bit automatically sets to 1 when the I2C Master has lost arbitration of
1245:.\mpu6050.c   ****  * the auxiliary I2C bus (an error condition). This triggers an interrupt if the
1246:.\mpu6050.c   ****  * I2C_MST_INT_EN bit in the INT_ENABLE register (Register 56) is asserted.
1247:.\mpu6050.c   ****  * @return Master arbitration lost status
1248:.\mpu6050.c   ****  * @see MPU6050_RA_I2C_MST_STATUS
1249:.\mpu6050.c   ****  */
1250:.\mpu6050.c   **** bool MPU6050_getLostArbitration() {
 3547              		.loc 1 1250 0
 3548              		.cfi_startproc
 3549              		@ args = 0, pretend = 0, frame = 0
 3550              		@ frame_needed = 0, uses_anonymous_args = 0
 3551 0000 10B5     		push	{r4, lr}
 3552              		.cfi_def_cfa_offset 8
 3553              		.cfi_offset 4, -8
 3554              		.cfi_offset 14, -4
1251:.\mpu6050.c   ****     I2CReadBit(devAddr, MPU6050_RA_I2C_MST_STATUS, MPU6050_MST_I2C_LOST_ARB_BIT, buffer);
 3555              		.loc 1 1251 0
 3556 0002 064C     		ldr	r4, .L396
 3557 0004 064B     		ldr	r3, .L396+4
 3558 0006 1878     		ldrb	r0, [r3]	@ zero_extendqisi2
 3559 0008 3621     		movs	r1, #54
 3560 000a 0522     		movs	r2, #5
 3561 000c 2346     		mov	r3, r4
 3562 000e FFF7FEFF 		bl	I2CReadBit
 3563              	.LVL217:
1252:.\mpu6050.c   ****     return buffer[0];
 3564              		.loc 1 1252 0
 3565 0012 2078     		ldrb	r0, [r4]	@ zero_extendqisi2
1253:.\mpu6050.c   **** }
 3566              		.loc 1 1253 0
 3567 0014 0030     		adds	r0, r0, #0
 3568 0016 18BF     		it	ne
 3569 0018 0120     		movne	r0, #1
 3570 001a 10BD     		pop	{r4, pc}
 3571              	.L397:
ARM GAS  C:\Users\Michael\AppData\Local\Temp\ccvFrowP.s 			page 86


 3572              		.align	2
 3573              	.L396:
 3574 001c 00000000 		.word	buffer
 3575 0020 00000000 		.word	devAddr
 3576              		.cfi_endproc
 3577              	.LFE92:
 3578              		.size	MPU6050_getLostArbitration, .-MPU6050_getLostArbitration
 3579              		.section	.text.MPU6050_getSlave4Nack,"ax",%progbits
 3580              		.align	2
 3581              		.global	MPU6050_getSlave4Nack
 3582              		.thumb
 3583              		.thumb_func
 3584              		.type	MPU6050_getSlave4Nack, %function
 3585              	MPU6050_getSlave4Nack:
 3586              	.LFB93:
1254:.\mpu6050.c   **** /** Get Slave 4 NACK status.
1255:.\mpu6050.c   ****  * This bit automatically sets to 1 when the I2C Master receives a NACK in a
1256:.\mpu6050.c   ****  * transaction with Slave 4. This triggers an interrupt if the I2C_MST_INT_EN
1257:.\mpu6050.c   ****  * bit in the INT_ENABLE register (Register 56) is asserted.
1258:.\mpu6050.c   ****  * @return Slave 4 NACK interrupt status
1259:.\mpu6050.c   ****  * @see MPU6050_RA_I2C_MST_STATUS
1260:.\mpu6050.c   ****  */
1261:.\mpu6050.c   **** bool MPU6050_getSlave4Nack() {
 3587              		.loc 1 1261 0
 3588              		.cfi_startproc
 3589              		@ args = 0, pretend = 0, frame = 0
 3590              		@ frame_needed = 0, uses_anonymous_args = 0
 3591 0000 10B5     		push	{r4, lr}
 3592              		.cfi_def_cfa_offset 8
 3593              		.cfi_offset 4, -8
 3594              		.cfi_offset 14, -4
1262:.\mpu6050.c   ****     I2CReadBit(devAddr, MPU6050_RA_I2C_MST_STATUS, MPU6050_MST_I2C_SLV4_NACK_BIT, buffer);
 3595              		.loc 1 1262 0
 3596 0002 064C     		ldr	r4, .L400
 3597 0004 064B     		ldr	r3, .L400+4
 3598 0006 1878     		ldrb	r0, [r3]	@ zero_extendqisi2
 3599 0008 3621     		movs	r1, #54
 3600 000a 0422     		movs	r2, #4
 3601 000c 2346     		mov	r3, r4
 3602 000e FFF7FEFF 		bl	I2CReadBit
 3603              	.LVL218:
1263:.\mpu6050.c   ****     return buffer[0];
 3604              		.loc 1 1263 0
 3605 0012 2078     		ldrb	r0, [r4]	@ zero_extendqisi2
1264:.\mpu6050.c   **** }
 3606              		.loc 1 1264 0
 3607 0014 0030     		adds	r0, r0, #0
 3608 0016 18BF     		it	ne
 3609 0018 0120     		movne	r0, #1
 3610 001a 10BD     		pop	{r4, pc}
 3611              	.L401:
 3612              		.align	2
 3613              	.L400:
 3614 001c 00000000 		.word	buffer
 3615 0020 00000000 		.word	devAddr
 3616              		.cfi_endproc
 3617              	.LFE93:
ARM GAS  C:\Users\Michael\AppData\Local\Temp\ccvFrowP.s 			page 87


 3618              		.size	MPU6050_getSlave4Nack, .-MPU6050_getSlave4Nack
 3619              		.section	.text.MPU6050_getSlave3Nack,"ax",%progbits
 3620              		.align	2
 3621              		.global	MPU6050_getSlave3Nack
 3622              		.thumb
 3623              		.thumb_func
 3624              		.type	MPU6050_getSlave3Nack, %function
 3625              	MPU6050_getSlave3Nack:
 3626              	.LFB94:
1265:.\mpu6050.c   **** /** Get Slave 3 NACK status.
1266:.\mpu6050.c   ****  * This bit automatically sets to 1 when the I2C Master receives a NACK in a
1267:.\mpu6050.c   ****  * transaction with Slave 3. This triggers an interrupt if the I2C_MST_INT_EN
1268:.\mpu6050.c   ****  * bit in the INT_ENABLE register (Register 56) is asserted.
1269:.\mpu6050.c   ****  * @return Slave 3 NACK interrupt status
1270:.\mpu6050.c   ****  * @see MPU6050_RA_I2C_MST_STATUS
1271:.\mpu6050.c   ****  */
1272:.\mpu6050.c   **** bool MPU6050_getSlave3Nack() {
 3627              		.loc 1 1272 0
 3628              		.cfi_startproc
 3629              		@ args = 0, pretend = 0, frame = 0
 3630              		@ frame_needed = 0, uses_anonymous_args = 0
 3631 0000 10B5     		push	{r4, lr}
 3632              		.cfi_def_cfa_offset 8
 3633              		.cfi_offset 4, -8
 3634              		.cfi_offset 14, -4
1273:.\mpu6050.c   ****     I2CReadBit(devAddr, MPU6050_RA_I2C_MST_STATUS, MPU6050_MST_I2C_SLV3_NACK_BIT, buffer);
 3635              		.loc 1 1273 0
 3636 0002 064C     		ldr	r4, .L404
 3637 0004 064B     		ldr	r3, .L404+4
 3638 0006 1878     		ldrb	r0, [r3]	@ zero_extendqisi2
 3639 0008 3621     		movs	r1, #54
 3640 000a 0322     		movs	r2, #3
 3641 000c 2346     		mov	r3, r4
 3642 000e FFF7FEFF 		bl	I2CReadBit
 3643              	.LVL219:
1274:.\mpu6050.c   ****     return buffer[0];
 3644              		.loc 1 1274 0
 3645 0012 2078     		ldrb	r0, [r4]	@ zero_extendqisi2
1275:.\mpu6050.c   **** }
 3646              		.loc 1 1275 0
 3647 0014 0030     		adds	r0, r0, #0
 3648 0016 18BF     		it	ne
 3649 0018 0120     		movne	r0, #1
 3650 001a 10BD     		pop	{r4, pc}
 3651              	.L405:
 3652              		.align	2
 3653              	.L404:
 3654 001c 00000000 		.word	buffer
 3655 0020 00000000 		.word	devAddr
 3656              		.cfi_endproc
 3657              	.LFE94:
 3658              		.size	MPU6050_getSlave3Nack, .-MPU6050_getSlave3Nack
 3659              		.section	.text.MPU6050_getSlave2Nack,"ax",%progbits
 3660              		.align	2
 3661              		.global	MPU6050_getSlave2Nack
 3662              		.thumb
 3663              		.thumb_func
ARM GAS  C:\Users\Michael\AppData\Local\Temp\ccvFrowP.s 			page 88


 3664              		.type	MPU6050_getSlave2Nack, %function
 3665              	MPU6050_getSlave2Nack:
 3666              	.LFB95:
1276:.\mpu6050.c   **** /** Get Slave 2 NACK status.
1277:.\mpu6050.c   ****  * This bit automatically sets to 1 when the I2C Master receives a NACK in a
1278:.\mpu6050.c   ****  * transaction with Slave 2. This triggers an interrupt if the I2C_MST_INT_EN
1279:.\mpu6050.c   ****  * bit in the INT_ENABLE register (Register 56) is asserted.
1280:.\mpu6050.c   ****  * @return Slave 2 NACK interrupt status
1281:.\mpu6050.c   ****  * @see MPU6050_RA_I2C_MST_STATUS
1282:.\mpu6050.c   ****  */
1283:.\mpu6050.c   **** bool MPU6050_getSlave2Nack() {
 3667              		.loc 1 1283 0
 3668              		.cfi_startproc
 3669              		@ args = 0, pretend = 0, frame = 0
 3670              		@ frame_needed = 0, uses_anonymous_args = 0
 3671 0000 10B5     		push	{r4, lr}
 3672              		.cfi_def_cfa_offset 8
 3673              		.cfi_offset 4, -8
 3674              		.cfi_offset 14, -4
1284:.\mpu6050.c   ****     I2CReadBit(devAddr, MPU6050_RA_I2C_MST_STATUS, MPU6050_MST_I2C_SLV2_NACK_BIT, buffer);
 3675              		.loc 1 1284 0
 3676 0002 064C     		ldr	r4, .L408
 3677 0004 064B     		ldr	r3, .L408+4
 3678 0006 1878     		ldrb	r0, [r3]	@ zero_extendqisi2
 3679 0008 3621     		movs	r1, #54
 3680 000a 0222     		movs	r2, #2
 3681 000c 2346     		mov	r3, r4
 3682 000e FFF7FEFF 		bl	I2CReadBit
 3683              	.LVL220:
1285:.\mpu6050.c   ****     return buffer[0];
 3684              		.loc 1 1285 0
 3685 0012 2078     		ldrb	r0, [r4]	@ zero_extendqisi2
1286:.\mpu6050.c   **** }
 3686              		.loc 1 1286 0
 3687 0014 0030     		adds	r0, r0, #0
 3688 0016 18BF     		it	ne
 3689 0018 0120     		movne	r0, #1
 3690 001a 10BD     		pop	{r4, pc}
 3691              	.L409:
 3692              		.align	2
 3693              	.L408:
 3694 001c 00000000 		.word	buffer
 3695 0020 00000000 		.word	devAddr
 3696              		.cfi_endproc
 3697              	.LFE95:
 3698              		.size	MPU6050_getSlave2Nack, .-MPU6050_getSlave2Nack
 3699              		.section	.text.MPU6050_getSlave1Nack,"ax",%progbits
 3700              		.align	2
 3701              		.global	MPU6050_getSlave1Nack
 3702              		.thumb
 3703              		.thumb_func
 3704              		.type	MPU6050_getSlave1Nack, %function
 3705              	MPU6050_getSlave1Nack:
 3706              	.LFB96:
1287:.\mpu6050.c   **** /** Get Slave 1 NACK status.
1288:.\mpu6050.c   ****  * This bit automatically sets to 1 when the I2C Master receives a NACK in a
1289:.\mpu6050.c   ****  * transaction with Slave 1. This triggers an interrupt if the I2C_MST_INT_EN
ARM GAS  C:\Users\Michael\AppData\Local\Temp\ccvFrowP.s 			page 89


1290:.\mpu6050.c   ****  * bit in the INT_ENABLE register (Register 56) is asserted.
1291:.\mpu6050.c   ****  * @return Slave 1 NACK interrupt status
1292:.\mpu6050.c   ****  * @see MPU6050_RA_I2C_MST_STATUS
1293:.\mpu6050.c   ****  */
1294:.\mpu6050.c   **** bool MPU6050_getSlave1Nack() {
 3707              		.loc 1 1294 0
 3708              		.cfi_startproc
 3709              		@ args = 0, pretend = 0, frame = 0
 3710              		@ frame_needed = 0, uses_anonymous_args = 0
 3711 0000 10B5     		push	{r4, lr}
 3712              		.cfi_def_cfa_offset 8
 3713              		.cfi_offset 4, -8
 3714              		.cfi_offset 14, -4
1295:.\mpu6050.c   ****     I2CReadBit(devAddr, MPU6050_RA_I2C_MST_STATUS, MPU6050_MST_I2C_SLV1_NACK_BIT, buffer);
 3715              		.loc 1 1295 0
 3716 0002 064C     		ldr	r4, .L412
 3717 0004 064B     		ldr	r3, .L412+4
 3718 0006 1878     		ldrb	r0, [r3]	@ zero_extendqisi2
 3719 0008 3621     		movs	r1, #54
 3720 000a 0122     		movs	r2, #1
 3721 000c 2346     		mov	r3, r4
 3722 000e FFF7FEFF 		bl	I2CReadBit
 3723              	.LVL221:
1296:.\mpu6050.c   ****     return buffer[0];
 3724              		.loc 1 1296 0
 3725 0012 2078     		ldrb	r0, [r4]	@ zero_extendqisi2
1297:.\mpu6050.c   **** }
 3726              		.loc 1 1297 0
 3727 0014 0030     		adds	r0, r0, #0
 3728 0016 18BF     		it	ne
 3729 0018 0120     		movne	r0, #1
 3730 001a 10BD     		pop	{r4, pc}
 3731              	.L413:
 3732              		.align	2
 3733              	.L412:
 3734 001c 00000000 		.word	buffer
 3735 0020 00000000 		.word	devAddr
 3736              		.cfi_endproc
 3737              	.LFE96:
 3738              		.size	MPU6050_getSlave1Nack, .-MPU6050_getSlave1Nack
 3739              		.section	.text.MPU6050_getSlave0Nack,"ax",%progbits
 3740              		.align	2
 3741              		.global	MPU6050_getSlave0Nack
 3742              		.thumb
 3743              		.thumb_func
 3744              		.type	MPU6050_getSlave0Nack, %function
 3745              	MPU6050_getSlave0Nack:
 3746              	.LFB97:
1298:.\mpu6050.c   **** /** Get Slave 0 NACK status.
1299:.\mpu6050.c   ****  * This bit automatically sets to 1 when the I2C Master receives a NACK in a
1300:.\mpu6050.c   ****  * transaction with Slave 0. This triggers an interrupt if the I2C_MST_INT_EN
1301:.\mpu6050.c   ****  * bit in the INT_ENABLE register (Register 56) is asserted.
1302:.\mpu6050.c   ****  * @return Slave 0 NACK interrupt status
1303:.\mpu6050.c   ****  * @see MPU6050_RA_I2C_MST_STATUS
1304:.\mpu6050.c   ****  */
1305:.\mpu6050.c   **** bool MPU6050_getSlave0Nack() {
 3747              		.loc 1 1305 0
ARM GAS  C:\Users\Michael\AppData\Local\Temp\ccvFrowP.s 			page 90


 3748              		.cfi_startproc
 3749              		@ args = 0, pretend = 0, frame = 0
 3750              		@ frame_needed = 0, uses_anonymous_args = 0
 3751 0000 10B5     		push	{r4, lr}
 3752              		.cfi_def_cfa_offset 8
 3753              		.cfi_offset 4, -8
 3754              		.cfi_offset 14, -4
1306:.\mpu6050.c   ****     I2CReadBit(devAddr, MPU6050_RA_I2C_MST_STATUS, MPU6050_MST_I2C_SLV0_NACK_BIT, buffer);
 3755              		.loc 1 1306 0
 3756 0002 064C     		ldr	r4, .L416
 3757 0004 064B     		ldr	r3, .L416+4
 3758 0006 1878     		ldrb	r0, [r3]	@ zero_extendqisi2
 3759 0008 3621     		movs	r1, #54
 3760 000a 0022     		movs	r2, #0
 3761 000c 2346     		mov	r3, r4
 3762 000e FFF7FEFF 		bl	I2CReadBit
 3763              	.LVL222:
1307:.\mpu6050.c   ****     return buffer[0];
 3764              		.loc 1 1307 0
 3765 0012 2078     		ldrb	r0, [r4]	@ zero_extendqisi2
1308:.\mpu6050.c   **** }
 3766              		.loc 1 1308 0
 3767 0014 0030     		adds	r0, r0, #0
 3768 0016 18BF     		it	ne
 3769 0018 0120     		movne	r0, #1
 3770 001a 10BD     		pop	{r4, pc}
 3771              	.L417:
 3772              		.align	2
 3773              	.L416:
 3774 001c 00000000 		.word	buffer
 3775 0020 00000000 		.word	devAddr
 3776              		.cfi_endproc
 3777              	.LFE97:
 3778              		.size	MPU6050_getSlave0Nack, .-MPU6050_getSlave0Nack
 3779              		.section	.text.MPU6050_getInterruptMode,"ax",%progbits
 3780              		.align	2
 3781              		.global	MPU6050_getInterruptMode
 3782              		.thumb
 3783              		.thumb_func
 3784              		.type	MPU6050_getInterruptMode, %function
 3785              	MPU6050_getInterruptMode:
 3786              	.LFB98:
1309:.\mpu6050.c   **** 
1310:.\mpu6050.c   **** // INT_PIN_CFG register
1311:.\mpu6050.c   **** 
1312:.\mpu6050.c   **** /** Get interrupt logic level mode.
1313:.\mpu6050.c   ****  * Will be set 0 for active-high, 1 for active-low.
1314:.\mpu6050.c   ****  * @return Current interrupt mode (0=active-high, 1=active-low)
1315:.\mpu6050.c   ****  * @see MPU6050_RA_INT_PIN_CFG
1316:.\mpu6050.c   ****  * @see MPU6050_INTCFG_INT_LEVEL_BIT
1317:.\mpu6050.c   ****  */
1318:.\mpu6050.c   **** bool MPU6050_getInterruptMode() {
 3787              		.loc 1 1318 0
 3788              		.cfi_startproc
 3789              		@ args = 0, pretend = 0, frame = 0
 3790              		@ frame_needed = 0, uses_anonymous_args = 0
 3791 0000 10B5     		push	{r4, lr}
ARM GAS  C:\Users\Michael\AppData\Local\Temp\ccvFrowP.s 			page 91


 3792              		.cfi_def_cfa_offset 8
 3793              		.cfi_offset 4, -8
 3794              		.cfi_offset 14, -4
1319:.\mpu6050.c   ****     I2CReadBit(devAddr, MPU6050_RA_INT_PIN_CFG, MPU6050_INTCFG_INT_LEVEL_BIT, buffer);
 3795              		.loc 1 1319 0
 3796 0002 064C     		ldr	r4, .L420
 3797 0004 064B     		ldr	r3, .L420+4
 3798 0006 1878     		ldrb	r0, [r3]	@ zero_extendqisi2
 3799 0008 3721     		movs	r1, #55
 3800 000a 0722     		movs	r2, #7
 3801 000c 2346     		mov	r3, r4
 3802 000e FFF7FEFF 		bl	I2CReadBit
 3803              	.LVL223:
1320:.\mpu6050.c   ****     return buffer[0];
 3804              		.loc 1 1320 0
 3805 0012 2078     		ldrb	r0, [r4]	@ zero_extendqisi2
1321:.\mpu6050.c   **** }
 3806              		.loc 1 1321 0
 3807 0014 0030     		adds	r0, r0, #0
 3808 0016 18BF     		it	ne
 3809 0018 0120     		movne	r0, #1
 3810 001a 10BD     		pop	{r4, pc}
 3811              	.L421:
 3812              		.align	2
 3813              	.L420:
 3814 001c 00000000 		.word	buffer
 3815 0020 00000000 		.word	devAddr
 3816              		.cfi_endproc
 3817              	.LFE98:
 3818              		.size	MPU6050_getInterruptMode, .-MPU6050_getInterruptMode
 3819              		.section	.text.MPU6050_setInterruptMode,"ax",%progbits
 3820              		.align	2
 3821              		.global	MPU6050_setInterruptMode
 3822              		.thumb
 3823              		.thumb_func
 3824              		.type	MPU6050_setInterruptMode, %function
 3825              	MPU6050_setInterruptMode:
 3826              	.LFB99:
1322:.\mpu6050.c   **** /** Set interrupt logic level mode.
1323:.\mpu6050.c   ****  * @param mode New interrupt mode (0=active-high, 1=active-low)
1324:.\mpu6050.c   ****  * @see getInterruptMode()
1325:.\mpu6050.c   ****  * @see MPU6050_RA_INT_PIN_CFG
1326:.\mpu6050.c   ****  * @see MPU6050_INTCFG_INT_LEVEL_BIT
1327:.\mpu6050.c   ****  */
1328:.\mpu6050.c   **** void MPU6050_setInterruptMode(bool mode) {
 3827              		.loc 1 1328 0
 3828              		.cfi_startproc
 3829              		@ args = 0, pretend = 0, frame = 0
 3830              		@ frame_needed = 0, uses_anonymous_args = 0
 3831              	.LVL224:
 3832 0000 08B5     		push	{r3, lr}
 3833              		.cfi_def_cfa_offset 8
 3834              		.cfi_offset 3, -8
 3835              		.cfi_offset 14, -4
 3836 0002 0346     		mov	r3, r0
1329:.\mpu6050.c   ****    I2CWriteBit(devAddr, MPU6050_RA_INT_PIN_CFG, MPU6050_INTCFG_INT_LEVEL_BIT, mode);
 3837              		.loc 1 1329 0
ARM GAS  C:\Users\Michael\AppData\Local\Temp\ccvFrowP.s 			page 92


 3838 0004 034A     		ldr	r2, .L424
 3839 0006 1078     		ldrb	r0, [r2]	@ zero_extendqisi2
 3840              	.LVL225:
 3841 0008 3721     		movs	r1, #55
 3842 000a 0722     		movs	r2, #7
 3843 000c FFF7FEFF 		bl	I2CWriteBit
 3844              	.LVL226:
 3845 0010 08BD     		pop	{r3, pc}
 3846              	.L425:
 3847 0012 00BF     		.align	2
 3848              	.L424:
 3849 0014 00000000 		.word	devAddr
 3850              		.cfi_endproc
 3851              	.LFE99:
 3852              		.size	MPU6050_setInterruptMode, .-MPU6050_setInterruptMode
 3853              		.section	.text.MPU6050_getInterruptDrive,"ax",%progbits
 3854              		.align	2
 3855              		.global	MPU6050_getInterruptDrive
 3856              		.thumb
 3857              		.thumb_func
 3858              		.type	MPU6050_getInterruptDrive, %function
 3859              	MPU6050_getInterruptDrive:
 3860              	.LFB100:
1330:.\mpu6050.c   **** }
1331:.\mpu6050.c   **** /** Get interrupt drive mode.
1332:.\mpu6050.c   ****  * Will be set 0 for push-pull, 1 for open-drain.
1333:.\mpu6050.c   ****  * @return Current interrupt drive mode (0=push-pull, 1=open-drain)
1334:.\mpu6050.c   ****  * @see MPU6050_RA_INT_PIN_CFG
1335:.\mpu6050.c   ****  * @see MPU6050_INTCFG_INT_OPEN_BIT
1336:.\mpu6050.c   ****  */
1337:.\mpu6050.c   **** bool MPU6050_getInterruptDrive() {
 3861              		.loc 1 1337 0
 3862              		.cfi_startproc
 3863              		@ args = 0, pretend = 0, frame = 0
 3864              		@ frame_needed = 0, uses_anonymous_args = 0
 3865 0000 10B5     		push	{r4, lr}
 3866              		.cfi_def_cfa_offset 8
 3867              		.cfi_offset 4, -8
 3868              		.cfi_offset 14, -4
1338:.\mpu6050.c   ****     I2CReadBit(devAddr, MPU6050_RA_INT_PIN_CFG, MPU6050_INTCFG_INT_OPEN_BIT, buffer);
 3869              		.loc 1 1338 0
 3870 0002 064C     		ldr	r4, .L428
 3871 0004 064B     		ldr	r3, .L428+4
 3872 0006 1878     		ldrb	r0, [r3]	@ zero_extendqisi2
 3873 0008 3721     		movs	r1, #55
 3874 000a 0622     		movs	r2, #6
 3875 000c 2346     		mov	r3, r4
 3876 000e FFF7FEFF 		bl	I2CReadBit
 3877              	.LVL227:
1339:.\mpu6050.c   ****     return buffer[0];
 3878              		.loc 1 1339 0
 3879 0012 2078     		ldrb	r0, [r4]	@ zero_extendqisi2
1340:.\mpu6050.c   **** }
 3880              		.loc 1 1340 0
 3881 0014 0030     		adds	r0, r0, #0
 3882 0016 18BF     		it	ne
 3883 0018 0120     		movne	r0, #1
ARM GAS  C:\Users\Michael\AppData\Local\Temp\ccvFrowP.s 			page 93


 3884 001a 10BD     		pop	{r4, pc}
 3885              	.L429:
 3886              		.align	2
 3887              	.L428:
 3888 001c 00000000 		.word	buffer
 3889 0020 00000000 		.word	devAddr
 3890              		.cfi_endproc
 3891              	.LFE100:
 3892              		.size	MPU6050_getInterruptDrive, .-MPU6050_getInterruptDrive
 3893              		.section	.text.MPU6050_setInterruptDrive,"ax",%progbits
 3894              		.align	2
 3895              		.global	MPU6050_setInterruptDrive
 3896              		.thumb
 3897              		.thumb_func
 3898              		.type	MPU6050_setInterruptDrive, %function
 3899              	MPU6050_setInterruptDrive:
 3900              	.LFB101:
1341:.\mpu6050.c   **** /** Set interrupt drive mode.
1342:.\mpu6050.c   ****  * @param drive New interrupt drive mode (0=push-pull, 1=open-drain)
1343:.\mpu6050.c   ****  * @see getInterruptDrive()
