ARM GAS  C:\Users\Michael\AppData\Local\Temp\ccTkcZWA.s 			page 1


   1              		.syntax unified
   2              		.cpu cortex-m3
   3              		.fpu softvfp
   4              		.eabi_attribute 20, 1
   5              		.eabi_attribute 21, 1
   6              		.eabi_attribute 23, 3
   7              		.eabi_attribute 24, 1
   8              		.eabi_attribute 25, 1
   9              		.eabi_attribute 26, 1
  10              		.eabi_attribute 30, 1
  11              		.eabi_attribute 34, 1
  12              		.eabi_attribute 18, 4
  13              		.thumb
  14              		.file	"pid.c"
  15              		.text
  16              	.Ltext0:
  17              		.cfi_sections	.debug_frame
  18              		.section	.text.init_pid,"ax",%progbits
  19              		.align	2
  20              		.global	init_pid
  21              		.thumb
  22              		.thumb_func
  23              		.type	init_pid, %function
  24              	init_pid:
  25              	.LFB63:
  26              		.file 1 ".\\pid.c"
   1:.\pid.c       **** /* ========================================
   2:.\pid.c       ****  *
   3:.\pid.c       ****  * Copyright YOUR COMPANY, THE YEAR
   4:.\pid.c       ****  * All Rights Reserved
   5:.\pid.c       ****  * UNPUBLISHED, LICENSED SOFTWARE.
   6:.\pid.c       ****  *
   7:.\pid.c       ****  * CONFIDENTIAL AND PROPRIETARY INFORMATION
   8:.\pid.c       ****  * WHICH IS THE PROPERTY OF your company.
   9:.\pid.c       ****  *
  10:.\pid.c       ****  * ========================================
  11:.\pid.c       **** */
  12:.\pid.c       **** #include "project.h"
  13:.\pid.c       **** #include "pid.h"
  14:.\pid.c       **** 
  15:.\pid.c       **** void init_pid() {
  27              		.loc 1 15 0
  28              		.cfi_startproc
  29              		@ args = 0, pretend = 0, frame = 0
  30              		@ frame_needed = 0, uses_anonymous_args = 0
  31              		@ link register save eliminated.
  32 0000 7047     		bx	lr
  33              		.cfi_endproc
  34              	.LFE63:
  35              		.size	init_pid, .-init_pid
  36 0002 00BF     		.section	.text.construct_pid,"ax",%progbits
  37              		.align	2
  38              		.global	construct_pid
  39              		.thumb
  40              		.thumb_func
  41              		.type	construct_pid, %function
  42              	construct_pid:
ARM GAS  C:\Users\Michael\AppData\Local\Temp\ccTkcZWA.s 			page 2


  43              	.LFB64:
  16:.\pid.c       ****     float kp;
  17:.\pid.c       ****     float ki;
  18:.\pid.c       ****     float kd;
  19:.\pid.c       ****     
  20:.\pid.c       ****     float error;
  21:.\pid.c       ****     float prev_error;
  22:.\pid.c       ****     float d_error;
  23:.\pid.c       ****     float sum_error;
  24:.\pid.c       ****     
  25:.\pid.c       ****     float setpoint;
  26:.\pid.c       ****     float value;
  27:.\pid.c       ****     float dt;
  28:.\pid.c       ****     float output;
  29:.\pid.c       **** }
  30:.\pid.c       **** 
  31:.\pid.c       **** void construct_pid(PID *pid, float kp, float ki, float kd) {
  44              		.loc 1 31 0
  45              		.cfi_startproc
  46              		@ args = 0, pretend = 0, frame = 0
  47              		@ frame_needed = 0, uses_anonymous_args = 0
  48              		@ link register save eliminated.
  49              	.LVL0:
  32:.\pid.c       ****     pid->kp = kp;
  50              		.loc 1 32 0
  51 0000 0160     		str	r1, [r0]	@ float
  33:.\pid.c       ****     pid->ki = ki;
  52              		.loc 1 33 0
  53 0002 4260     		str	r2, [r0, #4]	@ float
  34:.\pid.c       ****     pid->kd = kd;
  54              		.loc 1 34 0
  55 0004 8360     		str	r3, [r0, #8]	@ float
  35:.\pid.c       ****     pid->error = 0;
  56              		.loc 1 35 0
  57 0006 0023     		movs	r3, #0
  58              	.LVL1:
  59 0008 C360     		str	r3, [r0, #12]	@ float
  36:.\pid.c       ****     pid->prev_error = 0;
  60              		.loc 1 36 0
  61 000a 0361     		str	r3, [r0, #16]	@ float
  37:.\pid.c       ****     pid->d_error = 0;
  62              		.loc 1 37 0
  63 000c 4361     		str	r3, [r0, #20]	@ float
  38:.\pid.c       ****     pid->sum_error = 0;
  64              		.loc 1 38 0
  65 000e 8361     		str	r3, [r0, #24]	@ float
  39:.\pid.c       ****     pid->setpoint = 0;
  66              		.loc 1 39 0
  67 0010 C361     		str	r3, [r0, #28]	@ float
  40:.\pid.c       ****     pid->value = 0;
  68              		.loc 1 40 0
  69 0012 0362     		str	r3, [r0, #32]	@ float
  41:.\pid.c       ****     pid->dt = 0;
  70              		.loc 1 41 0
  71 0014 4362     		str	r3, [r0, #36]	@ float
  42:.\pid.c       ****     pid->output = 0;
  72              		.loc 1 42 0
ARM GAS  C:\Users\Michael\AppData\Local\Temp\ccTkcZWA.s 			page 3


  73 0016 8362     		str	r3, [r0, #40]	@ float
  74 0018 7047     		bx	lr
  75              		.cfi_endproc
  76              	.LFE64:
  77              		.size	construct_pid, .-construct_pid
  78              		.global	__aeabi_fsub
  79              		.global	__aeabi_fmul
  80              		.global	__aeabi_fadd
  81              		.global	__aeabi_fdiv
  82 001a 00BF     		.section	.text.get_pid_output,"ax",%progbits
  83              		.align	2
  84              		.global	get_pid_output
  85              		.thumb
  86              		.thumb_func
  87              		.type	get_pid_output, %function
  88              	get_pid_output:
  89              	.LFB65:
  43:.\pid.c       **** }
  44:.\pid.c       **** 
  45:.\pid.c       **** void get_pid_output(PID *pid, float setpoint, float value, float dt) {
  90              		.loc 1 45 0
  91              		.cfi_startproc
  92              		@ args = 0, pretend = 0, frame = 0
  93              		@ frame_needed = 0, uses_anonymous_args = 0
  94              	.LVL2:
  95 0000 F8B5     		push	{r3, r4, r5, r6, r7, lr}
  96              		.cfi_def_cfa_offset 24
  97              		.cfi_offset 3, -24
  98              		.cfi_offset 4, -20
  99              		.cfi_offset 5, -16
 100              		.cfi_offset 6, -12
 101              		.cfi_offset 7, -8
 102              		.cfi_offset 14, -4
 103 0002 0446     		mov	r4, r0
 104 0004 1E46     		mov	r6, r3
  46:.\pid.c       ****     pid->setpoint = setpoint;
 105              		.loc 1 46 0
 106 0006 C161     		str	r1, [r0, #28]	@ float
  47:.\pid.c       ****     pid->value = value;
 107              		.loc 1 47 0
 108 0008 0262     		str	r2, [r0, #32]	@ float
  48:.\pid.c       ****     pid->dt = dt;
 109              		.loc 1 48 0
 110 000a 6362     		str	r3, [r4, #36]	@ float
  49:.\pid.c       ****     
  50:.\pid.c       ****     pid->error = pid->setpoint - pid->value;
 111              		.loc 1 50 0
 112 000c 0846     		mov	r0, r1
 113              	.LVL3:
 114 000e 1146     		mov	r1, r2
 115              	.LVL4:
 116 0010 FFF7FEFF 		bl	__aeabi_fsub
 117              	.LVL5:
 118 0014 0546     		mov	r5, r0
 119 0016 E060     		str	r0, [r4, #12]	@ float
  51:.\pid.c       ****     pid->sum_error = pid->sum_error + pid->error * pid->dt;
 120              		.loc 1 51 0
ARM GAS  C:\Users\Michael\AppData\Local\Temp\ccTkcZWA.s 			page 4


 121 0018 A769     		ldr	r7, [r4, #24]	@ float
 122 001a 3046     		mov	r0, r6
 123 001c 2946     		mov	r1, r5
 124 001e FFF7FEFF 		bl	__aeabi_fmul
 125              	.LVL6:
 126 0022 0146     		mov	r1, r0
 127 0024 3846     		mov	r0, r7
 128 0026 FFF7FEFF 		bl	__aeabi_fadd
 129              	.LVL7:
 130 002a 0746     		mov	r7, r0
 131 002c A061     		str	r0, [r4, #24]	@ float
  52:.\pid.c       ****     pid->d_error = (pid->error - pid->prev_error)/pid->dt;
 132              		.loc 1 52 0
 133 002e 2846     		mov	r0, r5
 134 0030 2169     		ldr	r1, [r4, #16]	@ float
 135 0032 FFF7FEFF 		bl	__aeabi_fsub
 136              	.LVL8:
 137 0036 3146     		mov	r1, r6
 138 0038 FFF7FEFF 		bl	__aeabi_fdiv
 139              	.LVL9:
 140 003c 0646     		mov	r6, r0
 141              	.LVL10:
 142 003e 6061     		str	r0, [r4, #20]	@ float
  53:.\pid.c       ****     pid->prev_error = pid->error;
 143              		.loc 1 53 0
 144 0040 2561     		str	r5, [r4, #16]	@ float
  54:.\pid.c       ****     
  55:.\pid.c       ****     pid->output = pid->kp * pid->error + pid->ki * pid->sum_error + pid->kd * pid->d_error;
 145              		.loc 1 55 0
 146 0042 2846     		mov	r0, r5
 147 0044 2168     		ldr	r1, [r4]	@ float
 148 0046 FFF7FEFF 		bl	__aeabi_fmul
 149              	.LVL11:
 150 004a 0546     		mov	r5, r0
 151 004c 3846     		mov	r0, r7
 152 004e 6168     		ldr	r1, [r4, #4]	@ float
 153 0050 FFF7FEFF 		bl	__aeabi_fmul
 154              	.LVL12:
 155 0054 0146     		mov	r1, r0
 156 0056 2846     		mov	r0, r5
 157 0058 FFF7FEFF 		bl	__aeabi_fadd
 158              	.LVL13:
 159 005c 0546     		mov	r5, r0
 160 005e 3046     		mov	r0, r6
 161 0060 A168     		ldr	r1, [r4, #8]	@ float
 162 0062 FFF7FEFF 		bl	__aeabi_fmul
 163              	.LVL14:
 164 0066 0146     		mov	r1, r0
 165 0068 2846     		mov	r0, r5
 166 006a FFF7FEFF 		bl	__aeabi_fadd
 167              	.LVL15:
 168 006e A062     		str	r0, [r4, #40]	@ float
 169 0070 F8BD     		pop	{r3, r4, r5, r6, r7, pc}
 170              		.cfi_endproc
 171              	.LFE65:
 172              		.size	get_pid_output, .-get_pid_output
 173 0072 00BF     		.section	.text.reset_pid_sum_error,"ax",%progbits
ARM GAS  C:\Users\Michael\AppData\Local\Temp\ccTkcZWA.s 			page 5


 174              		.align	2
 175              		.global	reset_pid_sum_error
 176              		.thumb
 177              		.thumb_func
 178              		.type	reset_pid_sum_error, %function
 179              	reset_pid_sum_error:
 180              	.LFB66:
  56:.\pid.c       **** }
  57:.\pid.c       **** 
  58:.\pid.c       **** void reset_pid_sum_error(PID *pid) {
 181              		.loc 1 58 0
 182              		.cfi_startproc
 183              		@ args = 0, pretend = 0, frame = 0
 184              		@ frame_needed = 0, uses_anonymous_args = 0
 185              		@ link register save eliminated.
 186              	.LVL16:
  59:.\pid.c       ****     pid->sum_error = 0.0;
 187              		.loc 1 59 0
 188 0000 0023     		movs	r3, #0
 189 0002 8361     		str	r3, [r0, #24]	@ float
 190 0004 7047     		bx	lr
 191              		.cfi_endproc
 192              	.LFE66:
 193              		.size	reset_pid_sum_error, .-reset_pid_sum_error
 194              		.comm	DC_MOTOR_POS_TOLERANCE,4,4
 195              		.comm	NUM_DC_MOTORS,4,4
 196 0006 00BF     		.text
 197              	.Letext0:
 198              		.file 2 "c:\\program files (x86)\\cypress\\psoc creator\\3.3\\psoc creator\\import\\gnu\\arm\\4.9.
 199              		.file 3 "c:\\program files (x86)\\cypress\\psoc creator\\3.3\\psoc creator\\import\\gnu\\arm\\4.9.
 200              		.file 4 ".\\pid.h"
 201              		.file 5 "Generated_Source\\PSoC5/core_cm3.h"