ARM GAS  C:\Users\Michael\AppData\Local\Temp\cc4yVnPO.s 			page 1


   1              		.syntax unified
   2              		.cpu cortex-m3
   3              		.fpu softvfp
   4              		.eabi_attribute 20, 1
   5              		.eabi_attribute 21, 1
   6              		.eabi_attribute 23, 3
   7              		.eabi_attribute 24, 1
   8              		.eabi_attribute 25, 1
   9              		.eabi_attribute 26, 1
  10              		.eabi_attribute 30, 1
  11              		.eabi_attribute 34, 1
  12              		.eabi_attribute 18, 4
  13              		.thumb
  14              		.file	"rc_ch.c"
  15              		.text
  16              	.Ltext0:
  17              		.cfi_sections	.debug_frame
  18              		.section	.text.RC_Ch1_Timer_ISR_Handler,"ax",%progbits
  19              		.align	2
  20              		.global	RC_Ch1_Timer_ISR_Handler
  21              		.thumb
  22              		.thumb_func
  23              		.type	RC_Ch1_Timer_ISR_Handler, %function
  24              	RC_Ch1_Timer_ISR_Handler:
  25              	.LFB63:
  26              		.file 1 ".\\rc_ch.c"
   1:.\rc_ch.c     **** /* ========================================
   2:.\rc_ch.c     ****  *
   3:.\rc_ch.c     ****  * Copyright YOUR COMPANY, THE YEAR
   4:.\rc_ch.c     ****  * All Rights Reserved
   5:.\rc_ch.c     ****  * UNPUBLISHED, LICENSED SOFTWARE.
   6:.\rc_ch.c     ****  *
   7:.\rc_ch.c     ****  * CONFIDENTIAL AND PROPRIETARY INFORMATION
   8:.\rc_ch.c     ****  * WHICH IS THE PROPERTY OF your company.
   9:.\rc_ch.c     ****  *
  10:.\rc_ch.c     ****  * ========================================
  11:.\rc_ch.c     **** */
  12:.\rc_ch.c     **** #include "project.h"
  13:.\rc_ch.c     **** #include "milliseconds.h"
  14:.\rc_ch.c     **** #include "rc_ch.h"
  15:.\rc_ch.c     **** 
  16:.\rc_ch.c     **** const int RC_TIMER_PERIOD = 500000 - 1;
  17:.\rc_ch.c     **** const int RC_TIMER_MAX_VALUE = 45000;
  18:.\rc_ch.c     **** const int RC_TIMER_MID_VALUE = 33000;
  19:.\rc_ch.c     **** const int RC_TIMER_MIN_VALUE = 24000;
  20:.\rc_ch.c     **** const int RC_TIMER_MID_TOLERANCE = 600;
  21:.\rc_ch.c     **** const int RC_CONNECTION_TIMEOUT = 50;
  22:.\rc_ch.c     **** 
  23:.\rc_ch.c     **** const int RC_MAX_VALUE = 240;
  24:.\rc_ch.c     **** const int RC_MIN_VALUE = 0;
  25:.\rc_ch.c     **** 
  26:.\rc_ch.c     **** const int RC_CH1_MIN_VALUE = 25;
  27:.\rc_ch.c     **** 
  28:.\rc_ch.c     **** static uint8 isr_rc_ch1_timer_int_flag;
  29:.\rc_ch.c     **** static uint8 isr_rc_ch2_timer_int_flag;
  30:.\rc_ch.c     **** static uint8 isr_rc_ch3_timer_int_flag;
  31:.\rc_ch.c     **** static uint8 isr_rc_ch4_timer_int_flag;
ARM GAS  C:\Users\Michael\AppData\Local\Temp\cc4yVnPO.s 			page 2


  32:.\rc_ch.c     **** static volatile uint32 isr_rc_ch1_timer_count;
  33:.\rc_ch.c     **** static volatile uint32 isr_rc_ch2_timer_count;
  34:.\rc_ch.c     **** static volatile uint32 isr_rc_ch3_timer_count;
  35:.\rc_ch.c     **** static volatile uint32 isr_rc_ch4_timer_count;
  36:.\rc_ch.c     **** 
  37:.\rc_ch.c     **** CY_ISR(RC_Ch1_Timer_ISR_Handler)
  38:.\rc_ch.c     **** {
  27              		.loc 1 38 0
  28              		.cfi_startproc
  29              		@ args = 0, pretend = 0, frame = 0
  30              		@ frame_needed = 0, uses_anonymous_args = 0
  31 0000 08B5     		push	{r3, lr}
  32              		.cfi_def_cfa_offset 8
  33              		.cfi_offset 3, -8
  34              		.cfi_offset 14, -4
  39:.\rc_ch.c     ****     isr_rc_ch1_timer_int_flag = RC_Ch1_Timer_ReadStatusRegister();    
  35              		.loc 1 39 0
  36 0002 FFF7FEFF 		bl	RC_Ch1_Timer_ReadStatusRegister
  37              	.LVL0:
  38 0006 0D4B     		ldr	r3, .L5
  39 0008 1870     		strb	r0, [r3]
  40:.\rc_ch.c     ****     if (isr_rc_ch1_timer_int_flag & RC_Ch1_Timer_STATUS_CAPTURE)
  40              		.loc 1 40 0
  41 000a 10F0020F 		tst	r0, #2
  42 000e 07D0     		beq	.L2
  41:.\rc_ch.c     ****         isr_rc_ch1_timer_count = RC_TIMER_PERIOD - RC_Ch1_Timer_ReadCapture();    
  43              		.loc 1 41 0
  44 0010 FFF7FEFF 		bl	RC_Ch1_Timer_ReadCapture
  45              	.LVL1:
  46 0014 C0F5F420 		rsb	r0, r0, #499712
  47 0018 00F21F10 		addw	r0, r0, #287
  48 001c 074B     		ldr	r3, .L5
  49 001e 5860     		str	r0, [r3, #4]
  50              	.L2:
  42:.\rc_ch.c     ****     if (isr_rc_ch1_timer_int_flag & RC_Ch1_Timer_STATUS_TC)
  51              		.loc 1 42 0
  52 0020 064B     		ldr	r3, .L5
  53 0022 1B78     		ldrb	r3, [r3]	@ zero_extendqisi2
  54 0024 13F0010F 		tst	r3, #1
  55 0028 02D0     		beq	.L3
  43:.\rc_ch.c     ****         isr_rc_ch1_timer_count = 0;
  56              		.loc 1 43 0
  57 002a 0022     		movs	r2, #0
  58 002c 034B     		ldr	r3, .L5
  59 002e 5A60     		str	r2, [r3, #4]
  60              	.L3:
  44:.\rc_ch.c     ****     
  45:.\rc_ch.c     ****     RC_Ch1_Timer_Stop();
  61              		.loc 1 45 0
  62 0030 FFF7FEFF 		bl	RC_Ch1_Timer_Stop
  63              	.LVL2:
  46:.\rc_ch.c     ****     RC_Ch1_Timer_WriteCounter(RC_TIMER_PERIOD);
  64              		.loc 1 46 0
  65 0034 0248     		ldr	r0, .L5+4
  66 0036 FFF7FEFF 		bl	RC_Ch1_Timer_WriteCounter
  67              	.LVL3:
  68 003a 08BD     		pop	{r3, pc}
ARM GAS  C:\Users\Michael\AppData\Local\Temp\cc4yVnPO.s 			page 3


  69              	.L6:
  70              		.align	2
  71              	.L5:
  72 003c 00000000 		.word	.LANCHOR0
  73 0040 1FA10700 		.word	499999
  74              		.cfi_endproc
  75              	.LFE63:
  76              		.size	RC_Ch1_Timer_ISR_Handler, .-RC_Ch1_Timer_ISR_Handler
  77              		.section	.text.RC_Ch2_Timer_ISR_Handler,"ax",%progbits
  78              		.align	2
  79              		.global	RC_Ch2_Timer_ISR_Handler
  80              		.thumb
  81              		.thumb_func
  82              		.type	RC_Ch2_Timer_ISR_Handler, %function
  83              	RC_Ch2_Timer_ISR_Handler:
  84              	.LFB64:
  47:.\rc_ch.c     **** }
  48:.\rc_ch.c     **** 
  49:.\rc_ch.c     **** CY_ISR(RC_Ch2_Timer_ISR_Handler)
  50:.\rc_ch.c     **** {
  85              		.loc 1 50 0
  86              		.cfi_startproc
  87              		@ args = 0, pretend = 0, frame = 0
  88              		@ frame_needed = 0, uses_anonymous_args = 0
  89 0000 08B5     		push	{r3, lr}
  90              		.cfi_def_cfa_offset 8
  91              		.cfi_offset 3, -8
  92              		.cfi_offset 14, -4
  51:.\rc_ch.c     ****     isr_rc_ch2_timer_int_flag = RC_Ch2_Timer_ReadStatusRegister();    
  93              		.loc 1 51 0
  94 0002 FFF7FEFF 		bl	RC_Ch2_Timer_ReadStatusRegister
  95              	.LVL4:
  96 0006 0D4B     		ldr	r3, .L11
  97 0008 1872     		strb	r0, [r3, #8]
  52:.\rc_ch.c     ****     if (isr_rc_ch2_timer_int_flag & RC_Ch2_Timer_STATUS_CAPTURE)
  98              		.loc 1 52 0
  99 000a 10F0020F 		tst	r0, #2
 100 000e 07D0     		beq	.L8
  53:.\rc_ch.c     ****         isr_rc_ch2_timer_count = RC_TIMER_PERIOD - RC_Ch2_Timer_ReadCapture();    
 101              		.loc 1 53 0
 102 0010 FFF7FEFF 		bl	RC_Ch2_Timer_ReadCapture
 103              	.LVL5:
 104 0014 C0F5F420 		rsb	r0, r0, #499712
 105 0018 00F21F10 		addw	r0, r0, #287
 106 001c 074B     		ldr	r3, .L11
 107 001e D860     		str	r0, [r3, #12]
 108              	.L8:
  54:.\rc_ch.c     ****     if (isr_rc_ch2_timer_int_flag & RC_Ch2_Timer_STATUS_TC)
 109              		.loc 1 54 0
 110 0020 064B     		ldr	r3, .L11
 111 0022 1B7A     		ldrb	r3, [r3, #8]	@ zero_extendqisi2
 112 0024 13F0010F 		tst	r3, #1
 113 0028 02D0     		beq	.L9
  55:.\rc_ch.c     ****         isr_rc_ch2_timer_count = 0;
 114              		.loc 1 55 0
 115 002a 0022     		movs	r2, #0
 116 002c 034B     		ldr	r3, .L11
ARM GAS  C:\Users\Michael\AppData\Local\Temp\cc4yVnPO.s 			page 4


 117 002e DA60     		str	r2, [r3, #12]
 118              	.L9:
  56:.\rc_ch.c     ****     
  57:.\rc_ch.c     ****     RC_Ch2_Timer_Stop();
 119              		.loc 1 57 0
 120 0030 FFF7FEFF 		bl	RC_Ch2_Timer_Stop
 121              	.LVL6:
  58:.\rc_ch.c     ****     RC_Ch2_Timer_WriteCounter(RC_TIMER_PERIOD);
 122              		.loc 1 58 0
 123 0034 0248     		ldr	r0, .L11+4
 124 0036 FFF7FEFF 		bl	RC_Ch2_Timer_WriteCounter
 125              	.LVL7:
 126 003a 08BD     		pop	{r3, pc}
 127              	.L12:
 128              		.align	2
 129              	.L11:
 130 003c 00000000 		.word	.LANCHOR0
 131 0040 1FA10700 		.word	499999
 132              		.cfi_endproc
 133              	.LFE64:
 134              		.size	RC_Ch2_Timer_ISR_Handler, .-RC_Ch2_Timer_ISR_Handler
 135              		.section	.text.RC_Ch3_Timer_ISR_Handler,"ax",%progbits
 136              		.align	2
 137              		.global	RC_Ch3_Timer_ISR_Handler
 138              		.thumb
 139              		.thumb_func
 140              		.type	RC_Ch3_Timer_ISR_Handler, %function
 141              	RC_Ch3_Timer_ISR_Handler:
 142              	.LFB65:
  59:.\rc_ch.c     **** }
  60:.\rc_ch.c     **** 
  61:.\rc_ch.c     **** CY_ISR(RC_Ch3_Timer_ISR_Handler)
  62:.\rc_ch.c     **** {
 143              		.loc 1 62 0
 144              		.cfi_startproc
 145              		@ args = 0, pretend = 0, frame = 0
 146              		@ frame_needed = 0, uses_anonymous_args = 0
 147 0000 08B5     		push	{r3, lr}
 148              		.cfi_def_cfa_offset 8
 149              		.cfi_offset 3, -8
 150              		.cfi_offset 14, -4
  63:.\rc_ch.c     ****     isr_rc_ch3_timer_int_flag = RC_Ch3_Timer_ReadStatusRegister();    
 151              		.loc 1 63 0
 152 0002 FFF7FEFF 		bl	RC_Ch3_Timer_ReadStatusRegister
 153              	.LVL8:
 154 0006 0D4B     		ldr	r3, .L17
 155 0008 1874     		strb	r0, [r3, #16]
  64:.\rc_ch.c     ****     if (isr_rc_ch3_timer_int_flag & RC_Ch3_Timer_STATUS_CAPTURE)
 156              		.loc 1 64 0
 157 000a 10F0020F 		tst	r0, #2
 158 000e 07D0     		beq	.L14
  65:.\rc_ch.c     ****         isr_rc_ch3_timer_count = RC_TIMER_PERIOD - RC_Ch3_Timer_ReadCapture();    
 159              		.loc 1 65 0
 160 0010 FFF7FEFF 		bl	RC_Ch3_Timer_ReadCapture
 161              	.LVL9:
 162 0014 C0F5F420 		rsb	r0, r0, #499712
 163 0018 00F21F10 		addw	r0, r0, #287
ARM GAS  C:\Users\Michael\AppData\Local\Temp\cc4yVnPO.s 			page 5


 164 001c 074B     		ldr	r3, .L17
 165 001e 5861     		str	r0, [r3, #20]
 166              	.L14:
  66:.\rc_ch.c     ****     if (isr_rc_ch3_timer_int_flag & RC_Ch3_Timer_STATUS_TC)
 167              		.loc 1 66 0
 168 0020 064B     		ldr	r3, .L17
 169 0022 1B7C     		ldrb	r3, [r3, #16]	@ zero_extendqisi2
 170 0024 13F0010F 		tst	r3, #1
 171 0028 02D0     		beq	.L15
  67:.\rc_ch.c     ****         isr_rc_ch3_timer_count = 0;
 172              		.loc 1 67 0
 173 002a 0022     		movs	r2, #0
 174 002c 034B     		ldr	r3, .L17
 175 002e 5A61     		str	r2, [r3, #20]
 176              	.L15:
  68:.\rc_ch.c     ****     
  69:.\rc_ch.c     ****     RC_Ch3_Timer_Stop();
 177              		.loc 1 69 0
 178 0030 FFF7FEFF 		bl	RC_Ch3_Timer_Stop
 179              	.LVL10:
  70:.\rc_ch.c     ****     RC_Ch3_Timer_WriteCounter(RC_TIMER_PERIOD);
 180              		.loc 1 70 0
 181 0034 0248     		ldr	r0, .L17+4
 182 0036 FFF7FEFF 		bl	RC_Ch3_Timer_WriteCounter
 183              	.LVL11:
 184 003a 08BD     		pop	{r3, pc}
 185              	.L18:
 186              		.align	2
 187              	.L17:
 188 003c 00000000 		.word	.LANCHOR0
 189 0040 1FA10700 		.word	499999
 190              		.cfi_endproc
 191              	.LFE65:
 192              		.size	RC_Ch3_Timer_ISR_Handler, .-RC_Ch3_Timer_ISR_Handler
 193              		.section	.text.RC_Ch4_Timer_ISR_Handler,"ax",%progbits
 194              		.align	2
 195              		.global	RC_Ch4_Timer_ISR_Handler
 196              		.thumb
 197              		.thumb_func
 198              		.type	RC_Ch4_Timer_ISR_Handler, %function
 199              	RC_Ch4_Timer_ISR_Handler:
 200              	.LFB66:
  71:.\rc_ch.c     **** }
  72:.\rc_ch.c     **** 
  73:.\rc_ch.c     **** CY_ISR(RC_Ch4_Timer_ISR_Handler)
  74:.\rc_ch.c     **** {
 201              		.loc 1 74 0
 202              		.cfi_startproc
 203              		@ args = 0, pretend = 0, frame = 0
 204              		@ frame_needed = 0, uses_anonymous_args = 0
 205 0000 08B5     		push	{r3, lr}
 206              		.cfi_def_cfa_offset 8
 207              		.cfi_offset 3, -8
 208              		.cfi_offset 14, -4
  75:.\rc_ch.c     ****     isr_rc_ch4_timer_int_flag = RC_Ch4_Timer_ReadStatusRegister();    
 209              		.loc 1 75 0
 210 0002 FFF7FEFF 		bl	RC_Ch4_Timer_ReadStatusRegister
ARM GAS  C:\Users\Michael\AppData\Local\Temp\cc4yVnPO.s 			page 6


 211              	.LVL12:
 212 0006 0D4B     		ldr	r3, .L23
 213 0008 1876     		strb	r0, [r3, #24]
  76:.\rc_ch.c     ****     if (isr_rc_ch4_timer_int_flag & RC_Ch4_Timer_STATUS_CAPTURE)
 214              		.loc 1 76 0
 215 000a 10F0020F 		tst	r0, #2
 216 000e 07D0     		beq	.L20
  77:.\rc_ch.c     ****         isr_rc_ch4_timer_count = RC_TIMER_PERIOD - RC_Ch4_Timer_ReadCapture();    
 217              		.loc 1 77 0
 218 0010 FFF7FEFF 		bl	RC_Ch4_Timer_ReadCapture
 219              	.LVL13:
 220 0014 C0F5F420 		rsb	r0, r0, #499712
 221 0018 00F21F10 		addw	r0, r0, #287
 222 001c 074B     		ldr	r3, .L23
 223 001e D861     		str	r0, [r3, #28]
 224              	.L20:
  78:.\rc_ch.c     ****     if (isr_rc_ch4_timer_int_flag & RC_Ch4_Timer_STATUS_TC)
 225              		.loc 1 78 0
 226 0020 064B     		ldr	r3, .L23
 227 0022 1B7E     		ldrb	r3, [r3, #24]	@ zero_extendqisi2
 228 0024 13F0010F 		tst	r3, #1
 229 0028 02D0     		beq	.L21
  79:.\rc_ch.c     ****         isr_rc_ch4_timer_count = 0;
 230              		.loc 1 79 0
 231 002a 0022     		movs	r2, #0
 232 002c 034B     		ldr	r3, .L23
 233 002e DA61     		str	r2, [r3, #28]
 234              	.L21:
  80:.\rc_ch.c     ****     
  81:.\rc_ch.c     ****     RC_Ch4_Timer_Stop();
 235              		.loc 1 81 0
 236 0030 FFF7FEFF 		bl	RC_Ch4_Timer_Stop
 237              	.LVL14:
  82:.\rc_ch.c     ****     RC_Ch4_Timer_WriteCounter(RC_TIMER_PERIOD);
 238              		.loc 1 82 0
 239 0034 0248     		ldr	r0, .L23+4
 240 0036 FFF7FEFF 		bl	RC_Ch4_Timer_WriteCounter
 241              	.LVL15:
 242 003a 08BD     		pop	{r3, pc}
 243              	.L24:
 244              		.align	2
 245              	.L23:
 246 003c 00000000 		.word	.LANCHOR0
 247 0040 1FA10700 		.word	499999
 248              		.cfi_endproc
 249              	.LFE66:
 250              		.size	RC_Ch4_Timer_ISR_Handler, .-RC_Ch4_Timer_ISR_Handler
 251              		.section	.text.init_rc_channels,"ax",%progbits
 252              		.align	2
 253              		.global	init_rc_channels
 254              		.thumb
 255              		.thumb_func
 256              		.type	init_rc_channels, %function
 257              	init_rc_channels:
 258              	.LFB67:
  83:.\rc_ch.c     **** }
  84:.\rc_ch.c     **** 
ARM GAS  C:\Users\Michael\AppData\Local\Temp\cc4yVnPO.s 			page 7


  85:.\rc_ch.c     **** void init_rc_channels() {
 259              		.loc 1 85 0
 260              		.cfi_startproc
 261              		@ args = 0, pretend = 0, frame = 0
 262              		@ frame_needed = 0, uses_anonymous_args = 0
 263 0000 08B5     		push	{r3, lr}
 264              		.cfi_def_cfa_offset 8
 265              		.cfi_offset 3, -8
 266              		.cfi_offset 14, -4
  86:.\rc_ch.c     ****     RC_Ch1_Timer_Interrupt_StartEx(RC_Ch1_Timer_ISR_Handler);
 267              		.loc 1 86 0
 268 0002 0A48     		ldr	r0, .L27
 269 0004 FFF7FEFF 		bl	RC_Ch1_Timer_Interrupt_StartEx
 270              	.LVL16:
  87:.\rc_ch.c     ****     RC_Ch1_Timer_Start();
 271              		.loc 1 87 0
 272 0008 FFF7FEFF 		bl	RC_Ch1_Timer_Start
 273              	.LVL17:
  88:.\rc_ch.c     ****     RC_Ch2_Timer_Interrupt_StartEx(RC_Ch2_Timer_ISR_Handler);
 274              		.loc 1 88 0
 275 000c 0848     		ldr	r0, .L27+4
 276 000e FFF7FEFF 		bl	RC_Ch2_Timer_Interrupt_StartEx
 277              	.LVL18:
  89:.\rc_ch.c     ****     RC_Ch2_Timer_Start();
 278              		.loc 1 89 0
 279 0012 FFF7FEFF 		bl	RC_Ch2_Timer_Start
 280              	.LVL19:
  90:.\rc_ch.c     ****     RC_Ch3_Timer_Interrupt_StartEx(RC_Ch3_Timer_ISR_Handler);
 281              		.loc 1 90 0
 282 0016 0748     		ldr	r0, .L27+8
 283 0018 FFF7FEFF 		bl	RC_Ch3_Timer_Interrupt_StartEx
 284              	.LVL20:
  91:.\rc_ch.c     ****     RC_Ch3_Timer_Start();
 285              		.loc 1 91 0
 286 001c FFF7FEFF 		bl	RC_Ch3_Timer_Start
 287              	.LVL21:
  92:.\rc_ch.c     ****     RC_Ch4_Timer_Interrupt_StartEx(RC_Ch4_Timer_ISR_Handler);
 288              		.loc 1 92 0
 289 0020 0548     		ldr	r0, .L27+12
 290 0022 FFF7FEFF 		bl	RC_Ch4_Timer_Interrupt_StartEx
 291              	.LVL22:
  93:.\rc_ch.c     ****     RC_Ch4_Timer_Start();
 292              		.loc 1 93 0
 293 0026 FFF7FEFF 		bl	RC_Ch4_Timer_Start
 294              	.LVL23:
 295 002a 08BD     		pop	{r3, pc}
 296              	.L28:
 297              		.align	2
 298              	.L27:
 299 002c 00000000 		.word	RC_Ch1_Timer_ISR_Handler
 300 0030 00000000 		.word	RC_Ch2_Timer_ISR_Handler
 301 0034 00000000 		.word	RC_Ch3_Timer_ISR_Handler
 302 0038 00000000 		.word	RC_Ch4_Timer_ISR_Handler
 303              		.cfi_endproc
 304              	.LFE67:
 305              		.size	init_rc_channels, .-init_rc_channels
 306              		.section	.text.construct_rc_ch,"ax",%progbits
ARM GAS  C:\Users\Michael\AppData\Local\Temp\cc4yVnPO.s 			page 8


 307              		.align	2
 308              		.global	construct_rc_ch
 309              		.thumb
 310              		.thumb_func
 311              		.type	construct_rc_ch, %function
 312              	construct_rc_ch:
 313              	.LFB68:
  94:.\rc_ch.c     **** }
  95:.\rc_ch.c     **** 
  96:.\rc_ch.c     **** void construct_rc_ch(RC_CH* rc_ch, uint8 ch_number) {
 314              		.loc 1 96 0
 315              		.cfi_startproc
 316              		@ args = 0, pretend = 0, frame = 0
 317              		@ frame_needed = 0, uses_anonymous_args = 0
 318              		@ link register save eliminated.
 319              	.LVL24:
  97:.\rc_ch.c     ****     rc_ch->ch_number = ch_number;
 320              		.loc 1 97 0
 321 0000 0170     		strb	r1, [r0]
  98:.\rc_ch.c     ****     rc_ch->connected = 0;
 322              		.loc 1 98 0
 323 0002 0023     		movs	r3, #0
 324 0004 4370     		strb	r3, [r0, #1]
  99:.\rc_ch.c     ****     rc_ch->value = 0;
 325              		.loc 1 99 0
 326 0006 8381     		strh	r3, [r0, #12]	@ movhi
 100:.\rc_ch.c     ****     rc_ch->last_connected = 0;
 327              		.loc 1 100 0
 328 0008 4360     		str	r3, [r0, #4]
 101:.\rc_ch.c     ****     rc_ch->last_timer_count = 0;
 329              		.loc 1 101 0
 330 000a 8360     		str	r3, [r0, #8]
 331 000c 7047     		bx	lr
 332              		.cfi_endproc
 333              	.LFE68:
 334              		.size	construct_rc_ch, .-construct_rc_ch
 335 000e 00BF     		.section	.text.get_rc_ch_value,"ax",%progbits
 336              		.align	2
 337              		.global	get_rc_ch_value
 338              		.thumb
 339              		.thumb_func
 340              		.type	get_rc_ch_value, %function
 341              	get_rc_ch_value:
 342              	.LFB69:
 102:.\rc_ch.c     **** }
 103:.\rc_ch.c     **** 
 104:.\rc_ch.c     **** void get_rc_ch_value(RC_CH* rc_ch) {
 343              		.loc 1 104 0
 344              		.cfi_startproc
 345              		@ args = 0, pretend = 0, frame = 0
 346              		@ frame_needed = 0, uses_anonymous_args = 0
 347              	.LVL25:
 348 0000 70B5     		push	{r4, r5, r6, lr}
 349              		.cfi_def_cfa_offset 16
 350              		.cfi_offset 4, -16
 351              		.cfi_offset 5, -12
 352              		.cfi_offset 6, -8
ARM GAS  C:\Users\Michael\AppData\Local\Temp\cc4yVnPO.s 			page 9


 353              		.cfi_offset 14, -4
 354 0002 0446     		mov	r4, r0
 105:.\rc_ch.c     ****     uint8 isr_rc_timer_int_flag = rc_ch->ch_number == 1 ? isr_rc_ch1_timer_int_flag :
 355              		.loc 1 105 0
 356 0004 0378     		ldrb	r3, [r0]	@ zero_extendqisi2
 357 0006 012B     		cmp	r3, #1
 358 0008 0CD0     		beq	.L31
 359              		.loc 1 105 0 is_stmt 0 discriminator 1
 360 000a 022B     		cmp	r3, #2
 361 000c 07D0     		beq	.L32
 362              		.loc 1 105 0 discriminator 3
 363 000e 032B     		cmp	r3, #3
 364 0010 02D1     		bne	.L33
 365              		.loc 1 105 0 discriminator 5
 366 0012 454A     		ldr	r2, .L63
 367 0014 167C     		ldrb	r6, [r2, #16]	@ zero_extendqisi2
 368 0016 07E0     		b	.L36
 369              	.L33:
 370              		.loc 1 105 0 discriminator 6
 371 0018 434A     		ldr	r2, .L63
 372 001a 167E     		ldrb	r6, [r2, #24]	@ zero_extendqisi2
 373 001c 04E0     		b	.L36
 374              	.L32:
 375              		.loc 1 105 0 discriminator 4
 376 001e 424A     		ldr	r2, .L63
 377 0020 167A     		ldrb	r6, [r2, #8]	@ zero_extendqisi2
 378 0022 01E0     		b	.L36
 379              	.L31:
 380              		.loc 1 105 0 discriminator 2
 381 0024 404A     		ldr	r2, .L63
 382 0026 1678     		ldrb	r6, [r2]	@ zero_extendqisi2
 383              	.L36:
 384              	.LVL26:
 106:.\rc_ch.c     ****                                   rc_ch->ch_number == 2 ? isr_rc_ch2_timer_int_flag :
 107:.\rc_ch.c     ****                                   rc_ch->ch_number == 3 ? isr_rc_ch3_timer_int_flag :
 108:.\rc_ch.c     ****                                                           isr_rc_ch4_timer_int_flag;
 109:.\rc_ch.c     ****     uint32 isr_rc_timer_count = rc_ch->ch_number == 1 ? isr_rc_ch1_timer_count :
 385              		.loc 1 109 0 is_stmt 1 discriminator 12
 386 0028 012B     		cmp	r3, #1
 387 002a 0CD0     		beq	.L37
 110:.\rc_ch.c     ****                                 rc_ch->ch_number == 2 ? isr_rc_ch2_timer_count :
 388              		.loc 1 110 0
 389 002c 022B     		cmp	r3, #2
 390 002e 07D0     		beq	.L38
 111:.\rc_ch.c     ****                                 rc_ch->ch_number == 3 ? isr_rc_ch3_timer_count :
 391              		.loc 1 111 0
 392 0030 032B     		cmp	r3, #3
 393 0032 02D1     		bne	.L39
 394              		.loc 1 111 0 is_stmt 0 discriminator 1
 395 0034 3C4A     		ldr	r2, .L63
 396 0036 5569     		ldr	r5, [r2, #20]
 397 0038 07E0     		b	.L42
 398              	.L39:
 399              		.loc 1 111 0 discriminator 2
 400 003a 3B4A     		ldr	r2, .L63
 401 003c D569     		ldr	r5, [r2, #28]
 402 003e 04E0     		b	.L42
ARM GAS  C:\Users\Michael\AppData\Local\Temp\cc4yVnPO.s 			page 10


 403              	.L38:
 110:.\rc_ch.c     ****                                 rc_ch->ch_number == 2 ? isr_rc_ch2_timer_count :
 404              		.loc 1 110 0 is_stmt 1 discriminator 1
 405 0040 394A     		ldr	r2, .L63
 406 0042 D568     		ldr	r5, [r2, #12]
 407 0044 01E0     		b	.L42
 408              	.L37:
 109:.\rc_ch.c     ****                                 rc_ch->ch_number == 2 ? isr_rc_ch2_timer_count :
 409              		.loc 1 109 0 discriminator 1
 410 0046 384A     		ldr	r2, .L63
 411 0048 5568     		ldr	r5, [r2, #4]
 412              	.L42:
 413              	.LVL27:
 112:.\rc_ch.c     ****                                                         isr_rc_ch4_timer_count;
 113:.\rc_ch.c     ****     
 114:.\rc_ch.c     ****     int16 ch_value = 0;
 115:.\rc_ch.c     ****     uint8 rc_ch_read_value = rc_ch->ch_number == 1 ? RC_Ch1_Read() :
 414              		.loc 1 115 0 discriminator 3
 415 004a 012B     		cmp	r3, #1
 416 004c 02D1     		bne	.L43
 417              		.loc 1 115 0 is_stmt 0 discriminator 1
 418 004e FFF7FEFF 		bl	RC_Ch1_Read
 419              	.LVL28:
 420 0052 0BE0     		b	.L44
 421              	.LVL29:
 422              	.L43:
 423              		.loc 1 115 0 discriminator 2
 424 0054 022B     		cmp	r3, #2
 425 0056 02D1     		bne	.L45
 426              		.loc 1 115 0 discriminator 4
 427 0058 FFF7FEFF 		bl	RC_Ch2_Read
 428              	.LVL30:
 429 005c 06E0     		b	.L44
 430              	.LVL31:
 431              	.L45:
 432              		.loc 1 115 0 discriminator 5
 433 005e 032B     		cmp	r3, #3
 434 0060 02D1     		bne	.L47
 435              		.loc 1 115 0 discriminator 7
 436 0062 FFF7FEFF 		bl	RC_Ch3_Read
 437              	.LVL32:
 438 0066 01E0     		b	.L44
 439              	.LVL33:
 440              	.L47:
 441              		.loc 1 115 0 discriminator 8
 442 0068 FFF7FEFF 		bl	RC_Ch4_Read
 443              	.LVL34:
 444              	.L44:
 116:.\rc_ch.c     ****                              rc_ch->ch_number == 2 ? RC_Ch2_Read() :
 117:.\rc_ch.c     ****                              rc_ch->ch_number == 3 ? RC_Ch3_Read() :
 118:.\rc_ch.c     ****                                                      RC_Ch4_Read();
 119:.\rc_ch.c     ****     if (rc_ch_read_value) {
 445              		.loc 1 119 0 is_stmt 1 discriminator 12
 446 006c 28B1     		cbz	r0, .L49
 120:.\rc_ch.c     ****         rc_ch->last_connected = MILLISECONDS;
 447              		.loc 1 120 0
 448 006e 2F4B     		ldr	r3, .L63+4
ARM GAS  C:\Users\Michael\AppData\Local\Temp\cc4yVnPO.s 			page 11


 449 0070 1B68     		ldr	r3, [r3]
 450 0072 6360     		str	r3, [r4, #4]
 121:.\rc_ch.c     ****         rc_ch->connected = 1;
 451              		.loc 1 121 0
 452 0074 0123     		movs	r3, #1
 453 0076 6370     		strb	r3, [r4, #1]
 454 0078 07E0     		b	.L50
 455              	.L49:
 122:.\rc_ch.c     ****     } else {
 123:.\rc_ch.c     ****         if (MILLISECONDS - rc_ch->last_connected > RC_CONNECTION_TIMEOUT) {
 456              		.loc 1 123 0
 457 007a 2C4B     		ldr	r3, .L63+4
 458 007c 1B68     		ldr	r3, [r3]
 459 007e 6268     		ldr	r2, [r4, #4]
 460 0080 9B1A     		subs	r3, r3, r2
 461 0082 322B     		cmp	r3, #50
 462 0084 01D9     		bls	.L50
 124:.\rc_ch.c     ****             rc_ch->connected = 0;
 463              		.loc 1 124 0
 464 0086 0023     		movs	r3, #0
 465 0088 6370     		strb	r3, [r4, #1]
 466              	.L50:
 125:.\rc_ch.c     ****         }
 126:.\rc_ch.c     ****     }
 127:.\rc_ch.c     ****     
 128:.\rc_ch.c     ****     if (rc_ch->connected && isr_rc_timer_int_flag) {
 467              		.loc 1 128 0
 468 008a 6378     		ldrb	r3, [r4, #1]	@ zero_extendqisi2
 469 008c 002B     		cmp	r3, #0
 470 008e 4AD0     		beq	.L30
 471              		.loc 1 128 0 is_stmt 0 discriminator 1
 472 0090 002E     		cmp	r6, #0
 473 0092 48D0     		beq	.L30
 474              	.LBB2:
 129:.\rc_ch.c     ****         uint32 rc_ch_timer_count = (isr_rc_timer_count < RC_TIMER_MIN_VALUE || 
 475              		.loc 1 129 0 is_stmt 1
 476 0094 A5F5BB43 		sub	r3, r5, #23936
 477 0098 403B     		subs	r3, r3, #64
 130:.\rc_ch.c     ****                                     isr_rc_timer_count > RC_TIMER_MAX_VALUE) ? 
 131:.\rc_ch.c     ****                                     rc_ch->last_timer_count : isr_rc_timer_count;
 478              		.loc 1 131 0
 479 009a 45F20822 		movw	r2, #21000
 480 009e 9342     		cmp	r3, r2
 481 00a0 00D9     		bls	.L52
 482              		.loc 1 131 0 is_stmt 0 discriminator 1
 483 00a2 A568     		ldr	r5, [r4, #8]
 484              	.LVL35:
 485              	.L52:
 132:.\rc_ch.c     ****         if (abs(RC_TIMER_MID_VALUE - rc_ch_timer_count) < RC_TIMER_MID_TOLERANCE) {
 486              		.loc 1 132 0 is_stmt 1
 487 00a4 C5F50043 		rsb	r3, r5, #32768
 488              	.LVL36:
 489 00a8 E833     		adds	r3, r3, #232
 490 00aa 13F5167F 		cmn	r3, #600
 491 00ae 05DD     		ble	.L53
 492              		.loc 1 132 0 is_stmt 0 discriminator 1
 493 00b0 B3F5167F 		cmp	r3, #600
ARM GAS  C:\Users\Michael\AppData\Local\Temp\cc4yVnPO.s 			page 12


 494 00b4 02DA     		bge	.L53
 133:.\rc_ch.c     ****             rc_ch->value = RC_MIN_VALUE;
 495              		.loc 1 133 0 is_stmt 1
 496 00b6 0023     		movs	r3, #0
 497 00b8 A381     		strh	r3, [r4, #12]	@ movhi
 498 00ba 11E0     		b	.L54
 499              	.L53:
 500              	.LBB3:
 134:.\rc_ch.c     ****         } else {
 135:.\rc_ch.c     ****             const int RC_TIMER_AMPLITUDE = rc_ch_timer_count > RC_TIMER_MID_VALUE ? RC_TIMER_MAX_VA
 501              		.loc 1 135 0
 502 00bc 48F2E803 		movw	r3, #33000
 503 00c0 9D42     		cmp	r5, r3
 504 00c2 02D9     		bls	.L61
 505 00c4 42F6E062 		movw	r2, #12000
 506 00c8 01E0     		b	.L55
 507              	.L61:
 508 00ca 42F22832 		movw	r2, #9000
 509              	.L55:
 510              	.LVL37:
 136:.\rc_ch.c     ****             rc_ch->value = (RC_MAX_VALUE - RC_MIN_VALUE) * ((int32) rc_ch_timer_count - RC_TIMER_MI
 511              		.loc 1 136 0 discriminator 4
 512 00ce A5F50043 		sub	r3, r5, #32768
 513 00d2 E83B     		subs	r3, r3, #232
 514 00d4 C3EB0313 		rsb	r3, r3, r3, lsl #4
 515 00d8 1B01     		lsls	r3, r3, #4
 516 00da 93FBF2F3 		sdiv	r3, r3, r2
 517 00de A381     		strh	r3, [r4, #12]	@ movhi
 518              	.LVL38:
 519              	.L54:
 520              	.LBE3:
 137:.\rc_ch.c     ****         }
 138:.\rc_ch.c     ****         
 139:.\rc_ch.c     ****         if (rc_ch->value < -RC_MAX_VALUE)
 521              		.loc 1 139 0
 522 00e0 B4F90C30 		ldrsh	r3, [r4, #12]
 523 00e4 13F1F00F 		cmn	r3, #240
 524 00e8 02DA     		bge	.L56
 140:.\rc_ch.c     ****             rc_ch->value = -RC_MAX_VALUE;
 525              		.loc 1 140 0
 526 00ea 4FF61073 		movw	r3, #65296
 527 00ee A381     		strh	r3, [r4, #12]	@ movhi
 528              	.L56:
 141:.\rc_ch.c     ****         if (rc_ch->value > RC_MAX_VALUE)
 529              		.loc 1 141 0
 530 00f0 B4F90C30 		ldrsh	r3, [r4, #12]
 531 00f4 F02B     		cmp	r3, #240
 532 00f6 01DD     		ble	.L57
 142:.\rc_ch.c     ****             rc_ch->value = RC_MAX_VALUE;
 533              		.loc 1 142 0
 534 00f8 F023     		movs	r3, #240
 535 00fa A381     		strh	r3, [r4, #12]	@ movhi
 536              	.L57:
 143:.\rc_ch.c     ****         
 144:.\rc_ch.c     ****         rc_ch->last_timer_count = rc_ch_timer_count;
 537              		.loc 1 144 0
 538 00fc A560     		str	r5, [r4, #8]
ARM GAS  C:\Users\Michael\AppData\Local\Temp\cc4yVnPO.s 			page 13


 539              	.LVL39:
 145:.\rc_ch.c     ****         isr_rc_timer_int_flag = 0;
 146:.\rc_ch.c     ****         
 147:.\rc_ch.c     ****         if (rc_ch->ch_number == 1)
 540              		.loc 1 147 0
 541 00fe 2378     		ldrb	r3, [r4]	@ zero_extendqisi2
 542 0100 012B     		cmp	r3, #1
 543 0102 01D1     		bne	.L58
 148:.\rc_ch.c     ****             RC_Ch1_Timer_Start();
 544              		.loc 1 148 0
 545 0104 FFF7FEFF 		bl	RC_Ch1_Timer_Start
 546              	.LVL40:
 547              	.L58:
 149:.\rc_ch.c     ****         if (rc_ch->ch_number == 2)
 548              		.loc 1 149 0
 549 0108 2378     		ldrb	r3, [r4]	@ zero_extendqisi2
 550 010a 022B     		cmp	r3, #2
 551 010c 01D1     		bne	.L59
 150:.\rc_ch.c     ****             RC_Ch2_Timer_Start();
 552              		.loc 1 150 0
 553 010e FFF7FEFF 		bl	RC_Ch2_Timer_Start
 554              	.LVL41:
 555              	.L59:
 151:.\rc_ch.c     ****         if (rc_ch->ch_number == 3)
 556              		.loc 1 151 0
 557 0112 2378     		ldrb	r3, [r4]	@ zero_extendqisi2
 558 0114 032B     		cmp	r3, #3
 559 0116 01D1     		bne	.L60
 152:.\rc_ch.c     ****             RC_Ch3_Timer_Start();
 560              		.loc 1 152 0
 561 0118 FFF7FEFF 		bl	RC_Ch3_Timer_Start
 562              	.LVL42:
 563              	.L60:
 153:.\rc_ch.c     ****         if (rc_ch->ch_number == 4)
 564              		.loc 1 153 0
 565 011c 2378     		ldrb	r3, [r4]	@ zero_extendqisi2
 566 011e 042B     		cmp	r3, #4
 567 0120 01D1     		bne	.L30
 154:.\rc_ch.c     ****             RC_Ch4_Timer_Start();
 568              		.loc 1 154 0
 569 0122 FFF7FEFF 		bl	RC_Ch4_Timer_Start
 570              	.LVL43:
 571              	.L30:
 572 0126 70BD     		pop	{r4, r5, r6, pc}
 573              	.LVL44:
 574              	.L64:
 575              		.align	2
 576              	.L63:
 577 0128 00000000 		.word	.LANCHOR0
 578 012c 00000000 		.word	MILLISECONDS
 579              	.LBE2:
 580              		.cfi_endproc
 581              	.LFE69:
 582              		.size	get_rc_ch_value, .-get_rc_ch_value
 583              		.global	RC_CH1_MIN_VALUE
 584              		.global	RC_MIN_VALUE
 585              		.global	RC_MAX_VALUE
ARM GAS  C:\Users\Michael\AppData\Local\Temp\cc4yVnPO.s 			page 14


 586              		.global	RC_CONNECTION_TIMEOUT
 587              		.global	RC_TIMER_MID_TOLERANCE
 588              		.global	RC_TIMER_MIN_VALUE
 589              		.global	RC_TIMER_MID_VALUE
 590              		.global	RC_TIMER_MAX_VALUE
 591              		.global	RC_TIMER_PERIOD
 592              		.section	.rodata
 593              		.align	2
 594              		.type	RC_CH1_MIN_VALUE, %object
 595              		.size	RC_CH1_MIN_VALUE, 4
 596              	RC_CH1_MIN_VALUE:
 597 0000 19000000 		.word	25
 598              		.type	RC_MIN_VALUE, %object
 599              		.size	RC_MIN_VALUE, 4
 600              	RC_MIN_VALUE:
 601 0004 00000000 		.space	4
 602              		.type	RC_MAX_VALUE, %object
 603              		.size	RC_MAX_VALUE, 4
 604              	RC_MAX_VALUE:
 605 0008 F0000000 		.word	240
 606              		.type	RC_CONNECTION_TIMEOUT, %object
 607              		.size	RC_CONNECTION_TIMEOUT, 4
 608              	RC_CONNECTION_TIMEOUT:
 609 000c 32000000 		.word	50
 610              		.type	RC_TIMER_MID_TOLERANCE, %object
 611              		.size	RC_TIMER_MID_TOLERANCE, 4
 612              	RC_TIMER_MID_TOLERANCE:
 613 0010 58020000 		.word	600
 614              		.type	RC_TIMER_MIN_VALUE, %object
 615              		.size	RC_TIMER_MIN_VALUE, 4
 616              	RC_TIMER_MIN_VALUE:
 617 0014 C05D0000 		.word	24000
 618              		.type	RC_TIMER_MID_VALUE, %object
 619              		.size	RC_TIMER_MID_VALUE, 4
 620              	RC_TIMER_MID_VALUE:
 621 0018 E8800000 		.word	33000
 622              		.type	RC_TIMER_MAX_VALUE, %object
 623              		.size	RC_TIMER_MAX_VALUE, 4
 624              	RC_TIMER_MAX_VALUE:
 625 001c C8AF0000 		.word	45000
 626              		.type	RC_TIMER_PERIOD, %object
 627              		.size	RC_TIMER_PERIOD, 4
 628              	RC_TIMER_PERIOD:
 629 0020 1FA10700 		.word	499999
 630              		.bss
 631              		.align	2
 632              		.set	.LANCHOR0,. + 0
 633              		.type	isr_rc_ch1_timer_int_flag, %object
 634              		.size	isr_rc_ch1_timer_int_flag, 1
 635              	isr_rc_ch1_timer_int_flag:
 636 0000 00       		.space	1
 637 0001 000000   		.space	3
 638              		.type	isr_rc_ch1_timer_count, %object
 639              		.size	isr_rc_ch1_timer_count, 4
 640              	isr_rc_ch1_timer_count:
 641 0004 00000000 		.space	4
 642              		.type	isr_rc_ch2_timer_int_flag, %object
ARM GAS  C:\Users\Michael\AppData\Local\Temp\cc4yVnPO.s 			page 15


 643              		.size	isr_rc_ch2_timer_int_flag, 1
 644              	isr_rc_ch2_timer_int_flag:
 645 0008 00       		.space	1
 646 0009 000000   		.space	3
 647              		.type	isr_rc_ch2_timer_count, %object
 648              		.size	isr_rc_ch2_timer_count, 4
 649              	isr_rc_ch2_timer_count:
 650 000c 00000000 		.space	4
 651              		.type	isr_rc_ch3_timer_int_flag, %object
 652              		.size	isr_rc_ch3_timer_int_flag, 1
 653              	isr_rc_ch3_timer_int_flag:
 654 0010 00       		.space	1
 655 0011 000000   		.space	3
 656              		.type	isr_rc_ch3_timer_count, %object
 657              		.size	isr_rc_ch3_timer_count, 4
 658              	isr_rc_ch3_timer_count:
 659 0014 00000000 		.space	4
 660              		.type	isr_rc_ch4_timer_int_flag, %object
 661              		.size	isr_rc_ch4_timer_int_flag, 1
 662              	isr_rc_ch4_timer_int_flag:
 663 0018 00       		.space	1
 664 0019 000000   		.space	3
 665              		.type	isr_rc_ch4_timer_count, %object
 666              		.size	isr_rc_ch4_timer_count, 4
 667              	isr_rc_ch4_timer_count:
 668 001c 00000000 		.space	4
 669              		.text
 670              	.Letext0:
 671              		.file 2 "c:\\program files (x86)\\cypress\\psoc creator\\3.3\\psoc creator\\import\\gnu\\arm\\4.9.
 672              		.file 3 "c:\\program files (x86)\\cypress\\psoc creator\\3.3\\psoc creator\\import\\gnu\\arm\\4.9.
 673              		.file 4 "Generated_Source\\PSoC5/cytypes.h"
 674              		.file 5 ".\\rc_ch.h"
 675              		.file 6 "Generated_Source\\PSoC5/core_cm3.h"
 676              		.file 7 ".\\milliseconds.h"
 677              		.file 8 "Generated_Source\\PSoC5/RC_Ch1_Timer.h"
 678              		.file 9 "Generated_Source\\PSoC5/RC_Ch2_Timer.h"
 679              		.file 10 "Generated_Source\\PSoC5/RC_Ch3_Timer.h"
 680              		.file 11 "Generated_Source\\PSoC5/RC_Ch4_Timer.h"
 681              		.file 12 "Generated_Source\\PSoC5/RC_Ch1_Timer_Interrupt.h"
 682              		.file 13 "Generated_Source\\PSoC5/RC_Ch2_Timer_Interrupt.h"
 683              		.file 14 "Generated_Source\\PSoC5/RC_Ch3_Timer_Interrupt.h"
 684              		.file 15 "Generated_Source\\PSoC5/RC_Ch4_Timer_Interrupt.h"
 685              		.file 16 "Generated_Source\\PSoC5/RC_Ch1.h"
 686              		.file 17 "Generated_Source\\PSoC5/RC_Ch2.h"
 687              		.file 18 "Generated_Source\\PSoC5/RC_Ch3.h"
 688              		.file 19 "Generated_Source\\PSoC5/RC_Ch4.h"
 689              		.file 20 "<built-in>"