ARM GAS  C:\Users\Michael\AppData\Local\Temp\cc5aV9Cl.s 			page 1


   1              		.syntax unified
   2              		.cpu cortex-m3
   3              		.fpu softvfp
   4              		.eabi_attribute 20, 1
   5              		.eabi_attribute 21, 1
   6              		.eabi_attribute 23, 3
   7              		.eabi_attribute 24, 1
   8              		.eabi_attribute 25, 1
   9              		.eabi_attribute 26, 1
  10              		.eabi_attribute 30, 1
  11              		.eabi_attribute 34, 1
  12              		.eabi_attribute 18, 4
  13              		.thumb
  14              		.file	"RC_Timer.c"
  15              		.text
  16              	.Ltext0:
  17              		.cfi_sections	.debug_frame
  18              		.section	.text.RC_Timer_Enable,"ax",%progbits
  19              		.align	2
  20              		.global	RC_Timer_Enable
  21              		.thumb
  22              		.thumb_func
  23              		.type	RC_Timer_Enable, %function
  24              	RC_Timer_Enable:
  25              	.LFB1:
  26              		.file 1 ".\\Generated_Source\\PSoC5\\RC_Timer.c"
   1:.\Generated_Source\PSoC5/RC_Timer.c **** /*******************************************************************************
   2:.\Generated_Source\PSoC5/RC_Timer.c **** * File Name: RC_Timer.c
   3:.\Generated_Source\PSoC5/RC_Timer.c **** * Version 2.70
   4:.\Generated_Source\PSoC5/RC_Timer.c **** *
   5:.\Generated_Source\PSoC5/RC_Timer.c **** * Description:
   6:.\Generated_Source\PSoC5/RC_Timer.c **** *  The Timer component consists of a 8, 16, 24 or 32-bit timer with
   7:.\Generated_Source\PSoC5/RC_Timer.c **** *  a selectable period between 2 and 2^Width - 1.  The timer may free run
   8:.\Generated_Source\PSoC5/RC_Timer.c **** *  or be used as a capture timer as well.  The capture can be initiated
   9:.\Generated_Source\PSoC5/RC_Timer.c **** *  by a positive or negative edge signal as well as via software.
  10:.\Generated_Source\PSoC5/RC_Timer.c **** *  A trigger input can be programmed to enable the timer on rising edge
  11:.\Generated_Source\PSoC5/RC_Timer.c **** *  falling edge, either edge or continous run.
  12:.\Generated_Source\PSoC5/RC_Timer.c **** *  Interrupts may be generated due to a terminal count condition
  13:.\Generated_Source\PSoC5/RC_Timer.c **** *  or a capture event.
  14:.\Generated_Source\PSoC5/RC_Timer.c **** *
  15:.\Generated_Source\PSoC5/RC_Timer.c **** * Note:
  16:.\Generated_Source\PSoC5/RC_Timer.c **** *
  17:.\Generated_Source\PSoC5/RC_Timer.c **** ********************************************************************************
  18:.\Generated_Source\PSoC5/RC_Timer.c **** * Copyright 2008-2014, Cypress Semiconductor Corporation.  All rights reserved.
  19:.\Generated_Source\PSoC5/RC_Timer.c **** * You may use this file only in accordance with the license, terms, conditions,
  20:.\Generated_Source\PSoC5/RC_Timer.c **** * disclaimers, and limitations in the end user license agreement accompanying
  21:.\Generated_Source\PSoC5/RC_Timer.c **** * the software package with which this file was provided.
  22:.\Generated_Source\PSoC5/RC_Timer.c **** ********************************************************************************/
  23:.\Generated_Source\PSoC5/RC_Timer.c **** 
  24:.\Generated_Source\PSoC5/RC_Timer.c **** #include "RC_Timer.h"
  25:.\Generated_Source\PSoC5/RC_Timer.c **** 
  26:.\Generated_Source\PSoC5/RC_Timer.c **** uint8 RC_Timer_initVar = 0u;
  27:.\Generated_Source\PSoC5/RC_Timer.c **** 
  28:.\Generated_Source\PSoC5/RC_Timer.c **** 
  29:.\Generated_Source\PSoC5/RC_Timer.c **** /*******************************************************************************
  30:.\Generated_Source\PSoC5/RC_Timer.c **** * Function Name: RC_Timer_Init
  31:.\Generated_Source\PSoC5/RC_Timer.c **** ********************************************************************************
ARM GAS  C:\Users\Michael\AppData\Local\Temp\cc5aV9Cl.s 			page 2


  32:.\Generated_Source\PSoC5/RC_Timer.c **** *
  33:.\Generated_Source\PSoC5/RC_Timer.c **** * Summary:
  34:.\Generated_Source\PSoC5/RC_Timer.c **** *  Initialize to the schematic state
  35:.\Generated_Source\PSoC5/RC_Timer.c **** *
  36:.\Generated_Source\PSoC5/RC_Timer.c **** * Parameters:
  37:.\Generated_Source\PSoC5/RC_Timer.c **** *  void
  38:.\Generated_Source\PSoC5/RC_Timer.c **** *
  39:.\Generated_Source\PSoC5/RC_Timer.c **** * Return:
  40:.\Generated_Source\PSoC5/RC_Timer.c **** *  void
  41:.\Generated_Source\PSoC5/RC_Timer.c **** *
  42:.\Generated_Source\PSoC5/RC_Timer.c **** *******************************************************************************/
  43:.\Generated_Source\PSoC5/RC_Timer.c **** void RC_Timer_Init(void) 
  44:.\Generated_Source\PSoC5/RC_Timer.c **** {
  45:.\Generated_Source\PSoC5/RC_Timer.c ****     #if(!RC_Timer_UsingFixedFunction)
  46:.\Generated_Source\PSoC5/RC_Timer.c ****             /* Interrupt State Backup for Critical Region*/
  47:.\Generated_Source\PSoC5/RC_Timer.c ****             uint8 RC_Timer_interruptState;
  48:.\Generated_Source\PSoC5/RC_Timer.c ****     #endif /* Interrupt state back up for Fixed Function only */
  49:.\Generated_Source\PSoC5/RC_Timer.c **** 
  50:.\Generated_Source\PSoC5/RC_Timer.c ****     #if (RC_Timer_UsingFixedFunction)
  51:.\Generated_Source\PSoC5/RC_Timer.c ****         /* Clear all bits but the enable bit (if it's already set) for Timer operation */
  52:.\Generated_Source\PSoC5/RC_Timer.c ****         RC_Timer_CONTROL &= RC_Timer_CTRL_ENABLE;
  53:.\Generated_Source\PSoC5/RC_Timer.c **** 
  54:.\Generated_Source\PSoC5/RC_Timer.c ****         /* Clear the mode bits for continuous run mode */
  55:.\Generated_Source\PSoC5/RC_Timer.c ****         #if (CY_PSOC5A)
  56:.\Generated_Source\PSoC5/RC_Timer.c ****             RC_Timer_CONTROL2 &= ((uint8)(~RC_Timer_CTRL_MODE_MASK));
  57:.\Generated_Source\PSoC5/RC_Timer.c ****         #endif /* Clear bits in CONTROL2 only in PSOC5A */
  58:.\Generated_Source\PSoC5/RC_Timer.c **** 
  59:.\Generated_Source\PSoC5/RC_Timer.c ****         #if (CY_PSOC3 || CY_PSOC5LP)
  60:.\Generated_Source\PSoC5/RC_Timer.c ****             RC_Timer_CONTROL3 &= ((uint8)(~RC_Timer_CTRL_MODE_MASK));
  61:.\Generated_Source\PSoC5/RC_Timer.c ****         #endif /* CONTROL3 register exists only in PSoC3 OR PSoC5LP */
  62:.\Generated_Source\PSoC5/RC_Timer.c **** 
  63:.\Generated_Source\PSoC5/RC_Timer.c ****         /* Check if One Shot mode is enabled i.e. RunMode !=0*/
  64:.\Generated_Source\PSoC5/RC_Timer.c ****         #if (RC_Timer_RunModeUsed != 0x0u)
  65:.\Generated_Source\PSoC5/RC_Timer.c ****             /* Set 3rd bit of Control register to enable one shot mode */
  66:.\Generated_Source\PSoC5/RC_Timer.c ****             RC_Timer_CONTROL |= 0x04u;
  67:.\Generated_Source\PSoC5/RC_Timer.c ****         #endif /* One Shot enabled only when RunModeUsed is not Continuous*/
  68:.\Generated_Source\PSoC5/RC_Timer.c **** 
  69:.\Generated_Source\PSoC5/RC_Timer.c ****         #if (RC_Timer_RunModeUsed == 2)
  70:.\Generated_Source\PSoC5/RC_Timer.c ****             #if (CY_PSOC5A)
  71:.\Generated_Source\PSoC5/RC_Timer.c ****                 /* Set last 2 bits of control2 register if one shot(halt on
  72:.\Generated_Source\PSoC5/RC_Timer.c ****                 interrupt) is enabled*/
  73:.\Generated_Source\PSoC5/RC_Timer.c ****                 RC_Timer_CONTROL2 |= 0x03u;
  74:.\Generated_Source\PSoC5/RC_Timer.c ****             #endif /* Set One-Shot Halt on Interrupt bit in CONTROL2 for PSoC5A */
  75:.\Generated_Source\PSoC5/RC_Timer.c **** 
  76:.\Generated_Source\PSoC5/RC_Timer.c ****             #if (CY_PSOC3 || CY_PSOC5LP)
  77:.\Generated_Source\PSoC5/RC_Timer.c ****                 /* Set last 2 bits of control3 register if one shot(halt on
  78:.\Generated_Source\PSoC5/RC_Timer.c ****                 interrupt) is enabled*/
  79:.\Generated_Source\PSoC5/RC_Timer.c ****                 RC_Timer_CONTROL3 |= 0x03u;
  80:.\Generated_Source\PSoC5/RC_Timer.c ****             #endif /* Set One-Shot Halt on Interrupt bit in CONTROL3 for PSoC3 or PSoC5LP */
  81:.\Generated_Source\PSoC5/RC_Timer.c **** 
  82:.\Generated_Source\PSoC5/RC_Timer.c ****         #endif /* Remove section if One Shot Halt on Interrupt is not enabled */
  83:.\Generated_Source\PSoC5/RC_Timer.c **** 
  84:.\Generated_Source\PSoC5/RC_Timer.c ****         #if (RC_Timer_UsingHWEnable != 0)
  85:.\Generated_Source\PSoC5/RC_Timer.c ****             #if (CY_PSOC5A)
  86:.\Generated_Source\PSoC5/RC_Timer.c ****                 /* Set the default Run Mode of the Timer to Continuous */
  87:.\Generated_Source\PSoC5/RC_Timer.c ****                 RC_Timer_CONTROL2 |= RC_Timer_CTRL_MODE_PULSEWIDTH;
  88:.\Generated_Source\PSoC5/RC_Timer.c ****             #endif /* Set Continuous Run Mode in CONTROL2 for PSoC5A */
ARM GAS  C:\Users\Michael\AppData\Local\Temp\cc5aV9Cl.s 			page 3


  89:.\Generated_Source\PSoC5/RC_Timer.c **** 
  90:.\Generated_Source\PSoC5/RC_Timer.c ****             #if (CY_PSOC3 || CY_PSOC5LP)
  91:.\Generated_Source\PSoC5/RC_Timer.c ****                 /* Clear and Set ROD and COD bits of CFG2 register */
  92:.\Generated_Source\PSoC5/RC_Timer.c ****                 RC_Timer_CONTROL3 &= ((uint8)(~RC_Timer_CTRL_RCOD_MASK));
  93:.\Generated_Source\PSoC5/RC_Timer.c ****                 RC_Timer_CONTROL3 |= RC_Timer_CTRL_RCOD;
  94:.\Generated_Source\PSoC5/RC_Timer.c **** 
  95:.\Generated_Source\PSoC5/RC_Timer.c ****                 /* Clear and Enable the HW enable bit in CFG2 register */
  96:.\Generated_Source\PSoC5/RC_Timer.c ****                 RC_Timer_CONTROL3 &= ((uint8)(~RC_Timer_CTRL_ENBL_MASK));
  97:.\Generated_Source\PSoC5/RC_Timer.c ****                 RC_Timer_CONTROL3 |= RC_Timer_CTRL_ENBL;
  98:.\Generated_Source\PSoC5/RC_Timer.c **** 
  99:.\Generated_Source\PSoC5/RC_Timer.c ****                 /* Set the default Run Mode of the Timer to Continuous */
 100:.\Generated_Source\PSoC5/RC_Timer.c ****                 RC_Timer_CONTROL3 |= RC_Timer_CTRL_MODE_CONTINUOUS;
 101:.\Generated_Source\PSoC5/RC_Timer.c ****             #endif /* Set Continuous Run Mode in CONTROL3 for PSoC3ES3 or PSoC5A */
 102:.\Generated_Source\PSoC5/RC_Timer.c **** 
 103:.\Generated_Source\PSoC5/RC_Timer.c ****         #endif /* Configure Run Mode with hardware enable */
 104:.\Generated_Source\PSoC5/RC_Timer.c **** 
 105:.\Generated_Source\PSoC5/RC_Timer.c ****         /* Clear and Set SYNCTC and SYNCCMP bits of RT1 register */
 106:.\Generated_Source\PSoC5/RC_Timer.c ****         RC_Timer_RT1 &= ((uint8)(~RC_Timer_RT1_MASK));
 107:.\Generated_Source\PSoC5/RC_Timer.c ****         RC_Timer_RT1 |= RC_Timer_SYNC;
 108:.\Generated_Source\PSoC5/RC_Timer.c **** 
 109:.\Generated_Source\PSoC5/RC_Timer.c ****         /*Enable DSI Sync all all inputs of the Timer*/
 110:.\Generated_Source\PSoC5/RC_Timer.c ****         RC_Timer_RT1 &= ((uint8)(~RC_Timer_SYNCDSI_MASK));
 111:.\Generated_Source\PSoC5/RC_Timer.c ****         RC_Timer_RT1 |= RC_Timer_SYNCDSI_EN;
 112:.\Generated_Source\PSoC5/RC_Timer.c **** 
 113:.\Generated_Source\PSoC5/RC_Timer.c ****         /* Set the IRQ to use the status register interrupts */
 114:.\Generated_Source\PSoC5/RC_Timer.c ****         RC_Timer_CONTROL2 |= RC_Timer_CTRL2_IRQ_SEL;
 115:.\Generated_Source\PSoC5/RC_Timer.c ****     #endif /* Configuring registers of fixed function implementation */
 116:.\Generated_Source\PSoC5/RC_Timer.c **** 
 117:.\Generated_Source\PSoC5/RC_Timer.c ****     /* Set Initial values from Configuration */
 118:.\Generated_Source\PSoC5/RC_Timer.c ****     RC_Timer_WritePeriod(RC_Timer_INIT_PERIOD);
 119:.\Generated_Source\PSoC5/RC_Timer.c ****     RC_Timer_WriteCounter(RC_Timer_INIT_PERIOD);
 120:.\Generated_Source\PSoC5/RC_Timer.c **** 
 121:.\Generated_Source\PSoC5/RC_Timer.c ****     #if (RC_Timer_UsingHWCaptureCounter)/* Capture counter is enabled */
 122:.\Generated_Source\PSoC5/RC_Timer.c ****         RC_Timer_CAPTURE_COUNT_CTRL |= RC_Timer_CNTR_ENABLE;
 123:.\Generated_Source\PSoC5/RC_Timer.c ****         RC_Timer_SetCaptureCount(RC_Timer_INIT_CAPTURE_COUNT);
 124:.\Generated_Source\PSoC5/RC_Timer.c ****     #endif /* Configure capture counter value */
 125:.\Generated_Source\PSoC5/RC_Timer.c **** 
 126:.\Generated_Source\PSoC5/RC_Timer.c ****     #if (!RC_Timer_UsingFixedFunction)
 127:.\Generated_Source\PSoC5/RC_Timer.c ****         #if (RC_Timer_SoftwareCaptureMode)
 128:.\Generated_Source\PSoC5/RC_Timer.c ****             RC_Timer_SetCaptureMode(RC_Timer_INIT_CAPTURE_MODE);
 129:.\Generated_Source\PSoC5/RC_Timer.c ****         #endif /* Set Capture Mode for UDB implementation if capture mode is software controlled */
 130:.\Generated_Source\PSoC5/RC_Timer.c **** 
 131:.\Generated_Source\PSoC5/RC_Timer.c ****         #if (RC_Timer_SoftwareTriggerMode)
 132:.\Generated_Source\PSoC5/RC_Timer.c ****             #if (!RC_Timer_UDB_CONTROL_REG_REMOVED)
 133:.\Generated_Source\PSoC5/RC_Timer.c ****                 if (0u == (RC_Timer_CONTROL & RC_Timer__B_TIMER__TM_SOFTWARE))
 134:.\Generated_Source\PSoC5/RC_Timer.c ****                 {
 135:.\Generated_Source\PSoC5/RC_Timer.c ****                     RC_Timer_SetTriggerMode(RC_Timer_INIT_TRIGGER_MODE);
 136:.\Generated_Source\PSoC5/RC_Timer.c ****                 }
 137:.\Generated_Source\PSoC5/RC_Timer.c ****             #endif /* (!RC_Timer_UDB_CONTROL_REG_REMOVED) */
 138:.\Generated_Source\PSoC5/RC_Timer.c ****         #endif /* Set trigger mode for UDB Implementation if trigger mode is software controlled */
 139:.\Generated_Source\PSoC5/RC_Timer.c **** 
 140:.\Generated_Source\PSoC5/RC_Timer.c ****         /* CyEnterCriticalRegion and CyExitCriticalRegion are used to mark following region critica
 141:.\Generated_Source\PSoC5/RC_Timer.c ****         /* Enter Critical Region*/
 142:.\Generated_Source\PSoC5/RC_Timer.c ****         RC_Timer_interruptState = CyEnterCriticalSection();
 143:.\Generated_Source\PSoC5/RC_Timer.c **** 
 144:.\Generated_Source\PSoC5/RC_Timer.c ****         /* Use the interrupt output of the status register for IRQ output */
 145:.\Generated_Source\PSoC5/RC_Timer.c ****         RC_Timer_STATUS_AUX_CTRL |= RC_Timer_STATUS_ACTL_INT_EN_MASK;
ARM GAS  C:\Users\Michael\AppData\Local\Temp\cc5aV9Cl.s 			page 4


 146:.\Generated_Source\PSoC5/RC_Timer.c **** 
 147:.\Generated_Source\PSoC5/RC_Timer.c ****         /* Exit Critical Region*/
 148:.\Generated_Source\PSoC5/RC_Timer.c ****         CyExitCriticalSection(RC_Timer_interruptState);
 149:.\Generated_Source\PSoC5/RC_Timer.c **** 
 150:.\Generated_Source\PSoC5/RC_Timer.c ****         #if (RC_Timer_EnableTriggerMode)
 151:.\Generated_Source\PSoC5/RC_Timer.c ****             RC_Timer_EnableTrigger();
 152:.\Generated_Source\PSoC5/RC_Timer.c ****         #endif /* Set Trigger enable bit for UDB implementation in the control register*/
 153:.\Generated_Source\PSoC5/RC_Timer.c **** 		
 154:.\Generated_Source\PSoC5/RC_Timer.c **** 		
 155:.\Generated_Source\PSoC5/RC_Timer.c ****         #if (RC_Timer_InterruptOnCaptureCount && !RC_Timer_UDB_CONTROL_REG_REMOVED)
 156:.\Generated_Source\PSoC5/RC_Timer.c ****             RC_Timer_SetInterruptCount(RC_Timer_INIT_INT_CAPTURE_COUNT);
 157:.\Generated_Source\PSoC5/RC_Timer.c ****         #endif /* Set interrupt count in UDB implementation if interrupt count feature is checked.*
 158:.\Generated_Source\PSoC5/RC_Timer.c **** 
 159:.\Generated_Source\PSoC5/RC_Timer.c ****         RC_Timer_ClearFIFO();
 160:.\Generated_Source\PSoC5/RC_Timer.c ****     #endif /* Configure additional features of UDB implementation */
 161:.\Generated_Source\PSoC5/RC_Timer.c **** 
 162:.\Generated_Source\PSoC5/RC_Timer.c ****     RC_Timer_SetInterruptMode(RC_Timer_INIT_INTERRUPT_MODE);
 163:.\Generated_Source\PSoC5/RC_Timer.c **** }
 164:.\Generated_Source\PSoC5/RC_Timer.c **** 
 165:.\Generated_Source\PSoC5/RC_Timer.c **** 
 166:.\Generated_Source\PSoC5/RC_Timer.c **** /*******************************************************************************
 167:.\Generated_Source\PSoC5/RC_Timer.c **** * Function Name: RC_Timer_Enable
 168:.\Generated_Source\PSoC5/RC_Timer.c **** ********************************************************************************
 169:.\Generated_Source\PSoC5/RC_Timer.c **** *
 170:.\Generated_Source\PSoC5/RC_Timer.c **** * Summary:
 171:.\Generated_Source\PSoC5/RC_Timer.c **** *  Enable the Timer
 172:.\Generated_Source\PSoC5/RC_Timer.c **** *
 173:.\Generated_Source\PSoC5/RC_Timer.c **** * Parameters:
 174:.\Generated_Source\PSoC5/RC_Timer.c **** *  void
 175:.\Generated_Source\PSoC5/RC_Timer.c **** *
 176:.\Generated_Source\PSoC5/RC_Timer.c **** * Return:
 177:.\Generated_Source\PSoC5/RC_Timer.c **** *  void
 178:.\Generated_Source\PSoC5/RC_Timer.c **** *
 179:.\Generated_Source\PSoC5/RC_Timer.c **** *******************************************************************************/
 180:.\Generated_Source\PSoC5/RC_Timer.c **** void RC_Timer_Enable(void) 
 181:.\Generated_Source\PSoC5/RC_Timer.c **** {
  27              		.loc 1 181 0
  28              		.cfi_startproc
  29              		@ args = 0, pretend = 0, frame = 0
  30              		@ frame_needed = 0, uses_anonymous_args = 0
  31              		@ link register save eliminated.
 182:.\Generated_Source\PSoC5/RC_Timer.c ****     /* Globally Enable the Fixed Function Block chosen */
 183:.\Generated_Source\PSoC5/RC_Timer.c ****     #if (RC_Timer_UsingFixedFunction)
 184:.\Generated_Source\PSoC5/RC_Timer.c ****         RC_Timer_GLOBAL_ENABLE |= RC_Timer_BLOCK_EN_MASK;
 185:.\Generated_Source\PSoC5/RC_Timer.c ****         RC_Timer_GLOBAL_STBY_ENABLE |= RC_Timer_BLOCK_STBY_EN_MASK;
 186:.\Generated_Source\PSoC5/RC_Timer.c ****     #endif /* Set Enable bit for enabling Fixed function timer*/
 187:.\Generated_Source\PSoC5/RC_Timer.c **** 
 188:.\Generated_Source\PSoC5/RC_Timer.c ****     /* Remove assignment if control register is removed */
 189:.\Generated_Source\PSoC5/RC_Timer.c ****     #if (!RC_Timer_UDB_CONTROL_REG_REMOVED || RC_Timer_UsingFixedFunction)
 190:.\Generated_Source\PSoC5/RC_Timer.c ****         RC_Timer_CONTROL |= RC_Timer_CTRL_ENABLE;
  32              		.loc 1 190 0
  33 0000 024A     		ldr	r2, .L2
  34 0002 1378     		ldrb	r3, [r2]	@ zero_extendqisi2
  35 0004 43F08003 		orr	r3, r3, #128
  36 0008 1370     		strb	r3, [r2]
  37 000a 7047     		bx	lr
  38              	.L3:
ARM GAS  C:\Users\Michael\AppData\Local\Temp\cc5aV9Cl.s 			page 5


  39              		.align	2
  40              	.L2:
  41 000c 70640040 		.word	1073767536
  42              		.cfi_endproc
  43              	.LFE1:
  44              		.size	RC_Timer_Enable, .-RC_Timer_Enable
  45              		.section	.text.RC_Timer_Stop,"ax",%progbits
  46              		.align	2
  47              		.global	RC_Timer_Stop
  48              		.thumb
  49              		.thumb_func
  50              		.type	RC_Timer_Stop, %function
  51              	RC_Timer_Stop:
  52              	.LFB3:
 191:.\Generated_Source\PSoC5/RC_Timer.c ****     #endif /* Remove assignment if control register is removed */
 192:.\Generated_Source\PSoC5/RC_Timer.c **** }
 193:.\Generated_Source\PSoC5/RC_Timer.c **** 
 194:.\Generated_Source\PSoC5/RC_Timer.c **** 
 195:.\Generated_Source\PSoC5/RC_Timer.c **** /*******************************************************************************
 196:.\Generated_Source\PSoC5/RC_Timer.c **** * Function Name: RC_Timer_Start
 197:.\Generated_Source\PSoC5/RC_Timer.c **** ********************************************************************************
 198:.\Generated_Source\PSoC5/RC_Timer.c **** *
 199:.\Generated_Source\PSoC5/RC_Timer.c **** * Summary:
 200:.\Generated_Source\PSoC5/RC_Timer.c **** *  The start function initializes the timer with the default values, the
 201:.\Generated_Source\PSoC5/RC_Timer.c **** *  enables the timerto begin counting.  It does not enable interrupts,
 202:.\Generated_Source\PSoC5/RC_Timer.c **** *  the EnableInt command should be called if interrupt generation is required.
 203:.\Generated_Source\PSoC5/RC_Timer.c **** *
 204:.\Generated_Source\PSoC5/RC_Timer.c **** * Parameters:
 205:.\Generated_Source\PSoC5/RC_Timer.c **** *  void
 206:.\Generated_Source\PSoC5/RC_Timer.c **** *
 207:.\Generated_Source\PSoC5/RC_Timer.c **** * Return:
 208:.\Generated_Source\PSoC5/RC_Timer.c **** *  void
 209:.\Generated_Source\PSoC5/RC_Timer.c **** *
 210:.\Generated_Source\PSoC5/RC_Timer.c **** * Global variables:
 211:.\Generated_Source\PSoC5/RC_Timer.c **** *  RC_Timer_initVar: Is modified when this function is called for the
 212:.\Generated_Source\PSoC5/RC_Timer.c **** *   first time. Is used to ensure that initialization happens only once.
 213:.\Generated_Source\PSoC5/RC_Timer.c **** *
 214:.\Generated_Source\PSoC5/RC_Timer.c **** *******************************************************************************/
 215:.\Generated_Source\PSoC5/RC_Timer.c **** void RC_Timer_Start(void) 
 216:.\Generated_Source\PSoC5/RC_Timer.c **** {
 217:.\Generated_Source\PSoC5/RC_Timer.c ****     if(RC_Timer_initVar == 0u)
 218:.\Generated_Source\PSoC5/RC_Timer.c ****     {
 219:.\Generated_Source\PSoC5/RC_Timer.c ****         RC_Timer_Init();
 220:.\Generated_Source\PSoC5/RC_Timer.c **** 
 221:.\Generated_Source\PSoC5/RC_Timer.c ****         RC_Timer_initVar = 1u;   /* Clear this bit for Initialization */
 222:.\Generated_Source\PSoC5/RC_Timer.c ****     }
 223:.\Generated_Source\PSoC5/RC_Timer.c **** 
 224:.\Generated_Source\PSoC5/RC_Timer.c ****     /* Enable the Timer */
 225:.\Generated_Source\PSoC5/RC_Timer.c ****     RC_Timer_Enable();
 226:.\Generated_Source\PSoC5/RC_Timer.c **** }
 227:.\Generated_Source\PSoC5/RC_Timer.c **** 
 228:.\Generated_Source\PSoC5/RC_Timer.c **** 
 229:.\Generated_Source\PSoC5/RC_Timer.c **** /*******************************************************************************
 230:.\Generated_Source\PSoC5/RC_Timer.c **** * Function Name: RC_Timer_Stop
 231:.\Generated_Source\PSoC5/RC_Timer.c **** ********************************************************************************
 232:.\Generated_Source\PSoC5/RC_Timer.c **** *
 233:.\Generated_Source\PSoC5/RC_Timer.c **** * Summary:
ARM GAS  C:\Users\Michael\AppData\Local\Temp\cc5aV9Cl.s 			page 6


 234:.\Generated_Source\PSoC5/RC_Timer.c **** *  The stop function halts the timer, but does not change any modes or disable
 235:.\Generated_Source\PSoC5/RC_Timer.c **** *  interrupts.
 236:.\Generated_Source\PSoC5/RC_Timer.c **** *
 237:.\Generated_Source\PSoC5/RC_Timer.c **** * Parameters:
 238:.\Generated_Source\PSoC5/RC_Timer.c **** *  void
 239:.\Generated_Source\PSoC5/RC_Timer.c **** *
 240:.\Generated_Source\PSoC5/RC_Timer.c **** * Return:
 241:.\Generated_Source\PSoC5/RC_Timer.c **** *  void
 242:.\Generated_Source\PSoC5/RC_Timer.c **** *
 243:.\Generated_Source\PSoC5/RC_Timer.c **** * Side Effects: If the Enable mode is set to Hardware only then this function
 244:.\Generated_Source\PSoC5/RC_Timer.c **** *               has no effect on the operation of the timer.
 245:.\Generated_Source\PSoC5/RC_Timer.c **** *
 246:.\Generated_Source\PSoC5/RC_Timer.c **** *******************************************************************************/
 247:.\Generated_Source\PSoC5/RC_Timer.c **** void RC_Timer_Stop(void) 
 248:.\Generated_Source\PSoC5/RC_Timer.c **** {
  53              		.loc 1 248 0
  54              		.cfi_startproc
  55              		@ args = 0, pretend = 0, frame = 0
  56              		@ frame_needed = 0, uses_anonymous_args = 0
  57              		@ link register save eliminated.
 249:.\Generated_Source\PSoC5/RC_Timer.c ****     /* Disable Timer */
 250:.\Generated_Source\PSoC5/RC_Timer.c ****     #if(!RC_Timer_UDB_CONTROL_REG_REMOVED || RC_Timer_UsingFixedFunction)
 251:.\Generated_Source\PSoC5/RC_Timer.c ****         RC_Timer_CONTROL &= ((uint8)(~RC_Timer_CTRL_ENABLE));
  58              		.loc 1 251 0
  59 0000 024A     		ldr	r2, .L5
  60 0002 1378     		ldrb	r3, [r2]	@ zero_extendqisi2
  61 0004 03F07F03 		and	r3, r3, #127
  62 0008 1370     		strb	r3, [r2]
  63 000a 7047     		bx	lr
  64              	.L6:
  65              		.align	2
  66              	.L5:
  67 000c 70640040 		.word	1073767536
  68              		.cfi_endproc
  69              	.LFE3:
  70              		.size	RC_Timer_Stop, .-RC_Timer_Stop
  71              		.section	.text.RC_Timer_SetInterruptMode,"ax",%progbits
  72              		.align	2
  73              		.global	RC_Timer_SetInterruptMode
  74              		.thumb
  75              		.thumb_func
  76              		.type	RC_Timer_SetInterruptMode, %function
  77              	RC_Timer_SetInterruptMode:
  78              	.LFB4:
 252:.\Generated_Source\PSoC5/RC_Timer.c ****     #endif /* Remove assignment if control register is removed */
 253:.\Generated_Source\PSoC5/RC_Timer.c **** 
 254:.\Generated_Source\PSoC5/RC_Timer.c ****     /* Globally disable the Fixed Function Block chosen */
 255:.\Generated_Source\PSoC5/RC_Timer.c ****     #if (RC_Timer_UsingFixedFunction)
 256:.\Generated_Source\PSoC5/RC_Timer.c ****         RC_Timer_GLOBAL_ENABLE &= ((uint8)(~RC_Timer_BLOCK_EN_MASK));
 257:.\Generated_Source\PSoC5/RC_Timer.c ****         RC_Timer_GLOBAL_STBY_ENABLE &= ((uint8)(~RC_Timer_BLOCK_STBY_EN_MASK));
 258:.\Generated_Source\PSoC5/RC_Timer.c ****     #endif /* Disable global enable for the Timer Fixed function block to stop the Timer*/
 259:.\Generated_Source\PSoC5/RC_Timer.c **** }
 260:.\Generated_Source\PSoC5/RC_Timer.c **** 
 261:.\Generated_Source\PSoC5/RC_Timer.c **** 
 262:.\Generated_Source\PSoC5/RC_Timer.c **** /*******************************************************************************
 263:.\Generated_Source\PSoC5/RC_Timer.c **** * Function Name: RC_Timer_SetInterruptMode
 264:.\Generated_Source\PSoC5/RC_Timer.c **** ********************************************************************************
ARM GAS  C:\Users\Michael\AppData\Local\Temp\cc5aV9Cl.s 			page 7


 265:.\Generated_Source\PSoC5/RC_Timer.c **** *
 266:.\Generated_Source\PSoC5/RC_Timer.c **** * Summary:
 267:.\Generated_Source\PSoC5/RC_Timer.c **** *  This function selects which of the interrupt inputs may cause an interrupt.
 268:.\Generated_Source\PSoC5/RC_Timer.c **** *  The twosources are caputure and terminal.  One, both or neither may
 269:.\Generated_Source\PSoC5/RC_Timer.c **** *  be selected.
 270:.\Generated_Source\PSoC5/RC_Timer.c **** *
 271:.\Generated_Source\PSoC5/RC_Timer.c **** * Parameters:
 272:.\Generated_Source\PSoC5/RC_Timer.c **** *  interruptMode:   This parameter is used to enable interrups on either/or
 273:.\Generated_Source\PSoC5/RC_Timer.c **** *                   terminal count or capture.
 274:.\Generated_Source\PSoC5/RC_Timer.c **** *
 275:.\Generated_Source\PSoC5/RC_Timer.c **** * Return:
 276:.\Generated_Source\PSoC5/RC_Timer.c **** *  void
 277:.\Generated_Source\PSoC5/RC_Timer.c **** *
 278:.\Generated_Source\PSoC5/RC_Timer.c **** *******************************************************************************/
 279:.\Generated_Source\PSoC5/RC_Timer.c **** void RC_Timer_SetInterruptMode(uint8 interruptMode) 
 280:.\Generated_Source\PSoC5/RC_Timer.c **** {
  79              		.loc 1 280 0
  80              		.cfi_startproc
  81              		@ args = 0, pretend = 0, frame = 0
  82              		@ frame_needed = 0, uses_anonymous_args = 0
  83              		@ link register save eliminated.
  84              	.LVL0:
 281:.\Generated_Source\PSoC5/RC_Timer.c ****     RC_Timer_STATUS_MASK = interruptMode;
  85              		.loc 1 281 0
  86 0000 014B     		ldr	r3, .L8
  87 0002 1870     		strb	r0, [r3]
  88 0004 7047     		bx	lr
  89              	.L9:
  90 0006 00BF     		.align	2
  91              	.L8:
  92 0008 83640040 		.word	1073767555
  93              		.cfi_endproc
  94              	.LFE4:
  95              		.size	RC_Timer_SetInterruptMode, .-RC_Timer_SetInterruptMode
  96              		.section	.text.RC_Timer_SoftwareCapture,"ax",%progbits
  97              		.align	2
  98              		.global	RC_Timer_SoftwareCapture
  99              		.thumb
 100              		.thumb_func
 101              		.type	RC_Timer_SoftwareCapture, %function
 102              	RC_Timer_SoftwareCapture:
 103              	.LFB5:
 282:.\Generated_Source\PSoC5/RC_Timer.c **** }
 283:.\Generated_Source\PSoC5/RC_Timer.c **** 
 284:.\Generated_Source\PSoC5/RC_Timer.c **** 
 285:.\Generated_Source\PSoC5/RC_Timer.c **** /*******************************************************************************
 286:.\Generated_Source\PSoC5/RC_Timer.c **** * Function Name: RC_Timer_SoftwareCapture
 287:.\Generated_Source\PSoC5/RC_Timer.c **** ********************************************************************************
 288:.\Generated_Source\PSoC5/RC_Timer.c **** *
 289:.\Generated_Source\PSoC5/RC_Timer.c **** * Summary:
 290:.\Generated_Source\PSoC5/RC_Timer.c **** *  This function forces a capture independent of the capture signal.
 291:.\Generated_Source\PSoC5/RC_Timer.c **** *
 292:.\Generated_Source\PSoC5/RC_Timer.c **** * Parameters:
 293:.\Generated_Source\PSoC5/RC_Timer.c **** *  void
 294:.\Generated_Source\PSoC5/RC_Timer.c **** *
 295:.\Generated_Source\PSoC5/RC_Timer.c **** * Return:
 296:.\Generated_Source\PSoC5/RC_Timer.c **** *  void
ARM GAS  C:\Users\Michael\AppData\Local\Temp\cc5aV9Cl.s 			page 8


 297:.\Generated_Source\PSoC5/RC_Timer.c **** *
 298:.\Generated_Source\PSoC5/RC_Timer.c **** * Side Effects:
 299:.\Generated_Source\PSoC5/RC_Timer.c **** *  An existing hardware capture could be overwritten.
 300:.\Generated_Source\PSoC5/RC_Timer.c **** *
 301:.\Generated_Source\PSoC5/RC_Timer.c **** *******************************************************************************/
 302:.\Generated_Source\PSoC5/RC_Timer.c **** void RC_Timer_SoftwareCapture(void) 
 303:.\Generated_Source\PSoC5/RC_Timer.c **** {
 104              		.loc 1 303 0
 105              		.cfi_startproc
 106              		@ args = 0, pretend = 0, frame = 0
 107              		@ frame_needed = 0, uses_anonymous_args = 0
 108              		@ link register save eliminated.
 304:.\Generated_Source\PSoC5/RC_Timer.c ****     /* Generate a software capture by reading the counter register */
 305:.\Generated_Source\PSoC5/RC_Timer.c ****     #if(RC_Timer_UsingFixedFunction)
 306:.\Generated_Source\PSoC5/RC_Timer.c ****         (void)CY_GET_REG16(RC_Timer_COUNTER_LSB_PTR);
 307:.\Generated_Source\PSoC5/RC_Timer.c ****     #else
 308:.\Generated_Source\PSoC5/RC_Timer.c ****         (void)CY_GET_REG8(RC_Timer_COUNTER_LSB_PTR_8BIT);
 109              		.loc 1 308 0
 110 0000 014B     		ldr	r3, .L11
 111 0002 1B78     		ldrb	r3, [r3]	@ zero_extendqisi2
 112 0004 7047     		bx	lr
 113              	.L12:
 114 0006 00BF     		.align	2
 115              	.L11:
 116 0008 00640040 		.word	1073767424
 117              		.cfi_endproc
 118              	.LFE5:
 119              		.size	RC_Timer_SoftwareCapture, .-RC_Timer_SoftwareCapture
 120              		.section	.text.RC_Timer_ReadStatusRegister,"ax",%progbits
 121              		.align	2
 122              		.global	RC_Timer_ReadStatusRegister
 123              		.thumb
 124              		.thumb_func
 125              		.type	RC_Timer_ReadStatusRegister, %function
 126              	RC_Timer_ReadStatusRegister:
 127              	.LFB6:
 309:.\Generated_Source\PSoC5/RC_Timer.c ****     #endif/* (RC_Timer_UsingFixedFunction) */
 310:.\Generated_Source\PSoC5/RC_Timer.c ****     /* Capture Data is now in the FIFO */
 311:.\Generated_Source\PSoC5/RC_Timer.c **** }
 312:.\Generated_Source\PSoC5/RC_Timer.c **** 
 313:.\Generated_Source\PSoC5/RC_Timer.c **** 
 314:.\Generated_Source\PSoC5/RC_Timer.c **** /*******************************************************************************
 315:.\Generated_Source\PSoC5/RC_Timer.c **** * Function Name: RC_Timer_ReadStatusRegister
 316:.\Generated_Source\PSoC5/RC_Timer.c **** ********************************************************************************
 317:.\Generated_Source\PSoC5/RC_Timer.c **** *
 318:.\Generated_Source\PSoC5/RC_Timer.c **** * Summary:
 319:.\Generated_Source\PSoC5/RC_Timer.c **** *  Reads the status register and returns it's state. This function should use
 320:.\Generated_Source\PSoC5/RC_Timer.c **** *  defined types for the bit-field information as the bits in this register may
 321:.\Generated_Source\PSoC5/RC_Timer.c **** *  be permuteable.
 322:.\Generated_Source\PSoC5/RC_Timer.c **** *
 323:.\Generated_Source\PSoC5/RC_Timer.c **** * Parameters:
 324:.\Generated_Source\PSoC5/RC_Timer.c **** *  void
 325:.\Generated_Source\PSoC5/RC_Timer.c **** *
 326:.\Generated_Source\PSoC5/RC_Timer.c **** * Return:
 327:.\Generated_Source\PSoC5/RC_Timer.c **** *  The contents of the status register
 328:.\Generated_Source\PSoC5/RC_Timer.c **** *
 329:.\Generated_Source\PSoC5/RC_Timer.c **** * Side Effects:
ARM GAS  C:\Users\Michael\AppData\Local\Temp\cc5aV9Cl.s 			page 9


 330:.\Generated_Source\PSoC5/RC_Timer.c **** *  Status register bits may be clear on read.
 331:.\Generated_Source\PSoC5/RC_Timer.c **** *
 332:.\Generated_Source\PSoC5/RC_Timer.c **** *******************************************************************************/
 333:.\Generated_Source\PSoC5/RC_Timer.c **** uint8   RC_Timer_ReadStatusRegister(void) 
 334:.\Generated_Source\PSoC5/RC_Timer.c **** {
 128              		.loc 1 334 0
 129              		.cfi_startproc
 130              		@ args = 0, pretend = 0, frame = 0
 131              		@ frame_needed = 0, uses_anonymous_args = 0
 132              		@ link register save eliminated.
 335:.\Generated_Source\PSoC5/RC_Timer.c ****     return (RC_Timer_STATUS);
 133              		.loc 1 335 0
 134 0000 014B     		ldr	r3, .L14
 135 0002 1878     		ldrb	r0, [r3]	@ zero_extendqisi2
 336:.\Generated_Source\PSoC5/RC_Timer.c **** }
 136              		.loc 1 336 0
 137 0004 7047     		bx	lr
 138              	.L15:
 139 0006 00BF     		.align	2
 140              	.L14:
 141 0008 63640040 		.word	1073767523
 142              		.cfi_endproc
 143              	.LFE6:
 144              		.size	RC_Timer_ReadStatusRegister, .-RC_Timer_ReadStatusRegister
 145              		.section	.text.RC_Timer_ReadControlRegister,"ax",%progbits
 146              		.align	2
 147              		.global	RC_Timer_ReadControlRegister
 148              		.thumb
 149              		.thumb_func
 150              		.type	RC_Timer_ReadControlRegister, %function
 151              	RC_Timer_ReadControlRegister:
 152              	.LFB7:
 337:.\Generated_Source\PSoC5/RC_Timer.c **** 
 338:.\Generated_Source\PSoC5/RC_Timer.c **** 
 339:.\Generated_Source\PSoC5/RC_Timer.c **** #if (!RC_Timer_UDB_CONTROL_REG_REMOVED) /* Remove API if control register is unused */
 340:.\Generated_Source\PSoC5/RC_Timer.c **** 
 341:.\Generated_Source\PSoC5/RC_Timer.c **** 
 342:.\Generated_Source\PSoC5/RC_Timer.c **** /*******************************************************************************
 343:.\Generated_Source\PSoC5/RC_Timer.c **** * Function Name: RC_Timer_ReadControlRegister
 344:.\Generated_Source\PSoC5/RC_Timer.c **** ********************************************************************************
 345:.\Generated_Source\PSoC5/RC_Timer.c **** *
 346:.\Generated_Source\PSoC5/RC_Timer.c **** * Summary:
 347:.\Generated_Source\PSoC5/RC_Timer.c **** *  Reads the control register and returns it's value.
 348:.\Generated_Source\PSoC5/RC_Timer.c **** *
 349:.\Generated_Source\PSoC5/RC_Timer.c **** * Parameters:
 350:.\Generated_Source\PSoC5/RC_Timer.c **** *  void
 351:.\Generated_Source\PSoC5/RC_Timer.c **** *
 352:.\Generated_Source\PSoC5/RC_Timer.c **** * Return:
 353:.\Generated_Source\PSoC5/RC_Timer.c **** *  The contents of the control register
 354:.\Generated_Source\PSoC5/RC_Timer.c **** *
 355:.\Generated_Source\PSoC5/RC_Timer.c **** *******************************************************************************/
 356:.\Generated_Source\PSoC5/RC_Timer.c **** uint8 RC_Timer_ReadControlRegister(void) 
 357:.\Generated_Source\PSoC5/RC_Timer.c **** {
 153              		.loc 1 357 0
 154              		.cfi_startproc
 155              		@ args = 0, pretend = 0, frame = 0
 156              		@ frame_needed = 0, uses_anonymous_args = 0
ARM GAS  C:\Users\Michael\AppData\Local\Temp\cc5aV9Cl.s 			page 10


 157              		@ link register save eliminated.
 358:.\Generated_Source\PSoC5/RC_Timer.c ****     #if (!RC_Timer_UDB_CONTROL_REG_REMOVED) 
 359:.\Generated_Source\PSoC5/RC_Timer.c ****         return ((uint8)RC_Timer_CONTROL);
 158              		.loc 1 359 0
 159 0000 014B     		ldr	r3, .L17
 160 0002 1878     		ldrb	r0, [r3]	@ zero_extendqisi2
 360:.\Generated_Source\PSoC5/RC_Timer.c ****     #else
 361:.\Generated_Source\PSoC5/RC_Timer.c ****         return (0);
 362:.\Generated_Source\PSoC5/RC_Timer.c ****     #endif /* (!RC_Timer_UDB_CONTROL_REG_REMOVED) */
 363:.\Generated_Source\PSoC5/RC_Timer.c **** }
 161              		.loc 1 363 0
 162 0004 7047     		bx	lr
 163              	.L18:
 164 0006 00BF     		.align	2
 165              	.L17:
 166 0008 70640040 		.word	1073767536
 167              		.cfi_endproc
 168              	.LFE7:
 169              		.size	RC_Timer_ReadControlRegister, .-RC_Timer_ReadControlRegister
 170              		.section	.text.RC_Timer_WriteControlRegister,"ax",%progbits
 171              		.align	2
 172              		.global	RC_Timer_WriteControlRegister
 173              		.thumb
 174              		.thumb_func
 175              		.type	RC_Timer_WriteControlRegister, %function
 176              	RC_Timer_WriteControlRegister:
 177              	.LFB8:
 364:.\Generated_Source\PSoC5/RC_Timer.c **** 
 365:.\Generated_Source\PSoC5/RC_Timer.c **** 
 366:.\Generated_Source\PSoC5/RC_Timer.c **** /*******************************************************************************
 367:.\Generated_Source\PSoC5/RC_Timer.c **** * Function Name: RC_Timer_WriteControlRegister
 368:.\Generated_Source\PSoC5/RC_Timer.c **** ********************************************************************************
 369:.\Generated_Source\PSoC5/RC_Timer.c **** *
 370:.\Generated_Source\PSoC5/RC_Timer.c **** * Summary:
 371:.\Generated_Source\PSoC5/RC_Timer.c **** *  Sets the bit-field of the control register.
 372:.\Generated_Source\PSoC5/RC_Timer.c **** *
 373:.\Generated_Source\PSoC5/RC_Timer.c **** * Parameters:
 374:.\Generated_Source\PSoC5/RC_Timer.c **** *  control: The contents of the control register
 375:.\Generated_Source\PSoC5/RC_Timer.c **** *
 376:.\Generated_Source\PSoC5/RC_Timer.c **** * Return:
 377:.\Generated_Source\PSoC5/RC_Timer.c **** *
 378:.\Generated_Source\PSoC5/RC_Timer.c **** *******************************************************************************/
 379:.\Generated_Source\PSoC5/RC_Timer.c **** void RC_Timer_WriteControlRegister(uint8 control) 
 380:.\Generated_Source\PSoC5/RC_Timer.c **** {
 178              		.loc 1 380 0
 179              		.cfi_startproc
 180              		@ args = 0, pretend = 0, frame = 0
 181              		@ frame_needed = 0, uses_anonymous_args = 0
 182              		@ link register save eliminated.
 183              	.LVL1:
 381:.\Generated_Source\PSoC5/RC_Timer.c ****     #if (!RC_Timer_UDB_CONTROL_REG_REMOVED) 
 382:.\Generated_Source\PSoC5/RC_Timer.c ****         RC_Timer_CONTROL = control;
 184              		.loc 1 382 0
 185 0000 014B     		ldr	r3, .L20
 186 0002 1870     		strb	r0, [r3]
 187 0004 7047     		bx	lr
 188              	.L21:
ARM GAS  C:\Users\Michael\AppData\Local\Temp\cc5aV9Cl.s 			page 11


 189 0006 00BF     		.align	2
 190              	.L20:
 191 0008 70640040 		.word	1073767536
 192              		.cfi_endproc
 193              	.LFE8:
 194              		.size	RC_Timer_WriteControlRegister, .-RC_Timer_WriteControlRegister
 195              		.section	.text.RC_Timer_ReadPeriod,"ax",%progbits
 196              		.align	2
 197              		.global	RC_Timer_ReadPeriod
 198              		.thumb
 199              		.thumb_func
 200              		.type	RC_Timer_ReadPeriod, %function
 201              	RC_Timer_ReadPeriod:
 202              	.LFB9:
 383:.\Generated_Source\PSoC5/RC_Timer.c ****     #else
 384:.\Generated_Source\PSoC5/RC_Timer.c ****         control = 0u;
 385:.\Generated_Source\PSoC5/RC_Timer.c ****     #endif /* (!RC_Timer_UDB_CONTROL_REG_REMOVED) */
 386:.\Generated_Source\PSoC5/RC_Timer.c **** }
 387:.\Generated_Source\PSoC5/RC_Timer.c **** 
 388:.\Generated_Source\PSoC5/RC_Timer.c **** #endif /* Remove API if control register is unused */
 389:.\Generated_Source\PSoC5/RC_Timer.c **** 
 390:.\Generated_Source\PSoC5/RC_Timer.c **** 
 391:.\Generated_Source\PSoC5/RC_Timer.c **** /*******************************************************************************
 392:.\Generated_Source\PSoC5/RC_Timer.c **** * Function Name: RC_Timer_ReadPeriod
 393:.\Generated_Source\PSoC5/RC_Timer.c **** ********************************************************************************
 394:.\Generated_Source\PSoC5/RC_Timer.c **** *
 395:.\Generated_Source\PSoC5/RC_Timer.c **** * Summary:
 396:.\Generated_Source\PSoC5/RC_Timer.c **** *  This function returns the current value of the Period.
 397:.\Generated_Source\PSoC5/RC_Timer.c **** *
 398:.\Generated_Source\PSoC5/RC_Timer.c **** * Parameters:
 399:.\Generated_Source\PSoC5/RC_Timer.c **** *  void
 400:.\Generated_Source\PSoC5/RC_Timer.c **** *
 401:.\Generated_Source\PSoC5/RC_Timer.c **** * Return:
 402:.\Generated_Source\PSoC5/RC_Timer.c **** *  The present value of the counter.
 403:.\Generated_Source\PSoC5/RC_Timer.c **** *
 404:.\Generated_Source\PSoC5/RC_Timer.c **** *******************************************************************************/
 405:.\Generated_Source\PSoC5/RC_Timer.c **** uint32 RC_Timer_ReadPeriod(void) 
 406:.\Generated_Source\PSoC5/RC_Timer.c **** {
 203              		.loc 1 406 0
 204              		.cfi_startproc
 205              		@ args = 0, pretend = 0, frame = 0
 206              		@ frame_needed = 0, uses_anonymous_args = 0
 207              		@ link register save eliminated.
 407:.\Generated_Source\PSoC5/RC_Timer.c ****    #if(RC_Timer_UsingFixedFunction)
 408:.\Generated_Source\PSoC5/RC_Timer.c ****        return ((uint32)CY_GET_REG16(RC_Timer_PERIOD_LSB_PTR));
 409:.\Generated_Source\PSoC5/RC_Timer.c ****    #else
 410:.\Generated_Source\PSoC5/RC_Timer.c ****        return (CY_GET_REG32(RC_Timer_PERIOD_LSB_PTR));
 208              		.loc 1 410 0
 209 0000 014B     		ldr	r3, .L23
 210 0002 1868     		ldr	r0, [r3]
 411:.\Generated_Source\PSoC5/RC_Timer.c ****    #endif /* (RC_Timer_UsingFixedFunction) */
 412:.\Generated_Source\PSoC5/RC_Timer.c **** }
 211              		.loc 1 412 0
 212 0004 7047     		bx	lr
 213              	.L24:
 214 0006 00BF     		.align	2
 215              	.L23:
ARM GAS  C:\Users\Michael\AppData\Local\Temp\cc5aV9Cl.s 			page 12


 216 0008 20640040 		.word	1073767456
 217              		.cfi_endproc
 218              	.LFE9:
 219              		.size	RC_Timer_ReadPeriod, .-RC_Timer_ReadPeriod
 220              		.section	.text.RC_Timer_WritePeriod,"ax",%progbits
 221              		.align	2
 222              		.global	RC_Timer_WritePeriod
 223              		.thumb
 224              		.thumb_func
 225              		.type	RC_Timer_WritePeriod, %function
 226              	RC_Timer_WritePeriod:
 227              	.LFB10:
 413:.\Generated_Source\PSoC5/RC_Timer.c **** 
 414:.\Generated_Source\PSoC5/RC_Timer.c **** 
 415:.\Generated_Source\PSoC5/RC_Timer.c **** /*******************************************************************************
 416:.\Generated_Source\PSoC5/RC_Timer.c **** * Function Name: RC_Timer_WritePeriod
 417:.\Generated_Source\PSoC5/RC_Timer.c **** ********************************************************************************
 418:.\Generated_Source\PSoC5/RC_Timer.c **** *
 419:.\Generated_Source\PSoC5/RC_Timer.c **** * Summary:
 420:.\Generated_Source\PSoC5/RC_Timer.c **** *  This function is used to change the period of the counter.  The new period
 421:.\Generated_Source\PSoC5/RC_Timer.c **** *  will be loaded the next time terminal count is detected.
 422:.\Generated_Source\PSoC5/RC_Timer.c **** *
 423:.\Generated_Source\PSoC5/RC_Timer.c **** * Parameters:
 424:.\Generated_Source\PSoC5/RC_Timer.c **** *  period: This value may be between 1 and (2^Resolution)-1.  A value of 0 will
 425:.\Generated_Source\PSoC5/RC_Timer.c **** *          result in the counter remaining at zero.
 426:.\Generated_Source\PSoC5/RC_Timer.c **** *
 427:.\Generated_Source\PSoC5/RC_Timer.c **** * Return:
 428:.\Generated_Source\PSoC5/RC_Timer.c **** *  void
 429:.\Generated_Source\PSoC5/RC_Timer.c **** *
 430:.\Generated_Source\PSoC5/RC_Timer.c **** *******************************************************************************/
 431:.\Generated_Source\PSoC5/RC_Timer.c **** void RC_Timer_WritePeriod(uint32 period) 
 432:.\Generated_Source\PSoC5/RC_Timer.c **** {
 228              		.loc 1 432 0
 229              		.cfi_startproc
 230              		@ args = 0, pretend = 0, frame = 0
 231              		@ frame_needed = 0, uses_anonymous_args = 0
 232              		@ link register save eliminated.
 233              	.LVL2:
 433:.\Generated_Source\PSoC5/RC_Timer.c ****     #if(RC_Timer_UsingFixedFunction)
 434:.\Generated_Source\PSoC5/RC_Timer.c ****         uint16 period_temp = (uint16)period;
 435:.\Generated_Source\PSoC5/RC_Timer.c ****         CY_SET_REG16(RC_Timer_PERIOD_LSB_PTR, period_temp);
 436:.\Generated_Source\PSoC5/RC_Timer.c ****     #else
 437:.\Generated_Source\PSoC5/RC_Timer.c ****         CY_SET_REG32(RC_Timer_PERIOD_LSB_PTR, period);
 234              		.loc 1 437 0
 235 0000 014B     		ldr	r3, .L26
 236 0002 1860     		str	r0, [r3]
 237 0004 7047     		bx	lr
 238              	.L27:
 239 0006 00BF     		.align	2
 240              	.L26:
 241 0008 20640040 		.word	1073767456
 242              		.cfi_endproc
 243              	.LFE10:
 244              		.size	RC_Timer_WritePeriod, .-RC_Timer_WritePeriod
 245              		.section	.text.RC_Timer_ReadCapture,"ax",%progbits
 246              		.align	2
 247              		.global	RC_Timer_ReadCapture
ARM GAS  C:\Users\Michael\AppData\Local\Temp\cc5aV9Cl.s 			page 13


 248              		.thumb
 249              		.thumb_func
 250              		.type	RC_Timer_ReadCapture, %function
 251              	RC_Timer_ReadCapture:
 252              	.LFB11:
 438:.\Generated_Source\PSoC5/RC_Timer.c ****     #endif /*Write Period value with appropriate resolution suffix depending on UDB or fixed functi
 439:.\Generated_Source\PSoC5/RC_Timer.c **** }
 440:.\Generated_Source\PSoC5/RC_Timer.c **** 
 441:.\Generated_Source\PSoC5/RC_Timer.c **** 
 442:.\Generated_Source\PSoC5/RC_Timer.c **** /*******************************************************************************
 443:.\Generated_Source\PSoC5/RC_Timer.c **** * Function Name: RC_Timer_ReadCapture
 444:.\Generated_Source\PSoC5/RC_Timer.c **** ********************************************************************************
 445:.\Generated_Source\PSoC5/RC_Timer.c **** *
 446:.\Generated_Source\PSoC5/RC_Timer.c **** * Summary:
 447:.\Generated_Source\PSoC5/RC_Timer.c **** *  This function returns the last value captured.
 448:.\Generated_Source\PSoC5/RC_Timer.c **** *
 449:.\Generated_Source\PSoC5/RC_Timer.c **** * Parameters:
 450:.\Generated_Source\PSoC5/RC_Timer.c **** *  void
 451:.\Generated_Source\PSoC5/RC_Timer.c **** *
 452:.\Generated_Source\PSoC5/RC_Timer.c **** * Return:
 453:.\Generated_Source\PSoC5/RC_Timer.c **** *  Present Capture value.
 454:.\Generated_Source\PSoC5/RC_Timer.c **** *
 455:.\Generated_Source\PSoC5/RC_Timer.c **** *******************************************************************************/
 456:.\Generated_Source\PSoC5/RC_Timer.c **** uint32 RC_Timer_ReadCapture(void) 
 457:.\Generated_Source\PSoC5/RC_Timer.c **** {
 253              		.loc 1 457 0
 254              		.cfi_startproc
 255              		@ args = 0, pretend = 0, frame = 0
 256              		@ frame_needed = 0, uses_anonymous_args = 0
 257              		@ link register save eliminated.
 458:.\Generated_Source\PSoC5/RC_Timer.c ****    #if(RC_Timer_UsingFixedFunction)
 459:.\Generated_Source\PSoC5/RC_Timer.c ****        return ((uint32)CY_GET_REG16(RC_Timer_CAPTURE_LSB_PTR));
 460:.\Generated_Source\PSoC5/RC_Timer.c ****    #else
 461:.\Generated_Source\PSoC5/RC_Timer.c ****        return (CY_GET_REG32(RC_Timer_CAPTURE_LSB_PTR));
 258              		.loc 1 461 0
 259 0000 014B     		ldr	r3, .L29
 260 0002 1868     		ldr	r0, [r3]
 462:.\Generated_Source\PSoC5/RC_Timer.c ****    #endif /* (RC_Timer_UsingFixedFunction) */
 463:.\Generated_Source\PSoC5/RC_Timer.c **** }
 261              		.loc 1 463 0
 262 0004 7047     		bx	lr
 263              	.L30:
 264 0006 00BF     		.align	2
 265              	.L29:
 266 0008 40640040 		.word	1073767488
 267              		.cfi_endproc
 268              	.LFE11:
 269              		.size	RC_Timer_ReadCapture, .-RC_Timer_ReadCapture
 270              		.section	.text.RC_Timer_WriteCounter,"ax",%progbits
 271              		.align	2
 272              		.global	RC_Timer_WriteCounter
 273              		.thumb
 274              		.thumb_func
 275              		.type	RC_Timer_WriteCounter, %function
 276              	RC_Timer_WriteCounter:
 277              	.LFB12:
 464:.\Generated_Source\PSoC5/RC_Timer.c **** 
ARM GAS  C:\Users\Michael\AppData\Local\Temp\cc5aV9Cl.s 			page 14


 465:.\Generated_Source\PSoC5/RC_Timer.c **** 
 466:.\Generated_Source\PSoC5/RC_Timer.c **** /*******************************************************************************
 467:.\Generated_Source\PSoC5/RC_Timer.c **** * Function Name: RC_Timer_WriteCounter
 468:.\Generated_Source\PSoC5/RC_Timer.c **** ********************************************************************************
 469:.\Generated_Source\PSoC5/RC_Timer.c **** *
 470:.\Generated_Source\PSoC5/RC_Timer.c **** * Summary:
 471:.\Generated_Source\PSoC5/RC_Timer.c **** *  This funtion is used to set the counter to a specific value
 472:.\Generated_Source\PSoC5/RC_Timer.c **** *
 473:.\Generated_Source\PSoC5/RC_Timer.c **** * Parameters:
 474:.\Generated_Source\PSoC5/RC_Timer.c **** *  counter:  New counter value.
 475:.\Generated_Source\PSoC5/RC_Timer.c **** *
 476:.\Generated_Source\PSoC5/RC_Timer.c **** * Return:
 477:.\Generated_Source\PSoC5/RC_Timer.c **** *  void
 478:.\Generated_Source\PSoC5/RC_Timer.c **** *
 479:.\Generated_Source\PSoC5/RC_Timer.c **** *******************************************************************************/
 480:.\Generated_Source\PSoC5/RC_Timer.c **** void RC_Timer_WriteCounter(uint32 counter) 
 481:.\Generated_Source\PSoC5/RC_Timer.c **** {
 278              		.loc 1 481 0
 279              		.cfi_startproc
 280              		@ args = 0, pretend = 0, frame = 0
 281              		@ frame_needed = 0, uses_anonymous_args = 0
 282              		@ link register save eliminated.
 283              	.LVL3:
 482:.\Generated_Source\PSoC5/RC_Timer.c ****    #if(RC_Timer_UsingFixedFunction)
 483:.\Generated_Source\PSoC5/RC_Timer.c ****         /* This functionality is removed until a FixedFunction HW update to
 484:.\Generated_Source\PSoC5/RC_Timer.c ****          * allow this register to be written
 485:.\Generated_Source\PSoC5/RC_Timer.c ****          */
 486:.\Generated_Source\PSoC5/RC_Timer.c ****         CY_SET_REG16(RC_Timer_COUNTER_LSB_PTR, (uint16)counter);
 487:.\Generated_Source\PSoC5/RC_Timer.c ****         
 488:.\Generated_Source\PSoC5/RC_Timer.c ****     #else
 489:.\Generated_Source\PSoC5/RC_Timer.c ****         CY_SET_REG32(RC_Timer_COUNTER_LSB_PTR, counter);
 284              		.loc 1 489 0
 285 0000 014B     		ldr	r3, .L32
 286 0002 1860     		str	r0, [r3]
 287 0004 7047     		bx	lr
 288              	.L33:
 289 0006 00BF     		.align	2
 290              	.L32:
 291 0008 00640040 		.word	1073767424
 292              		.cfi_endproc
 293              	.LFE12:
 294              		.size	RC_Timer_WriteCounter, .-RC_Timer_WriteCounter
 295              		.section	.text.RC_Timer_ReadCounter,"ax",%progbits
 296              		.align	2
 297              		.global	RC_Timer_ReadCounter
 298              		.thumb
 299              		.thumb_func
 300              		.type	RC_Timer_ReadCounter, %function
 301              	RC_Timer_ReadCounter:
 302              	.LFB13:
 490:.\Generated_Source\PSoC5/RC_Timer.c ****     #endif /* Set Write Counter only for the UDB implementation (Write Counter not available in fix
 491:.\Generated_Source\PSoC5/RC_Timer.c **** }
 492:.\Generated_Source\PSoC5/RC_Timer.c **** 
 493:.\Generated_Source\PSoC5/RC_Timer.c **** 
 494:.\Generated_Source\PSoC5/RC_Timer.c **** /*******************************************************************************
 495:.\Generated_Source\PSoC5/RC_Timer.c **** * Function Name: RC_Timer_ReadCounter
 496:.\Generated_Source\PSoC5/RC_Timer.c **** ********************************************************************************
ARM GAS  C:\Users\Michael\AppData\Local\Temp\cc5aV9Cl.s 			page 15


 497:.\Generated_Source\PSoC5/RC_Timer.c **** *
 498:.\Generated_Source\PSoC5/RC_Timer.c **** * Summary:
 499:.\Generated_Source\PSoC5/RC_Timer.c **** *  This function returns the current counter value.
 500:.\Generated_Source\PSoC5/RC_Timer.c **** *
 501:.\Generated_Source\PSoC5/RC_Timer.c **** * Parameters:
 502:.\Generated_Source\PSoC5/RC_Timer.c **** *  void
 503:.\Generated_Source\PSoC5/RC_Timer.c **** *
 504:.\Generated_Source\PSoC5/RC_Timer.c **** * Return:
 505:.\Generated_Source\PSoC5/RC_Timer.c **** *  Present compare value.
 506:.\Generated_Source\PSoC5/RC_Timer.c **** *
 507:.\Generated_Source\PSoC5/RC_Timer.c **** *******************************************************************************/
 508:.\Generated_Source\PSoC5/RC_Timer.c **** uint32 RC_Timer_ReadCounter(void) 
 509:.\Generated_Source\PSoC5/RC_Timer.c **** {
 303              		.loc 1 509 0
 304              		.cfi_startproc
 305              		@ args = 0, pretend = 0, frame = 0
 306              		@ frame_needed = 0, uses_anonymous_args = 0
 307              		@ link register save eliminated.
 510:.\Generated_Source\PSoC5/RC_Timer.c ****     /* Force capture by reading Accumulator */
 511:.\Generated_Source\PSoC5/RC_Timer.c ****     /* Must first do a software capture to be able to read the counter */
 512:.\Generated_Source\PSoC5/RC_Timer.c ****     /* It is up to the user code to make sure there isn't already captured data in the FIFO */
 513:.\Generated_Source\PSoC5/RC_Timer.c ****     #if(RC_Timer_UsingFixedFunction)
 514:.\Generated_Source\PSoC5/RC_Timer.c ****         (void)CY_GET_REG16(RC_Timer_COUNTER_LSB_PTR);
 515:.\Generated_Source\PSoC5/RC_Timer.c ****     #else
 516:.\Generated_Source\PSoC5/RC_Timer.c ****         (void)CY_GET_REG8(RC_Timer_COUNTER_LSB_PTR_8BIT);
 308              		.loc 1 516 0
 309 0000 024B     		ldr	r3, .L35
 310 0002 1B78     		ldrb	r3, [r3]	@ zero_extendqisi2
 517:.\Generated_Source\PSoC5/RC_Timer.c ****     #endif/* (RC_Timer_UsingFixedFunction) */
 518:.\Generated_Source\PSoC5/RC_Timer.c **** 
 519:.\Generated_Source\PSoC5/RC_Timer.c ****     /* Read the data from the FIFO (or capture register for Fixed Function)*/
 520:.\Generated_Source\PSoC5/RC_Timer.c ****     #if(RC_Timer_UsingFixedFunction)
 521:.\Generated_Source\PSoC5/RC_Timer.c ****         return ((uint32)CY_GET_REG16(RC_Timer_CAPTURE_LSB_PTR));
 522:.\Generated_Source\PSoC5/RC_Timer.c ****     #else
 523:.\Generated_Source\PSoC5/RC_Timer.c ****         return (CY_GET_REG32(RC_Timer_CAPTURE_LSB_PTR));
 311              		.loc 1 523 0
 312 0004 024B     		ldr	r3, .L35+4
 313 0006 1868     		ldr	r0, [r3]
 524:.\Generated_Source\PSoC5/RC_Timer.c ****     #endif /* (RC_Timer_UsingFixedFunction) */
 525:.\Generated_Source\PSoC5/RC_Timer.c **** }
 314              		.loc 1 525 0
 315 0008 7047     		bx	lr
 316              	.L36:
 317 000a 00BF     		.align	2
 318              	.L35:
 319 000c 00640040 		.word	1073767424
 320 0010 40640040 		.word	1073767488
 321              		.cfi_endproc
 322              	.LFE13:
 323              		.size	RC_Timer_ReadCounter, .-RC_Timer_ReadCounter
 324              		.section	.text.RC_Timer_EnableTrigger,"ax",%progbits
 325              		.align	2
 326              		.global	RC_Timer_EnableTrigger
 327              		.thumb
 328              		.thumb_func
 329              		.type	RC_Timer_EnableTrigger, %function
 330              	RC_Timer_EnableTrigger:
ARM GAS  C:\Users\Michael\AppData\Local\Temp\cc5aV9Cl.s 			page 16


 331              	.LFB14:
 526:.\Generated_Source\PSoC5/RC_Timer.c **** 
 527:.\Generated_Source\PSoC5/RC_Timer.c **** 
 528:.\Generated_Source\PSoC5/RC_Timer.c **** #if(!RC_Timer_UsingFixedFunction) /* UDB Specific Functions */
 529:.\Generated_Source\PSoC5/RC_Timer.c **** 
 530:.\Generated_Source\PSoC5/RC_Timer.c ****     
 531:.\Generated_Source\PSoC5/RC_Timer.c **** /*******************************************************************************
 532:.\Generated_Source\PSoC5/RC_Timer.c ****  * The functions below this point are only available using the UDB
 533:.\Generated_Source\PSoC5/RC_Timer.c ****  * implementation.  If a feature is selected, then the API is enabled.
 534:.\Generated_Source\PSoC5/RC_Timer.c ****  ******************************************************************************/
 535:.\Generated_Source\PSoC5/RC_Timer.c **** 
 536:.\Generated_Source\PSoC5/RC_Timer.c **** 
 537:.\Generated_Source\PSoC5/RC_Timer.c **** #if (RC_Timer_SoftwareCaptureMode)
 538:.\Generated_Source\PSoC5/RC_Timer.c **** 
 539:.\Generated_Source\PSoC5/RC_Timer.c **** 
 540:.\Generated_Source\PSoC5/RC_Timer.c **** /*******************************************************************************
 541:.\Generated_Source\PSoC5/RC_Timer.c **** * Function Name: RC_Timer_SetCaptureMode
 542:.\Generated_Source\PSoC5/RC_Timer.c **** ********************************************************************************
 543:.\Generated_Source\PSoC5/RC_Timer.c **** *
 544:.\Generated_Source\PSoC5/RC_Timer.c **** * Summary:
 545:.\Generated_Source\PSoC5/RC_Timer.c **** *  This function sets the capture mode to either rising or falling edge.
 546:.\Generated_Source\PSoC5/RC_Timer.c **** *
 547:.\Generated_Source\PSoC5/RC_Timer.c **** * Parameters:
 548:.\Generated_Source\PSoC5/RC_Timer.c **** *  captureMode: This parameter sets the capture mode of the UDB capture feature
 549:.\Generated_Source\PSoC5/RC_Timer.c **** *  The parameter values are defined using the
 550:.\Generated_Source\PSoC5/RC_Timer.c **** *  #define RC_Timer__B_TIMER__CM_NONE 0
 551:.\Generated_Source\PSoC5/RC_Timer.c **** #define RC_Timer__B_TIMER__CM_RISINGEDGE 1
 552:.\Generated_Source\PSoC5/RC_Timer.c **** #define RC_Timer__B_TIMER__CM_FALLINGEDGE 2
 553:.\Generated_Source\PSoC5/RC_Timer.c **** #define RC_Timer__B_TIMER__CM_EITHEREDGE 3
 554:.\Generated_Source\PSoC5/RC_Timer.c **** #define RC_Timer__B_TIMER__CM_SOFTWARE 4
 555:.\Generated_Source\PSoC5/RC_Timer.c ****  identifiers
 556:.\Generated_Source\PSoC5/RC_Timer.c **** *  The following are the possible values of the parameter
 557:.\Generated_Source\PSoC5/RC_Timer.c **** *  RC_Timer__B_TIMER__CM_NONE        - Set Capture mode to None
 558:.\Generated_Source\PSoC5/RC_Timer.c **** *  RC_Timer__B_TIMER__CM_RISINGEDGE  - Rising edge of Capture input
 559:.\Generated_Source\PSoC5/RC_Timer.c **** *  RC_Timer__B_TIMER__CM_FALLINGEDGE - Falling edge of Capture input
 560:.\Generated_Source\PSoC5/RC_Timer.c **** *  RC_Timer__B_TIMER__CM_EITHEREDGE  - Either edge of Capture input
 561:.\Generated_Source\PSoC5/RC_Timer.c **** *
 562:.\Generated_Source\PSoC5/RC_Timer.c **** * Return:
 563:.\Generated_Source\PSoC5/RC_Timer.c **** *  void
 564:.\Generated_Source\PSoC5/RC_Timer.c **** *
 565:.\Generated_Source\PSoC5/RC_Timer.c **** *******************************************************************************/
 566:.\Generated_Source\PSoC5/RC_Timer.c **** void RC_Timer_SetCaptureMode(uint8 captureMode) 
 567:.\Generated_Source\PSoC5/RC_Timer.c **** {
 568:.\Generated_Source\PSoC5/RC_Timer.c ****     /* This must only set to two bits of the control register associated */
 569:.\Generated_Source\PSoC5/RC_Timer.c ****     captureMode = ((uint8)((uint8)captureMode << RC_Timer_CTRL_CAP_MODE_SHIFT));
 570:.\Generated_Source\PSoC5/RC_Timer.c ****     captureMode &= (RC_Timer_CTRL_CAP_MODE_MASK);
 571:.\Generated_Source\PSoC5/RC_Timer.c **** 
 572:.\Generated_Source\PSoC5/RC_Timer.c ****     #if (!RC_Timer_UDB_CONTROL_REG_REMOVED)
 573:.\Generated_Source\PSoC5/RC_Timer.c ****         /* Clear the Current Setting */
 574:.\Generated_Source\PSoC5/RC_Timer.c ****         RC_Timer_CONTROL &= ((uint8)(~RC_Timer_CTRL_CAP_MODE_MASK));
 575:.\Generated_Source\PSoC5/RC_Timer.c **** 
 576:.\Generated_Source\PSoC5/RC_Timer.c ****         /* Write The New Setting */
 577:.\Generated_Source\PSoC5/RC_Timer.c ****         RC_Timer_CONTROL |= captureMode;
 578:.\Generated_Source\PSoC5/RC_Timer.c ****     #endif /* (!RC_Timer_UDB_CONTROL_REG_REMOVED) */
 579:.\Generated_Source\PSoC5/RC_Timer.c **** }
 580:.\Generated_Source\PSoC5/RC_Timer.c **** #endif /* Remove API if Capture Mode is not Software Controlled */
 581:.\Generated_Source\PSoC5/RC_Timer.c **** 
ARM GAS  C:\Users\Michael\AppData\Local\Temp\cc5aV9Cl.s 			page 17


 582:.\Generated_Source\PSoC5/RC_Timer.c **** 
 583:.\Generated_Source\PSoC5/RC_Timer.c **** #if (RC_Timer_SoftwareTriggerMode)
 584:.\Generated_Source\PSoC5/RC_Timer.c **** 
 585:.\Generated_Source\PSoC5/RC_Timer.c **** 
 586:.\Generated_Source\PSoC5/RC_Timer.c **** /*******************************************************************************
 587:.\Generated_Source\PSoC5/RC_Timer.c **** * Function Name: RC_Timer_SetTriggerMode
 588:.\Generated_Source\PSoC5/RC_Timer.c **** ********************************************************************************
 589:.\Generated_Source\PSoC5/RC_Timer.c **** *
 590:.\Generated_Source\PSoC5/RC_Timer.c **** * Summary:
 591:.\Generated_Source\PSoC5/RC_Timer.c **** *  This function sets the trigger input mode
 592:.\Generated_Source\PSoC5/RC_Timer.c **** *
 593:.\Generated_Source\PSoC5/RC_Timer.c **** * Parameters:
 594:.\Generated_Source\PSoC5/RC_Timer.c **** *  triggerMode: Pass one of the pre-defined Trigger Modes (except Software)
 595:.\Generated_Source\PSoC5/RC_Timer.c ****     #define RC_Timer__B_TIMER__TM_NONE 0x00u
 596:.\Generated_Source\PSoC5/RC_Timer.c ****     #define RC_Timer__B_TIMER__TM_RISINGEDGE 0x04u
 597:.\Generated_Source\PSoC5/RC_Timer.c ****     #define RC_Timer__B_TIMER__TM_FALLINGEDGE 0x08u
 598:.\Generated_Source\PSoC5/RC_Timer.c ****     #define RC_Timer__B_TIMER__TM_EITHEREDGE 0x0Cu
 599:.\Generated_Source\PSoC5/RC_Timer.c ****     #define RC_Timer__B_TIMER__TM_SOFTWARE 0x10u
 600:.\Generated_Source\PSoC5/RC_Timer.c **** *
 601:.\Generated_Source\PSoC5/RC_Timer.c **** * Return:
 602:.\Generated_Source\PSoC5/RC_Timer.c **** *  void
 603:.\Generated_Source\PSoC5/RC_Timer.c **** *
 604:.\Generated_Source\PSoC5/RC_Timer.c **** *******************************************************************************/
 605:.\Generated_Source\PSoC5/RC_Timer.c **** void RC_Timer_SetTriggerMode(uint8 triggerMode) 
 606:.\Generated_Source\PSoC5/RC_Timer.c **** {
 607:.\Generated_Source\PSoC5/RC_Timer.c ****     /* This must only set to two bits of the control register associated */
 608:.\Generated_Source\PSoC5/RC_Timer.c ****     triggerMode &= RC_Timer_CTRL_TRIG_MODE_MASK;
 609:.\Generated_Source\PSoC5/RC_Timer.c **** 
 610:.\Generated_Source\PSoC5/RC_Timer.c ****     #if (!RC_Timer_UDB_CONTROL_REG_REMOVED)   /* Remove assignment if control register is removed *
 611:.\Generated_Source\PSoC5/RC_Timer.c ****     
 612:.\Generated_Source\PSoC5/RC_Timer.c ****         /* Clear the Current Setting */
 613:.\Generated_Source\PSoC5/RC_Timer.c ****         RC_Timer_CONTROL &= ((uint8)(~RC_Timer_CTRL_TRIG_MODE_MASK));
 614:.\Generated_Source\PSoC5/RC_Timer.c **** 
 615:.\Generated_Source\PSoC5/RC_Timer.c ****         /* Write The New Setting */
 616:.\Generated_Source\PSoC5/RC_Timer.c ****         RC_Timer_CONTROL |= (triggerMode | RC_Timer__B_TIMER__TM_SOFTWARE);
 617:.\Generated_Source\PSoC5/RC_Timer.c ****     #endif /* Remove code section if control register is not used */
 618:.\Generated_Source\PSoC5/RC_Timer.c **** }
 619:.\Generated_Source\PSoC5/RC_Timer.c **** #endif /* Remove API if Trigger Mode is not Software Controlled */
 620:.\Generated_Source\PSoC5/RC_Timer.c **** 
 621:.\Generated_Source\PSoC5/RC_Timer.c **** #if (RC_Timer_EnableTriggerMode)
 622:.\Generated_Source\PSoC5/RC_Timer.c **** 
 623:.\Generated_Source\PSoC5/RC_Timer.c **** 
 624:.\Generated_Source\PSoC5/RC_Timer.c **** /*******************************************************************************
 625:.\Generated_Source\PSoC5/RC_Timer.c **** * Function Name: RC_Timer_EnableTrigger
 626:.\Generated_Source\PSoC5/RC_Timer.c **** ********************************************************************************
 627:.\Generated_Source\PSoC5/RC_Timer.c **** *
 628:.\Generated_Source\PSoC5/RC_Timer.c **** * Summary:
 629:.\Generated_Source\PSoC5/RC_Timer.c **** *  Sets the control bit enabling Hardware Trigger mode
 630:.\Generated_Source\PSoC5/RC_Timer.c **** *
 631:.\Generated_Source\PSoC5/RC_Timer.c **** * Parameters:
 632:.\Generated_Source\PSoC5/RC_Timer.c **** *  void
 633:.\Generated_Source\PSoC5/RC_Timer.c **** *
 634:.\Generated_Source\PSoC5/RC_Timer.c **** * Return:
 635:.\Generated_Source\PSoC5/RC_Timer.c **** *  void
 636:.\Generated_Source\PSoC5/RC_Timer.c **** *
 637:.\Generated_Source\PSoC5/RC_Timer.c **** *******************************************************************************/
 638:.\Generated_Source\PSoC5/RC_Timer.c **** void RC_Timer_EnableTrigger(void) 
ARM GAS  C:\Users\Michael\AppData\Local\Temp\cc5aV9Cl.s 			page 18


 639:.\Generated_Source\PSoC5/RC_Timer.c **** {
 332              		.loc 1 639 0
 333              		.cfi_startproc
 334              		@ args = 0, pretend = 0, frame = 0
 335              		@ frame_needed = 0, uses_anonymous_args = 0
 336              		@ link register save eliminated.
 640:.\Generated_Source\PSoC5/RC_Timer.c ****     #if (!RC_Timer_UDB_CONTROL_REG_REMOVED)   /* Remove assignment if control register is removed *
 641:.\Generated_Source\PSoC5/RC_Timer.c ****         RC_Timer_CONTROL |= RC_Timer_CTRL_TRIG_EN;
 337              		.loc 1 641 0
 338 0000 024A     		ldr	r2, .L38
 339 0002 1378     		ldrb	r3, [r2]	@ zero_extendqisi2
 340 0004 43F01003 		orr	r3, r3, #16
 341 0008 1370     		strb	r3, [r2]
 342 000a 7047     		bx	lr
 343              	.L39:
 344              		.align	2
 345              	.L38:
 346 000c 70640040 		.word	1073767536
 347              		.cfi_endproc
 348              	.LFE14:
 349              		.size	RC_Timer_EnableTrigger, .-RC_Timer_EnableTrigger
 350              		.section	.text.RC_Timer_DisableTrigger,"ax",%progbits
 351              		.align	2
 352              		.global	RC_Timer_DisableTrigger
 353              		.thumb
 354              		.thumb_func
 355              		.type	RC_Timer_DisableTrigger, %function
 356              	RC_Timer_DisableTrigger:
 357              	.LFB15:
 642:.\Generated_Source\PSoC5/RC_Timer.c ****     #endif /* Remove code section if control register is not used */
 643:.\Generated_Source\PSoC5/RC_Timer.c **** }
 644:.\Generated_Source\PSoC5/RC_Timer.c **** 
 645:.\Generated_Source\PSoC5/RC_Timer.c **** 
 646:.\Generated_Source\PSoC5/RC_Timer.c **** /*******************************************************************************
 647:.\Generated_Source\PSoC5/RC_Timer.c **** * Function Name: RC_Timer_DisableTrigger
 648:.\Generated_Source\PSoC5/RC_Timer.c **** ********************************************************************************
 649:.\Generated_Source\PSoC5/RC_Timer.c **** *
 650:.\Generated_Source\PSoC5/RC_Timer.c **** * Summary:
 651:.\Generated_Source\PSoC5/RC_Timer.c **** *  Clears the control bit enabling Hardware Trigger mode
 652:.\Generated_Source\PSoC5/RC_Timer.c **** *
 653:.\Generated_Source\PSoC5/RC_Timer.c **** * Parameters:
 654:.\Generated_Source\PSoC5/RC_Timer.c **** *  void
 655:.\Generated_Source\PSoC5/RC_Timer.c **** *
 656:.\Generated_Source\PSoC5/RC_Timer.c **** * Return:
 657:.\Generated_Source\PSoC5/RC_Timer.c **** *  void
 658:.\Generated_Source\PSoC5/RC_Timer.c **** *
 659:.\Generated_Source\PSoC5/RC_Timer.c **** *******************************************************************************/
 660:.\Generated_Source\PSoC5/RC_Timer.c **** void RC_Timer_DisableTrigger(void) 
 661:.\Generated_Source\PSoC5/RC_Timer.c **** {
 358              		.loc 1 661 0
 359              		.cfi_startproc
 360              		@ args = 0, pretend = 0, frame = 0
 361              		@ frame_needed = 0, uses_anonymous_args = 0
 362              		@ link register save eliminated.
 662:.\Generated_Source\PSoC5/RC_Timer.c ****     #if (!RC_Timer_UDB_CONTROL_REG_REMOVED )   /* Remove assignment if control register is removed 
 663:.\Generated_Source\PSoC5/RC_Timer.c ****         RC_Timer_CONTROL &= ((uint8)(~RC_Timer_CTRL_TRIG_EN));
 363              		.loc 1 663 0
ARM GAS  C:\Users\Michael\AppData\Local\Temp\cc5aV9Cl.s 			page 19


 364 0000 024A     		ldr	r2, .L41
 365 0002 1378     		ldrb	r3, [r2]	@ zero_extendqisi2
 366 0004 03F0EF03 		and	r3, r3, #239
 367 0008 1370     		strb	r3, [r2]
 368 000a 7047     		bx	lr
 369              	.L42:
 370              		.align	2
 371              	.L41:
 372 000c 70640040 		.word	1073767536
 373              		.cfi_endproc
 374              	.LFE15:
 375              		.size	RC_Timer_DisableTrigger, .-RC_Timer_DisableTrigger
 376              		.section	.text.RC_Timer_SetInterruptCount,"ax",%progbits
 377              		.align	2
 378              		.global	RC_Timer_SetInterruptCount
 379              		.thumb
 380              		.thumb_func
 381              		.type	RC_Timer_SetInterruptCount, %function
 382              	RC_Timer_SetInterruptCount:
 383              	.LFB16:
 664:.\Generated_Source\PSoC5/RC_Timer.c ****     #endif /* Remove code section if control register is not used */
 665:.\Generated_Source\PSoC5/RC_Timer.c **** }
 666:.\Generated_Source\PSoC5/RC_Timer.c **** #endif /* Remove API is Trigger Mode is set to None */
 667:.\Generated_Source\PSoC5/RC_Timer.c **** 
 668:.\Generated_Source\PSoC5/RC_Timer.c **** #if(RC_Timer_InterruptOnCaptureCount)
 669:.\Generated_Source\PSoC5/RC_Timer.c **** 
 670:.\Generated_Source\PSoC5/RC_Timer.c **** 
 671:.\Generated_Source\PSoC5/RC_Timer.c **** /*******************************************************************************
 672:.\Generated_Source\PSoC5/RC_Timer.c **** * Function Name: RC_Timer_SetInterruptCount
 673:.\Generated_Source\PSoC5/RC_Timer.c **** ********************************************************************************
 674:.\Generated_Source\PSoC5/RC_Timer.c **** *
 675:.\Generated_Source\PSoC5/RC_Timer.c **** * Summary:
 676:.\Generated_Source\PSoC5/RC_Timer.c **** *  This function sets the capture count before an interrupt is triggered.
 677:.\Generated_Source\PSoC5/RC_Timer.c **** *
 678:.\Generated_Source\PSoC5/RC_Timer.c **** * Parameters:
 679:.\Generated_Source\PSoC5/RC_Timer.c **** *  interruptCount:  A value between 0 and 3 is valid.  If the value is 0, then
 680:.\Generated_Source\PSoC5/RC_Timer.c **** *                   an interrupt will occur each time a capture occurs.
 681:.\Generated_Source\PSoC5/RC_Timer.c **** *                   A value of 1 to 3 will cause the interrupt
 682:.\Generated_Source\PSoC5/RC_Timer.c **** *                   to delay by the same number of captures.
 683:.\Generated_Source\PSoC5/RC_Timer.c **** *
 684:.\Generated_Source\PSoC5/RC_Timer.c **** * Return:
 685:.\Generated_Source\PSoC5/RC_Timer.c **** *  void
 686:.\Generated_Source\PSoC5/RC_Timer.c **** *
 687:.\Generated_Source\PSoC5/RC_Timer.c **** *******************************************************************************/
 688:.\Generated_Source\PSoC5/RC_Timer.c **** void RC_Timer_SetInterruptCount(uint8 interruptCount) 
 689:.\Generated_Source\PSoC5/RC_Timer.c **** {
 384              		.loc 1 689 0
 385              		.cfi_startproc
 386              		@ args = 0, pretend = 0, frame = 0
 387              		@ frame_needed = 0, uses_anonymous_args = 0
 388              		@ link register save eliminated.
 389              	.LVL4:
 690:.\Generated_Source\PSoC5/RC_Timer.c ****     /* This must only set to two bits of the control register associated */
 691:.\Generated_Source\PSoC5/RC_Timer.c ****     interruptCount &= RC_Timer_CTRL_INTCNT_MASK;
 390              		.loc 1 691 0
 391 0000 00F00300 		and	r0, r0, #3
 392              	.LVL5:
ARM GAS  C:\Users\Michael\AppData\Local\Temp\cc5aV9Cl.s 			page 20


 692:.\Generated_Source\PSoC5/RC_Timer.c **** 
 693:.\Generated_Source\PSoC5/RC_Timer.c ****     #if (!RC_Timer_UDB_CONTROL_REG_REMOVED)
 694:.\Generated_Source\PSoC5/RC_Timer.c ****         /* Clear the Current Setting */
 695:.\Generated_Source\PSoC5/RC_Timer.c ****         RC_Timer_CONTROL &= ((uint8)(~RC_Timer_CTRL_INTCNT_MASK));
 393              		.loc 1 695 0
 394 0004 044B     		ldr	r3, .L44
 395 0006 1A78     		ldrb	r2, [r3]	@ zero_extendqisi2
 396 0008 02F0FC02 		and	r2, r2, #252
 397 000c 1A70     		strb	r2, [r3]
 696:.\Generated_Source\PSoC5/RC_Timer.c ****         /* Write The New Setting */
 697:.\Generated_Source\PSoC5/RC_Timer.c ****         RC_Timer_CONTROL |= interruptCount;
 398              		.loc 1 697 0
 399 000e 1A78     		ldrb	r2, [r3]	@ zero_extendqisi2
 400 0010 1043     		orrs	r0, r0, r2
 401              	.LVL6:
 402 0012 1870     		strb	r0, [r3]
 403 0014 7047     		bx	lr
 404              	.L45:
 405 0016 00BF     		.align	2
 406              	.L44:
 407 0018 70640040 		.word	1073767536
 408              		.cfi_endproc
 409              	.LFE16:
 410              		.size	RC_Timer_SetInterruptCount, .-RC_Timer_SetInterruptCount
 411              		.section	.text.RC_Timer_ClearFIFO,"ax",%progbits
 412              		.align	2
 413              		.global	RC_Timer_ClearFIFO
 414              		.thumb
 415              		.thumb_func
 416              		.type	RC_Timer_ClearFIFO, %function
 417              	RC_Timer_ClearFIFO:
 418              	.LFB17:
 698:.\Generated_Source\PSoC5/RC_Timer.c ****     #endif /* (!RC_Timer_UDB_CONTROL_REG_REMOVED) */
 699:.\Generated_Source\PSoC5/RC_Timer.c **** }
 700:.\Generated_Source\PSoC5/RC_Timer.c **** #endif /* RC_Timer_InterruptOnCaptureCount */
 701:.\Generated_Source\PSoC5/RC_Timer.c **** 
 702:.\Generated_Source\PSoC5/RC_Timer.c **** 
 703:.\Generated_Source\PSoC5/RC_Timer.c **** #if (RC_Timer_UsingHWCaptureCounter)
 704:.\Generated_Source\PSoC5/RC_Timer.c **** 
 705:.\Generated_Source\PSoC5/RC_Timer.c **** 
 706:.\Generated_Source\PSoC5/RC_Timer.c **** /*******************************************************************************
 707:.\Generated_Source\PSoC5/RC_Timer.c **** * Function Name: RC_Timer_SetCaptureCount
 708:.\Generated_Source\PSoC5/RC_Timer.c **** ********************************************************************************
 709:.\Generated_Source\PSoC5/RC_Timer.c **** *
 710:.\Generated_Source\PSoC5/RC_Timer.c **** * Summary:
 711:.\Generated_Source\PSoC5/RC_Timer.c **** *  This function sets the capture count
 712:.\Generated_Source\PSoC5/RC_Timer.c **** *
 713:.\Generated_Source\PSoC5/RC_Timer.c **** * Parameters:
 714:.\Generated_Source\PSoC5/RC_Timer.c **** *  captureCount: A value between 2 and 127 inclusive is valid.  A value of 1
 715:.\Generated_Source\PSoC5/RC_Timer.c **** *                to 127 will cause the interrupt to delay by the same number of
 716:.\Generated_Source\PSoC5/RC_Timer.c **** *                captures.
 717:.\Generated_Source\PSoC5/RC_Timer.c **** *
 718:.\Generated_Source\PSoC5/RC_Timer.c **** * Return:
 719:.\Generated_Source\PSoC5/RC_Timer.c **** *  void
 720:.\Generated_Source\PSoC5/RC_Timer.c **** *
 721:.\Generated_Source\PSoC5/RC_Timer.c **** *******************************************************************************/
 722:.\Generated_Source\PSoC5/RC_Timer.c **** void RC_Timer_SetCaptureCount(uint8 captureCount) 
ARM GAS  C:\Users\Michael\AppData\Local\Temp\cc5aV9Cl.s 			page 21


 723:.\Generated_Source\PSoC5/RC_Timer.c **** {
 724:.\Generated_Source\PSoC5/RC_Timer.c ****     RC_Timer_CAP_COUNT = captureCount;
 725:.\Generated_Source\PSoC5/RC_Timer.c **** }
 726:.\Generated_Source\PSoC5/RC_Timer.c **** 
 727:.\Generated_Source\PSoC5/RC_Timer.c **** 
 728:.\Generated_Source\PSoC5/RC_Timer.c **** /*******************************************************************************
 729:.\Generated_Source\PSoC5/RC_Timer.c **** * Function Name: RC_Timer_ReadCaptureCount
 730:.\Generated_Source\PSoC5/RC_Timer.c **** ********************************************************************************
 731:.\Generated_Source\PSoC5/RC_Timer.c **** *
 732:.\Generated_Source\PSoC5/RC_Timer.c **** * Summary:
 733:.\Generated_Source\PSoC5/RC_Timer.c **** *  This function reads the capture count setting
 734:.\Generated_Source\PSoC5/RC_Timer.c **** *
 735:.\Generated_Source\PSoC5/RC_Timer.c **** * Parameters:
 736:.\Generated_Source\PSoC5/RC_Timer.c **** *  void
 737:.\Generated_Source\PSoC5/RC_Timer.c **** *
 738:.\Generated_Source\PSoC5/RC_Timer.c **** * Return:
 739:.\Generated_Source\PSoC5/RC_Timer.c **** *  Returns the Capture Count Setting
 740:.\Generated_Source\PSoC5/RC_Timer.c **** *
 741:.\Generated_Source\PSoC5/RC_Timer.c **** *******************************************************************************/
 742:.\Generated_Source\PSoC5/RC_Timer.c **** uint8 RC_Timer_ReadCaptureCount(void) 
 743:.\Generated_Source\PSoC5/RC_Timer.c **** {
 744:.\Generated_Source\PSoC5/RC_Timer.c ****     return ((uint8)RC_Timer_CAP_COUNT);
 745:.\Generated_Source\PSoC5/RC_Timer.c **** }
 746:.\Generated_Source\PSoC5/RC_Timer.c **** #endif /* RC_Timer_UsingHWCaptureCounter */
 747:.\Generated_Source\PSoC5/RC_Timer.c **** 
 748:.\Generated_Source\PSoC5/RC_Timer.c **** 
 749:.\Generated_Source\PSoC5/RC_Timer.c **** /*******************************************************************************
 750:.\Generated_Source\PSoC5/RC_Timer.c **** * Function Name: RC_Timer_ClearFIFO
 751:.\Generated_Source\PSoC5/RC_Timer.c **** ********************************************************************************
 752:.\Generated_Source\PSoC5/RC_Timer.c **** *
 753:.\Generated_Source\PSoC5/RC_Timer.c **** * Summary:
 754:.\Generated_Source\PSoC5/RC_Timer.c **** *  This function clears all capture data from the capture FIFO
 755:.\Generated_Source\PSoC5/RC_Timer.c **** *
 756:.\Generated_Source\PSoC5/RC_Timer.c **** * Parameters:
 757:.\Generated_Source\PSoC5/RC_Timer.c **** *  void
 758:.\Generated_Source\PSoC5/RC_Timer.c **** *
 759:.\Generated_Source\PSoC5/RC_Timer.c **** * Return:
 760:.\Generated_Source\PSoC5/RC_Timer.c **** *  void
 761:.\Generated_Source\PSoC5/RC_Timer.c **** *
 762:.\Generated_Source\PSoC5/RC_Timer.c **** *******************************************************************************/
 763:.\Generated_Source\PSoC5/RC_Timer.c **** void RC_Timer_ClearFIFO(void) 
 764:.\Generated_Source\PSoC5/RC_Timer.c **** {
 419              		.loc 1 764 0
 420              		.cfi_startproc
 421              		@ args = 0, pretend = 0, frame = 0
 422              		@ frame_needed = 0, uses_anonymous_args = 0
 423 0000 08B5     		push	{r3, lr}
 424              		.cfi_def_cfa_offset 8
 425              		.cfi_offset 3, -8
 426              		.cfi_offset 14, -4
 765:.\Generated_Source\PSoC5/RC_Timer.c ****     while(0u != (RC_Timer_ReadStatusRegister() & RC_Timer_STATUS_FIFONEMP))
 427              		.loc 1 765 0
 428 0002 01E0     		b	.L47
 429              	.L48:
 766:.\Generated_Source\PSoC5/RC_Timer.c ****     {
 767:.\Generated_Source\PSoC5/RC_Timer.c ****         (void)RC_Timer_ReadCapture();
 430              		.loc 1 767 0
ARM GAS  C:\Users\Michael\AppData\Local\Temp\cc5aV9Cl.s 			page 22


 431 0004 FFF7FEFF 		bl	RC_Timer_ReadCapture
 432              	.LVL7:
 433              	.L47:
 765:.\Generated_Source\PSoC5/RC_Timer.c ****     while(0u != (RC_Timer_ReadStatusRegister() & RC_Timer_STATUS_FIFONEMP))
 434              		.loc 1 765 0
 435 0008 FFF7FEFF 		bl	RC_Timer_ReadStatusRegister
 436              	.LVL8:
 437 000c 10F0080F 		tst	r0, #8
 438 0010 F8D1     		bne	.L48
 768:.\Generated_Source\PSoC5/RC_Timer.c ****     }
 769:.\Generated_Source\PSoC5/RC_Timer.c **** }
 439              		.loc 1 769 0
 440 0012 08BD     		pop	{r3, pc}
 441              		.cfi_endproc
 442              	.LFE17:
 443              		.size	RC_Timer_ClearFIFO, .-RC_Timer_ClearFIFO
 444              		.section	.text.RC_Timer_Init,"ax",%progbits
 445              		.align	2
 446              		.global	RC_Timer_Init
 447              		.thumb
 448              		.thumb_func
 449              		.type	RC_Timer_Init, %function
 450              	RC_Timer_Init:
 451              	.LFB0:
  44:.\Generated_Source\PSoC5/RC_Timer.c ****     #if(!RC_Timer_UsingFixedFunction)
 452              		.loc 1 44 0
 453              		.cfi_startproc
 454              		@ args = 0, pretend = 0, frame = 0
 455              		@ frame_needed = 0, uses_anonymous_args = 0
 456 0000 10B5     		push	{r4, lr}
 457              		.cfi_def_cfa_offset 8
 458              		.cfi_offset 4, -8
 459              		.cfi_offset 14, -4
 118:.\Generated_Source\PSoC5/RC_Timer.c ****     RC_Timer_WriteCounter(RC_Timer_INIT_PERIOD);
 460              		.loc 1 118 0
 461 0002 0D4C     		ldr	r4, .L52
 462 0004 2046     		mov	r0, r4
 463 0006 FFF7FEFF 		bl	RC_Timer_WritePeriod
 464              	.LVL9:
 119:.\Generated_Source\PSoC5/RC_Timer.c **** 
 465              		.loc 1 119 0
 466 000a 2046     		mov	r0, r4
 467 000c FFF7FEFF 		bl	RC_Timer_WriteCounter
 468              	.LVL10:
 142:.\Generated_Source\PSoC5/RC_Timer.c **** 
 469              		.loc 1 142 0
 470 0010 FFF7FEFF 		bl	CyEnterCriticalSection
 471              	.LVL11:
 145:.\Generated_Source\PSoC5/RC_Timer.c **** 
 472              		.loc 1 145 0
 473 0014 094A     		ldr	r2, .L52+4
 474 0016 1378     		ldrb	r3, [r2]	@ zero_extendqisi2
 475 0018 43F01003 		orr	r3, r3, #16
 476 001c 1370     		strb	r3, [r2]
 148:.\Generated_Source\PSoC5/RC_Timer.c **** 
 477              		.loc 1 148 0
 478 001e FFF7FEFF 		bl	CyExitCriticalSection
ARM GAS  C:\Users\Michael\AppData\Local\Temp\cc5aV9Cl.s 			page 23


 479              	.LVL12:
 151:.\Generated_Source\PSoC5/RC_Timer.c ****         #endif /* Set Trigger enable bit for UDB implementation in the control register*/
 480              		.loc 1 151 0
 481 0022 FFF7FEFF 		bl	RC_Timer_EnableTrigger
 482              	.LVL13:
 156:.\Generated_Source\PSoC5/RC_Timer.c ****         #endif /* Set interrupt count in UDB implementation if interrupt count feature is checked.*
 483              		.loc 1 156 0
 484 0026 0020     		movs	r0, #0
 485 0028 FFF7FEFF 		bl	RC_Timer_SetInterruptCount
 486              	.LVL14:
 159:.\Generated_Source\PSoC5/RC_Timer.c ****     #endif /* Configure additional features of UDB implementation */
 487              		.loc 1 159 0
 488 002c FFF7FEFF 		bl	RC_Timer_ClearFIFO
 489              	.LVL15:
 162:.\Generated_Source\PSoC5/RC_Timer.c **** }
 490              		.loc 1 162 0
 491 0030 0220     		movs	r0, #2
 492 0032 FFF7FEFF 		bl	RC_Timer_SetInterruptMode
 493              	.LVL16:
 494 0036 10BD     		pop	{r4, pc}
 495              	.L53:
 496              		.align	2
 497              	.L52:
 498 0038 FFF69E0B 		.word	194967295
 499 003c 93640040 		.word	1073767571
 500              		.cfi_endproc
 501              	.LFE0:
 502              		.size	RC_Timer_Init, .-RC_Timer_Init
 503              		.section	.text.RC_Timer_Start,"ax",%progbits
 504              		.align	2
 505              		.global	RC_Timer_Start
 506              		.thumb
 507              		.thumb_func
 508              		.type	RC_Timer_Start, %function
 509              	RC_Timer_Start:
 510              	.LFB2:
 216:.\Generated_Source\PSoC5/RC_Timer.c ****     if(RC_Timer_initVar == 0u)
 511              		.loc 1 216 0
 512              		.cfi_startproc
 513              		@ args = 0, pretend = 0, frame = 0
 514              		@ frame_needed = 0, uses_anonymous_args = 0
 515 0000 08B5     		push	{r3, lr}
 516              		.cfi_def_cfa_offset 8
 517              		.cfi_offset 3, -8
 518              		.cfi_offset 14, -4
 217:.\Generated_Source\PSoC5/RC_Timer.c ****     {
 519              		.loc 1 217 0
 520 0002 054B     		ldr	r3, .L57
 521 0004 1B78     		ldrb	r3, [r3]	@ zero_extendqisi2
 522 0006 23B9     		cbnz	r3, .L55
 219:.\Generated_Source\PSoC5/RC_Timer.c **** 
 523              		.loc 1 219 0
 524 0008 FFF7FEFF 		bl	RC_Timer_Init
 525              	.LVL17:
 221:.\Generated_Source\PSoC5/RC_Timer.c ****     }
 526              		.loc 1 221 0
 527 000c 0122     		movs	r2, #1
ARM GAS  C:\Users\Michael\AppData\Local\Temp\cc5aV9Cl.s 			page 24


 528 000e 024B     		ldr	r3, .L57
 529 0010 1A70     		strb	r2, [r3]
 530              	.L55:
 225:.\Generated_Source\PSoC5/RC_Timer.c **** }
 531              		.loc 1 225 0
 532 0012 FFF7FEFF 		bl	RC_Timer_Enable
 533              	.LVL18:
 534 0016 08BD     		pop	{r3, pc}
 535              	.L58:
 536              		.align	2
 537              	.L57:
 538 0018 00000000 		.word	.LANCHOR0
 539              		.cfi_endproc
 540              	.LFE2:
 541              		.size	RC_Timer_Start, .-RC_Timer_Start
 542              		.global	RC_Timer_initVar
 543              		.bss
 544              		.set	.LANCHOR0,. + 0
 545              		.type	RC_Timer_initVar, %object
 546              		.size	RC_Timer_initVar, 1
 547              	RC_Timer_initVar:
 548 0000 00       		.space	1
 549              		.text
 550              	.Letext0:
 551              		.file 2 ".\\Generated_Source\\PSoC5\\cytypes.h"
 552              		.file 3 ".\\Generated_Source\\PSoC5\\CyLib.h"